ARM GAS  C:\Users\arh\AppData\Local\Temp\ccpMsX4j.s 			page 1


   1              		.syntax unified
   2              		.cpu cortex-m3
   3              		.fpu softvfp
   4              		.eabi_attribute 20, 1
   5              		.eabi_attribute 21, 1
   6              		.eabi_attribute 23, 3
   7              		.eabi_attribute 24, 1
   8              		.eabi_attribute 25, 1
   9              		.eabi_attribute 26, 1
  10              		.eabi_attribute 30, 6
  11              		.eabi_attribute 18, 4
  12              		.thumb
  13              		.file	"adc.c"
  14              		.section	.debug_abbrev,"",%progbits
  15              	.Ldebug_abbrev0:
  16              		.section	.debug_info,"",%progbits
  17              	.Ldebug_info0:
  18              		.section	.debug_line,"",%progbits
  19              	.Ldebug_line0:
  20 0000 20040000 		.text
  20      02006500 
  20      00000201 
  20      FB0E0D00 
  20      01010101 
  21              	.Ltext0:
  22              		.cfi_sections	.debug_frame
  23              		.global	adc_convDone
  24              		.bss
  25              		.type	adc_convDone, %object
  26              		.size	adc_convDone, 1
  27              	adc_convDone:
  28 0000 00       		.space	1
  29              		.global	adc_stopConversion
  30              		.type	adc_stopConversion, %object
  31              		.size	adc_stopConversion, 1
  32              	adc_stopConversion:
  33 0001 00       		.space	1
  34              		.global	adc_initVar
  35              		.type	adc_initVar, %object
  36              		.size	adc_initVar, 1
  37              	adc_initVar:
  38 0002 00       		.space	1
  39              		.global	adc_started
  40              		.type	adc_started, %object
  41              		.size	adc_started, 1
  42              	adc_started:
  43 0003 00       		.space	1
  44              		.global	adc_Config
  45              		.data
  46              		.type	adc_Config, %object
  47              		.size	adc_Config, 1
  48              	adc_Config:
  49 0000 01       		.byte	1
  50              		.global	adc_Offset
  51              		.bss
  52              		.align	2
  53              		.type	adc_Offset, %object
ARM GAS  C:\Users\arh\AppData\Local\Temp\ccpMsX4j.s 			page 2


  54              		.size	adc_Offset, 4
  55              	adc_Offset:
  56 0004 00000000 		.space	4
  57              		.global	adc_CountsPerVolt
  58              		.data
  59 0001 000000   		.align	2
  60              		.type	adc_CountsPerVolt, %object
  61              		.size	adc_CountsPerVolt, 4
  62              	adc_CountsPerVolt:
  63 0004 007D0000 		.word	32000
  64              		.global	adc_restoreReg
  65              		.bss
  66              		.type	adc_restoreReg, %object
  67              		.size	adc_restoreReg, 1
  68              	adc_restoreReg:
  69 0008 00       		.space	1
  70 0009 000000   		.data
  71              		.align	2
  72              		.type	adc_powerModeBackup, %object
  73              		.size	adc_powerModeBackup, 9
  74              	adc_powerModeBackup:
  75 0008 02       		.byte	2
  76 0009 12       		.byte	18
  77 000a 28       		.byte	40
  78 000b EB       		.byte	-21
  79 000c 44       		.byte	68
  80 000d 05       		.byte	5
  81 000e 01       		.byte	1
  82 000f 18       		.byte	24
  83 0010 00       		.byte	0
  84 0011 000000   		.section	.text.adc_Init,"ax",%progbits
  85              		.align	2
  86              		.global	adc_Init
  87              		.thumb
  88              		.thumb_func
  89              		.type	adc_Init, %function
  90              	adc_Init:
  91              	.LFB0:
  92              		.file 1 ".\\Generated_Source\\PSoC5\\adc.c"
   1:.\Generated_Source\PSoC5/adc.c **** /*******************************************************************************
   2:.\Generated_Source\PSoC5/adc.c **** * File Name: adc.c  
   3:.\Generated_Source\PSoC5/adc.c **** * Version 2.30
   4:.\Generated_Source\PSoC5/adc.c **** *
   5:.\Generated_Source\PSoC5/adc.c **** * Description:
   6:.\Generated_Source\PSoC5/adc.c **** *  This file provides the source code to the API for the Delta-Sigma ADC
   7:.\Generated_Source\PSoC5/adc.c **** *  Component.
   8:.\Generated_Source\PSoC5/adc.c **** *
   9:.\Generated_Source\PSoC5/adc.c **** * Note:
  10:.\Generated_Source\PSoC5/adc.c **** *
  11:.\Generated_Source\PSoC5/adc.c **** *******************************************************************************
  12:.\Generated_Source\PSoC5/adc.c **** * Copyright 2008-2012, Cypress Semiconductor Corporation.  All rights reserved.
  13:.\Generated_Source\PSoC5/adc.c **** * You may use this file only in accordance with the license, terms, conditions, 
  14:.\Generated_Source\PSoC5/adc.c **** * disclaimers, and limitations in the end user license agreement accompanying 
  15:.\Generated_Source\PSoC5/adc.c **** * the software package with which this file was provided.
  16:.\Generated_Source\PSoC5/adc.c **** ********************************************************************************/
  17:.\Generated_Source\PSoC5/adc.c **** 
  18:.\Generated_Source\PSoC5/adc.c **** #include "adc.h"
ARM GAS  C:\Users\arh\AppData\Local\Temp\ccpMsX4j.s 			page 3


  19:.\Generated_Source\PSoC5/adc.c **** 
  20:.\Generated_Source\PSoC5/adc.c **** #if(adc_DEFAULT_INTERNAL_CLK)
  21:.\Generated_Source\PSoC5/adc.c ****     #include "adc_theACLK.h"
  22:.\Generated_Source\PSoC5/adc.c **** #endif /* adc_DEFAULT_INTERNAL_CLK */
  23:.\Generated_Source\PSoC5/adc.c **** 
  24:.\Generated_Source\PSoC5/adc.c **** #include "adc_Ext_CP_Clk.h"
  25:.\Generated_Source\PSoC5/adc.c **** 
  26:.\Generated_Source\PSoC5/adc.c **** #if(adc_DEFAULT_INPUT_MODE)
  27:.\Generated_Source\PSoC5/adc.c ****     #include "adc_AMux.h"
  28:.\Generated_Source\PSoC5/adc.c **** #endif /* adc_DEFAULT_INPUT_MODE */
  29:.\Generated_Source\PSoC5/adc.c **** 
  30:.\Generated_Source\PSoC5/adc.c **** /* Software flag for checking conversion completed or not */
  31:.\Generated_Source\PSoC5/adc.c **** volatile uint8 adc_convDone = 0u;
  32:.\Generated_Source\PSoC5/adc.c **** 
  33:.\Generated_Source\PSoC5/adc.c **** /* Software flag to stop conversion for single sample conversion mode 
  34:.\Generated_Source\PSoC5/adc.c ****    with resolution above 16 bits */
  35:.\Generated_Source\PSoC5/adc.c **** volatile uint8 adc_stopConversion = 0u;
  36:.\Generated_Source\PSoC5/adc.c **** 
  37:.\Generated_Source\PSoC5/adc.c **** /* To run the initialization block only at the start up */
  38:.\Generated_Source\PSoC5/adc.c **** uint8 adc_initVar = 0u;
  39:.\Generated_Source\PSoC5/adc.c **** 
  40:.\Generated_Source\PSoC5/adc.c **** /* To check whether ADC started or not before switching the configuration */
  41:.\Generated_Source\PSoC5/adc.c **** volatile uint8 adc_started = 0u;
  42:.\Generated_Source\PSoC5/adc.c **** 
  43:.\Generated_Source\PSoC5/adc.c **** /* Flag to hold ADC config number. By default active config is 1. */
  44:.\Generated_Source\PSoC5/adc.c **** volatile uint8 adc_Config = 1u;
  45:.\Generated_Source\PSoC5/adc.c **** 
  46:.\Generated_Source\PSoC5/adc.c **** volatile int32 adc_Offset = 0u;
  47:.\Generated_Source\PSoC5/adc.c **** volatile int32 adc_CountsPerVolt = (uint32)adc_CFG1_COUNTS_PER_VOLT;
  48:.\Generated_Source\PSoC5/adc.c **** 
  49:.\Generated_Source\PSoC5/adc.c **** /* Only valid for PSoC5A */
  50:.\Generated_Source\PSoC5/adc.c **** /* Variable to decide whether or not to restore the register values from
  51:.\Generated_Source\PSoC5/adc.c ****     backup structure */
  52:.\Generated_Source\PSoC5/adc.c **** #if (CY_PSOC5A)
  53:.\Generated_Source\PSoC5/adc.c ****     uint8 adc_restoreReg = 0u;
  54:.\Generated_Source\PSoC5/adc.c **** #endif /* CY_PSOC5A */
  55:.\Generated_Source\PSoC5/adc.c **** 
  56:.\Generated_Source\PSoC5/adc.c **** /* Valid only for PSoC5A silicon */
  57:.\Generated_Source\PSoC5/adc.c **** #if (CY_PSOC5A)
  58:.\Generated_Source\PSoC5/adc.c ****     /* Backup struct for power mode registers */
  59:.\Generated_Source\PSoC5/adc.c ****     static adc_POWERMODE_BACKUP_STRUCT adc_powerModeBackup = 
  60:.\Generated_Source\PSoC5/adc.c ****     {
  61:.\Generated_Source\PSoC5/adc.c ****         /* Initializing the structure fields with power mode registers of 
  62:.\Generated_Source\PSoC5/adc.c ****            config1 */
  63:.\Generated_Source\PSoC5/adc.c ****         adc_CFG1_DSM_CR14,
  64:.\Generated_Source\PSoC5/adc.c ****         adc_CFG1_DSM_CR15,
  65:.\Generated_Source\PSoC5/adc.c ****         adc_CFG1_DSM_CR16,
  66:.\Generated_Source\PSoC5/adc.c ****         adc_CFG1_DSM_CR17,
  67:.\Generated_Source\PSoC5/adc.c ****         adc_CFG1_DSM_REF0,
  68:.\Generated_Source\PSoC5/adc.c ****         adc_CFG1_DSM_BUF0,
  69:.\Generated_Source\PSoC5/adc.c ****         adc_CFG1_DSM_BUF1,
  70:.\Generated_Source\PSoC5/adc.c ****         adc_CFG1_DSM_CLK,
  71:.\Generated_Source\PSoC5/adc.c ****         adc_BYPASS_DISABLED
  72:.\Generated_Source\PSoC5/adc.c ****     };
  73:.\Generated_Source\PSoC5/adc.c **** #endif /* CY_PSOC5A */
  74:.\Generated_Source\PSoC5/adc.c **** 
  75:.\Generated_Source\PSoC5/adc.c **** 
ARM GAS  C:\Users\arh\AppData\Local\Temp\ccpMsX4j.s 			page 4


  76:.\Generated_Source\PSoC5/adc.c **** /****************************************************************************** 
  77:.\Generated_Source\PSoC5/adc.c **** * Function Name: adc_Init
  78:.\Generated_Source\PSoC5/adc.c **** *******************************************************************************
  79:.\Generated_Source\PSoC5/adc.c **** *
  80:.\Generated_Source\PSoC5/adc.c **** * Summary:
  81:.\Generated_Source\PSoC5/adc.c **** *  Initialize component's parameters to the parameters set by user in the 
  82:.\Generated_Source\PSoC5/adc.c **** *  customizer of the component placed onto schematic. Usually called in 
  83:.\Generated_Source\PSoC5/adc.c **** * adc_Start().
  84:.\Generated_Source\PSoC5/adc.c **** *  
  85:.\Generated_Source\PSoC5/adc.c **** *
  86:.\Generated_Source\PSoC5/adc.c **** * Parameters:  
  87:.\Generated_Source\PSoC5/adc.c **** *  void
  88:.\Generated_Source\PSoC5/adc.c **** *
  89:.\Generated_Source\PSoC5/adc.c **** * Return: 
  90:.\Generated_Source\PSoC5/adc.c **** *  void 
  91:.\Generated_Source\PSoC5/adc.c **** *
  92:.\Generated_Source\PSoC5/adc.c **** *******************************************************************************/
  93:.\Generated_Source\PSoC5/adc.c **** void adc_Init(void) 
  94:.\Generated_Source\PSoC5/adc.c **** {
  93              		.loc 1 94 0
  94              		.cfi_startproc
  95              		@ args = 0, pretend = 0, frame = 0
  96              		@ frame_needed = 1, uses_anonymous_args = 0
  97 0000 80B5     		push	{r7, lr}
  98              	.LCFI0:
  99              		.cfi_def_cfa_offset 8
 100 0002 00AF     		add	r7, sp, #0
 101              		.cfi_offset 14, -4
 102              		.cfi_offset 7, -8
 103              	.LCFI1:
 104              		.cfi_def_cfa_register 7
  95:.\Generated_Source\PSoC5/adc.c ****     /* Initialize the registers with default customizer settings for config1 */
  96:.\Generated_Source\PSoC5/adc.c ****     adc_InitConfig(1);
 105              		.loc 1 96 0
 106 0004 4FF00100 		mov	r0, #1
 107 0008 FFF7FEFF 		bl	adc_InitConfig
  97:.\Generated_Source\PSoC5/adc.c **** 
  98:.\Generated_Source\PSoC5/adc.c ****     /* This is only valid if there is an internal clock */
  99:.\Generated_Source\PSoC5/adc.c ****     #if(adc_DEFAULT_INTERNAL_CLK)
 100:.\Generated_Source\PSoC5/adc.c ****         adc_theACLK_SetMode(CYCLK_DUTY);
 108              		.loc 1 100 0
 109 000c 4FF01000 		mov	r0, #16
 110 0010 FFF7FEFF 		bl	adc_theACLK_SetModeRegister
 101:.\Generated_Source\PSoC5/adc.c ****     #endif /* adc_DEFAULT_INTERNAL_CLK */
 102:.\Generated_Source\PSoC5/adc.c ****     
 103:.\Generated_Source\PSoC5/adc.c ****     /* Set the duty cycle for charge pump clock */
 104:.\Generated_Source\PSoC5/adc.c ****     adc_Ext_CP_Clk_SetMode(CYCLK_DUTY);
 111              		.loc 1 104 0
 112 0014 4FF01000 		mov	r0, #16
 113 0018 FFF7FEFF 		bl	adc_Ext_CP_Clk_SetModeRegister
 105:.\Generated_Source\PSoC5/adc.c **** 
 106:.\Generated_Source\PSoC5/adc.c ****     /* To perform ADC calibration */
 107:.\Generated_Source\PSoC5/adc.c ****     adc_GainCompensation(adc_CFG1_RANGE, 
 114              		.loc 1 107 0
 115 001c 4FF00400 		mov	r0, #4
 116 0020 49F2DB01 		movw	r1, #37083
 117 0024 4FF40042 		mov	r2, #32768
ARM GAS  C:\Users\arh\AppData\Local\Temp\ccpMsX4j.s 			page 5


 118 0028 4FF01003 		mov	r3, #16
 119 002c FFF7FEFF 		bl	adc_GainCompensation
 108:.\Generated_Source\PSoC5/adc.c ****                                       adc_CFG1_IDEAL_DEC_GAIN, 
 109:.\Generated_Source\PSoC5/adc.c ****                                       adc_CFG1_IDEAL_ODDDEC_GAIN, 
 110:.\Generated_Source\PSoC5/adc.c ****                                       adc_CFG1_RESOLUTION);        
 111:.\Generated_Source\PSoC5/adc.c **** }
 120              		.loc 1 111 0
 121 0030 80BD     		pop	{r7, pc}
 122              		.cfi_endproc
 123              	.LFE0:
 124              		.size	adc_Init, .-adc_Init
 125 0032 00BF     		.section	.text.adc_Enable,"ax",%progbits
 126              		.align	2
 127              		.global	adc_Enable
 128              		.thumb
 129              		.thumb_func
 130              		.type	adc_Enable, %function
 131              	adc_Enable:
 132              	.LFB1:
 112:.\Generated_Source\PSoC5/adc.c **** 
 113:.\Generated_Source\PSoC5/adc.c **** 
 114:.\Generated_Source\PSoC5/adc.c **** /******************************************************************************
 115:.\Generated_Source\PSoC5/adc.c **** * Function Name: adc_Enable
 116:.\Generated_Source\PSoC5/adc.c **** *******************************************************************************
 117:.\Generated_Source\PSoC5/adc.c **** *
 118:.\Generated_Source\PSoC5/adc.c **** * Summary: 
 119:.\Generated_Source\PSoC5/adc.c **** *  Enables the ADC DelSig block operation.
 120:.\Generated_Source\PSoC5/adc.c **** *  
 121:.\Generated_Source\PSoC5/adc.c **** *
 122:.\Generated_Source\PSoC5/adc.c **** * Parameters:  
 123:.\Generated_Source\PSoC5/adc.c **** *  void
 124:.\Generated_Source\PSoC5/adc.c **** *
 125:.\Generated_Source\PSoC5/adc.c **** * Return: 
 126:.\Generated_Source\PSoC5/adc.c **** *  void 
 127:.\Generated_Source\PSoC5/adc.c **** *
 128:.\Generated_Source\PSoC5/adc.c **** *******************************************************************************/
 129:.\Generated_Source\PSoC5/adc.c **** void adc_Enable(void) 
 130:.\Generated_Source\PSoC5/adc.c **** {
 133              		.loc 1 130 0
 134              		.cfi_startproc
 135              		@ args = 0, pretend = 0, frame = 0
 136              		@ frame_needed = 1, uses_anonymous_args = 0
 137 0000 80B5     		push	{r7, lr}
 138              	.LCFI2:
 139              		.cfi_def_cfa_offset 8
 140 0002 00AF     		add	r7, sp, #0
 141              		.cfi_offset 14, -4
 142              		.cfi_offset 7, -8
 143              	.LCFI3:
 144              		.cfi_def_cfa_register 7
 131:.\Generated_Source\PSoC5/adc.c ****     /* Restore the power registers if silicon used is PSoC5A */
 132:.\Generated_Source\PSoC5/adc.c ****     #if (CY_PSOC5A)
 133:.\Generated_Source\PSoC5/adc.c ****         if(adc_restoreReg && 
 145              		.loc 1 133 0
 146 0004 40F20003 		movw	r3, #:lower16:adc_restoreReg
 147 0008 C0F20003 		movt	r3, #:upper16:adc_restoreReg
 148 000c 1B78     		ldrb	r3, [r3, #0]	@ zero_extendqisi2
ARM GAS  C:\Users\arh\AppData\Local\Temp\ccpMsX4j.s 			page 6


 149 000e 002B     		cmp	r3, #0
 150 0010 0FD0     		beq	.L4
 134:.\Generated_Source\PSoC5/adc.c ****            (!(adc_powerModeBackup.bypassRestore)))
 151              		.loc 1 134 0
 152 0012 40F20003 		movw	r3, #:lower16:adc_powerModeBackup
 153 0016 C0F20003 		movt	r3, #:upper16:adc_powerModeBackup
 154 001a 1B7A     		ldrb	r3, [r3, #8]	@ zero_extendqisi2
 155              		.loc 1 133 0
 156 001c 002B     		cmp	r3, #0
 157 001e 08D1     		bne	.L4
 135:.\Generated_Source\PSoC5/adc.c ****         {
 136:.\Generated_Source\PSoC5/adc.c ****             adc_RestorePowerRegisters();
 158              		.loc 1 136 0
 159 0020 FFF7FEFF 		bl	adc_RestorePowerRegisters
 137:.\Generated_Source\PSoC5/adc.c ****             adc_restoreReg = 0u;
 160              		.loc 1 137 0
 161 0024 40F20003 		movw	r3, #:lower16:adc_restoreReg
 162 0028 C0F20003 		movt	r3, #:upper16:adc_restoreReg
 163 002c 4FF00002 		mov	r2, #0
 164 0030 1A70     		strb	r2, [r3, #0]
 165              	.L4:
 138:.\Generated_Source\PSoC5/adc.c ****         }
 139:.\Generated_Source\PSoC5/adc.c ****         adc_powerModeBackup.bypassRestore = adc_BYPASS_DISABLED;
 166              		.loc 1 139 0
 167 0032 40F20003 		movw	r3, #:lower16:adc_powerModeBackup
 168 0036 C0F20003 		movt	r3, #:upper16:adc_powerModeBackup
 169 003a 4FF00002 		mov	r2, #0
 170 003e 1A72     		strb	r2, [r3, #8]
 140:.\Generated_Source\PSoC5/adc.c ****     #endif /* CY_PSOC5A */
 141:.\Generated_Source\PSoC5/adc.c **** 
 142:.\Generated_Source\PSoC5/adc.c ****     /* Enable active mode power for ADC */
 143:.\Generated_Source\PSoC5/adc.c ****     adc_PWRMGR_DEC_REG |= adc_ACT_PWR_DEC_EN;
 171              		.loc 1 143 0
 172 0040 44F2AA33 		movw	r3, #:lower16:1073759146
 173 0044 C4F20003 		movt	r3, #:upper16:1073759146
 174 0048 44F2AA32 		movw	r2, #:lower16:1073759146
 175 004c C4F20002 		movt	r2, #:upper16:1073759146
 176 0050 1278     		ldrb	r2, [r2, #0]
 177 0052 D2B2     		uxtb	r2, r2
 178 0054 42F00102 		orr	r2, r2, #1
 179 0058 D2B2     		uxtb	r2, r2
 180 005a 1A70     		strb	r2, [r3, #0]
 144:.\Generated_Source\PSoC5/adc.c ****     adc_PWRMGR_DSM_REG |= adc_ACT_PWR_DSM_EN;
 181              		.loc 1 144 0
 182 005c 44F2C533 		movw	r3, #:lower16:1073759173
 183 0060 C4F20003 		movt	r3, #:upper16:1073759173
 184 0064 44F2C532 		movw	r2, #:lower16:1073759173
 185 0068 C4F20002 		movt	r2, #:upper16:1073759173
 186 006c 1278     		ldrb	r2, [r2, #0]
 187 006e D2B2     		uxtb	r2, r2
 188 0070 42F00102 		orr	r2, r2, #1
 189 0074 D2B2     		uxtb	r2, r2
 190 0076 1A70     		strb	r2, [r3, #0]
 145:.\Generated_Source\PSoC5/adc.c ****     
 146:.\Generated_Source\PSoC5/adc.c ****      /* Enable alternative active mode power for ADC */
 147:.\Generated_Source\PSoC5/adc.c ****     adc_STBY_PWRMGR_DEC_REG |= adc_STBY_PWR_DEC_EN;
 191              		.loc 1 147 0
ARM GAS  C:\Users\arh\AppData\Local\Temp\ccpMsX4j.s 			page 7


 192 0078 44F2BA33 		movw	r3, #:lower16:1073759162
 193 007c C4F20003 		movt	r3, #:upper16:1073759162
 194 0080 44F2BA32 		movw	r2, #:lower16:1073759162
 195 0084 C4F20002 		movt	r2, #:upper16:1073759162
 196 0088 1278     		ldrb	r2, [r2, #0]
 197 008a D2B2     		uxtb	r2, r2
 198 008c 42F00102 		orr	r2, r2, #1
 199 0090 D2B2     		uxtb	r2, r2
 200 0092 1A70     		strb	r2, [r3, #0]
 148:.\Generated_Source\PSoC5/adc.c ****     #if (CY_PSOC3 || CY_PSOC5LP)
 149:.\Generated_Source\PSoC5/adc.c ****     adc_STBY_PWRMGR_DSM_REG |= adc_STBY_PWR_DSM_EN;
 150:.\Generated_Source\PSoC5/adc.c ****     #endif /* CY_PSOC3 || CY_PSOC5LP */
 151:.\Generated_Source\PSoC5/adc.c **** 
 152:.\Generated_Source\PSoC5/adc.c ****     /* Config selected is 1, then before enablign the REFBUF0, REFBUF1 and 
 153:.\Generated_Source\PSoC5/adc.c **** 	   VCMBUF's enable and press circuit and then after a delay of 3
 154:.\Generated_Source\PSoC5/adc.c **** 	   microseconds, disable the press circuit. */
 155:.\Generated_Source\PSoC5/adc.c ****     if (adc_Config == 1u)
 201              		.loc 1 155 0
 202 0094 40F20003 		movw	r3, #:lower16:adc_Config
 203 0098 C0F20003 		movt	r3, #:upper16:adc_Config
 204 009c 1B78     		ldrb	r3, [r3, #0]
 205 009e DBB2     		uxtb	r3, r3
 206 00a0 012B     		cmp	r3, #1
 207 00a2 47D1     		bne	.L5
 156:.\Generated_Source\PSoC5/adc.c **** 	{
 157:.\Generated_Source\PSoC5/adc.c **** 	    /* Disable PRES, Enable power to VCMBUF0, REFBUF0 and REFBUF1, enable 
 158:.\Generated_Source\PSoC5/adc.c **** 	       PRES */
 159:.\Generated_Source\PSoC5/adc.c **** 	    #if (CY_PSOC3 || CY_PSOC5LP)
 160:.\Generated_Source\PSoC5/adc.c **** 	        adc_RESET_CR4_REG |= adc_IGNORE_PRESA1;
 161:.\Generated_Source\PSoC5/adc.c **** 	        adc_RESET_CR5_REG |= adc_IGNORE_PRESA2;
 162:.\Generated_Source\PSoC5/adc.c **** 	    #elif (CY_PSOC5A)
 163:.\Generated_Source\PSoC5/adc.c **** 	        adc_RESET_CR1_REG |= adc_DIS_PRES1;
 208              		.loc 1 163 0
 209 00a4 44F2F563 		movw	r3, #:lower16:1073759989
 210 00a8 C4F20003 		movt	r3, #:upper16:1073759989
 211 00ac 44F2F562 		movw	r2, #:lower16:1073759989
 212 00b0 C4F20002 		movt	r2, #:upper16:1073759989
 213 00b4 1278     		ldrb	r2, [r2, #0]
 214 00b6 D2B2     		uxtb	r2, r2
 215 00b8 42F01002 		orr	r2, r2, #16
 216 00bc D2B2     		uxtb	r2, r2
 217 00be 1A70     		strb	r2, [r3, #0]
 164:.\Generated_Source\PSoC5/adc.c **** 	        adc_RESET_CR3_REG |= adc_DIS_PRES2;
 218              		.loc 1 164 0
 219 00c0 44F2F763 		movw	r3, #:lower16:1073759991
 220 00c4 C4F20003 		movt	r3, #:upper16:1073759991
 221 00c8 44F2F762 		movw	r2, #:lower16:1073759991
 222 00cc C4F20002 		movt	r2, #:upper16:1073759991
 223 00d0 1278     		ldrb	r2, [r2, #0]
 224 00d2 D2B2     		uxtb	r2, r2
 225 00d4 42F00802 		orr	r2, r2, #8
 226 00d8 D2B2     		uxtb	r2, r2
 227 00da 1A70     		strb	r2, [r3, #0]
 165:.\Generated_Source\PSoC5/adc.c **** 	    #endif /* CY_PSOC5A */
 166:.\Generated_Source\PSoC5/adc.c **** 	    
 167:.\Generated_Source\PSoC5/adc.c **** 	    adc_DSM_CR17_REG |= (adc_DSM_EN_BUF_VREF | adc_DSM_EN_BUF_VCM);
 228              		.loc 1 167 0
ARM GAS  C:\Users\arh\AppData\Local\Temp\ccpMsX4j.s 			page 8


 229 00dc 45F69103 		movw	r3, #:lower16:1073764497
 230 00e0 C4F20003 		movt	r3, #:upper16:1073764497
 231 00e4 45F69102 		movw	r2, #:lower16:1073764497
 232 00e8 C4F20002 		movt	r2, #:upper16:1073764497
 233 00ec 1278     		ldrb	r2, [r2, #0]
 234 00ee D2B2     		uxtb	r2, r2
 235 00f0 42F00302 		orr	r2, r2, #3
 236 00f4 D2B2     		uxtb	r2, r2
 237 00f6 1A70     		strb	r2, [r3, #0]
 168:.\Generated_Source\PSoC5/adc.c **** 	    #if ((adc_CFG1_REFERENCE == adc_EXT_REF_ON_P03) || \
 169:.\Generated_Source\PSoC5/adc.c **** 	         (adc_CFG1_REFERENCE == adc_EXT_REF_ON_P32))
 170:.\Generated_Source\PSoC5/adc.c **** 	        adc_DSM_CR17_REG &= ~adc_DSM_EN_BUF_VREF;
 171:.\Generated_Source\PSoC5/adc.c **** 	    #endif /* Check for exteranl reference option */
 172:.\Generated_Source\PSoC5/adc.c **** 	    #if ((adc_CFG1_RANGE == adc_IR_VSSA_TO_2VREF) && \
 173:.\Generated_Source\PSoC5/adc.c **** 	          (CY_PSOC3 || CY_PSOC5LP) && \
 174:.\Generated_Source\PSoC5/adc.c **** 	          ((adc_CFG1_REFERENCE != adc_EXT_REF_ON_P03) && \
 175:.\Generated_Source\PSoC5/adc.c **** 	         (adc_CFG1_REFERENCE != adc_EXT_REF_ON_P32)))
 176:.\Generated_Source\PSoC5/adc.c **** 	        adc_DSM_REF0_REG |= adc_DSM_EN_BUF_VREF_INN;
 177:.\Generated_Source\PSoC5/adc.c **** 	    #endif /* adc_IR_VSSA_TO_2VREF */
 178:.\Generated_Source\PSoC5/adc.c **** 	    
 179:.\Generated_Source\PSoC5/adc.c **** 	        /* Wait for 3 microseconds */
 180:.\Generated_Source\PSoC5/adc.c **** 	    CyDelayUs(3);
 238              		.loc 1 180 0
 239 00f8 4FF00300 		mov	r0, #3
 240 00fc FFF7FEFF 		bl	CyDelayUs
 181:.\Generated_Source\PSoC5/adc.c ****         /* Enable the press circuit */
 182:.\Generated_Source\PSoC5/adc.c **** 	    #if (CY_PSOC3 || CY_PSOC5LP)
 183:.\Generated_Source\PSoC5/adc.c **** 	        adc_RESET_CR4_REG &= ~adc_IGNORE_PRESA1;
 184:.\Generated_Source\PSoC5/adc.c **** 	        adc_RESET_CR5_REG &= ~adc_IGNORE_PRESA2;
 185:.\Generated_Source\PSoC5/adc.c **** 	    #elif (CY_PSOC5A)
 186:.\Generated_Source\PSoC5/adc.c **** 	        adc_RESET_CR1_REG &= ~adc_DIS_PRES1;
 241              		.loc 1 186 0
 242 0100 44F2F563 		movw	r3, #:lower16:1073759989
 243 0104 C4F20003 		movt	r3, #:upper16:1073759989
 244 0108 44F2F562 		movw	r2, #:lower16:1073759989
 245 010c C4F20002 		movt	r2, #:upper16:1073759989
 246 0110 1278     		ldrb	r2, [r2, #0]
 247 0112 D2B2     		uxtb	r2, r2
 248 0114 02F0EF02 		and	r2, r2, #239
 249 0118 1A70     		strb	r2, [r3, #0]
 187:.\Generated_Source\PSoC5/adc.c **** 	        adc_RESET_CR3_REG &= ~adc_DIS_PRES2;
 250              		.loc 1 187 0
 251 011a 44F2F763 		movw	r3, #:lower16:1073759991
 252 011e C4F20003 		movt	r3, #:upper16:1073759991
 253 0122 44F2F762 		movw	r2, #:lower16:1073759991
 254 0126 C4F20002 		movt	r2, #:upper16:1073759991
 255 012a 1278     		ldrb	r2, [r2, #0]
 256 012c D2B2     		uxtb	r2, r2
 257 012e 02F0F702 		and	r2, r2, #247
 258 0132 1A70     		strb	r2, [r3, #0]
 259              	.L5:
 188:.\Generated_Source\PSoC5/adc.c **** 	    #endif /* CY_PSOC5A */
 189:.\Generated_Source\PSoC5/adc.c **** 	}
 190:.\Generated_Source\PSoC5/adc.c ****     
 191:.\Generated_Source\PSoC5/adc.c ****     /* Enable negative pumps for DSM  */
 192:.\Generated_Source\PSoC5/adc.c ****     adc_PUMP_CR1_REG  |= ( adc_PUMP_CR1_CLKSEL | adc_PUMP_CR1_FORCE );
 260              		.loc 1 192 0
ARM GAS  C:\Users\arh\AppData\Local\Temp\ccpMsX4j.s 			page 9


 261 0134 45F67703 		movw	r3, #:lower16:1073764471
 262 0138 C4F20003 		movt	r3, #:upper16:1073764471
 263 013c 45F67702 		movw	r2, #:lower16:1073764471
 264 0140 C4F20002 		movt	r2, #:upper16:1073764471
 265 0144 1278     		ldrb	r2, [r2, #0]
 266 0146 D2B2     		uxtb	r2, r2
 267 0148 42F00602 		orr	r2, r2, #6
 268 014c D2B2     		uxtb	r2, r2
 269 014e 1A70     		strb	r2, [r3, #0]
 193:.\Generated_Source\PSoC5/adc.c ****  
 194:.\Generated_Source\PSoC5/adc.c ****     /* This is only valid if there is an internal clock */
 195:.\Generated_Source\PSoC5/adc.c ****     #if(adc_DEFAULT_INTERNAL_CLK)
 196:.\Generated_Source\PSoC5/adc.c ****         adc_PWRMGR_CLK_REG |= adc_ACT_PWR_CLK_EN;        
 270              		.loc 1 196 0
 271 0150 44F2A133 		movw	r3, #:lower16:1073759137
 272 0154 C4F20003 		movt	r3, #:upper16:1073759137
 273 0158 44F2A132 		movw	r2, #:lower16:1073759137
 274 015c C4F20002 		movt	r2, #:upper16:1073759137
 275 0160 1278     		ldrb	r2, [r2, #0]
 276 0162 D2B2     		uxtb	r2, r2
 277 0164 42F00102 		orr	r2, r2, #1
 278 0168 D2B2     		uxtb	r2, r2
 279 016a 1A70     		strb	r2, [r3, #0]
 197:.\Generated_Source\PSoC5/adc.c ****         adc_STBY_PWRMGR_CLK_REG |= adc_STBY_PWR_CLK_EN;
 280              		.loc 1 197 0
 281 016c 44F2B133 		movw	r3, #:lower16:1073759153
 282 0170 C4F20003 		movt	r3, #:upper16:1073759153
 283 0174 44F2B132 		movw	r2, #:lower16:1073759153
 284 0178 C4F20002 		movt	r2, #:upper16:1073759153
 285 017c 1278     		ldrb	r2, [r2, #0]
 286 017e D2B2     		uxtb	r2, r2
 287 0180 42F00102 		orr	r2, r2, #1
 288 0184 D2B2     		uxtb	r2, r2
 289 0186 1A70     		strb	r2, [r3, #0]
 198:.\Generated_Source\PSoC5/adc.c ****     #endif /* adc_DEFAULT_INTERNAL_CLK */
 199:.\Generated_Source\PSoC5/adc.c ****     
 200:.\Generated_Source\PSoC5/adc.c ****     /* Enable the active and alternate active power for charge pump clock */
 201:.\Generated_Source\PSoC5/adc.c ****     adc_PWRMGR_CHARGE_PUMP_CLK_REG |= adc_ACT_PWR_CHARGE_PUMP_CLK_EN;
 290              		.loc 1 201 0
 291 0188 44F2A233 		movw	r3, #:lower16:1073759138
 292 018c C4F20003 		movt	r3, #:upper16:1073759138
 293 0190 44F2A232 		movw	r2, #:lower16:1073759138
 294 0194 C4F20002 		movt	r2, #:upper16:1073759138
 295 0198 1278     		ldrb	r2, [r2, #0]
 296 019a D2B2     		uxtb	r2, r2
 297 019c 42F00102 		orr	r2, r2, #1
 298 01a0 D2B2     		uxtb	r2, r2
 299 01a2 1A70     		strb	r2, [r3, #0]
 202:.\Generated_Source\PSoC5/adc.c ****     adc_STBY_PWRMGR_CHARGE_PUMP_CLK_REG |= adc_STBY_PWR_CHARGE_PUMP_CLK_EN;
 300              		.loc 1 202 0
 301 01a4 44F2B233 		movw	r3, #:lower16:1073759154
 302 01a8 C4F20003 		movt	r3, #:upper16:1073759154
 303 01ac 44F2B232 		movw	r2, #:lower16:1073759154
 304 01b0 C4F20002 		movt	r2, #:upper16:1073759154
 305 01b4 1278     		ldrb	r2, [r2, #0]
 306 01b6 D2B2     		uxtb	r2, r2
 307 01b8 42F00102 		orr	r2, r2, #1
ARM GAS  C:\Users\arh\AppData\Local\Temp\ccpMsX4j.s 			page 10


 308 01bc D2B2     		uxtb	r2, r2
 309 01be 1A70     		strb	r2, [r3, #0]
 203:.\Generated_Source\PSoC5/adc.c ****         
 204:.\Generated_Source\PSoC5/adc.c **** }
 310              		.loc 1 204 0
 311 01c0 80BD     		pop	{r7, pc}
 312              		.cfi_endproc
 313              	.LFE1:
 314              		.size	adc_Enable, .-adc_Enable
 315 01c2 00BF     		.section	.text.adc_RestorePowerRegisters,"ax",%progbits
 316              		.align	2
 317              		.global	adc_RestorePowerRegisters
 318              		.thumb
 319              		.thumb_func
 320              		.type	adc_RestorePowerRegisters, %function
 321              	adc_RestorePowerRegisters:
 322              	.LFB2:
 205:.\Generated_Source\PSoC5/adc.c **** 
 206:.\Generated_Source\PSoC5/adc.c **** 
 207:.\Generated_Source\PSoC5/adc.c **** #if (CY_PSOC5A) /* valid only for PSoC5A silicon */
 208:.\Generated_Source\PSoC5/adc.c ****     /******************************************************************************* 
 209:.\Generated_Source\PSoC5/adc.c ****     * Function Name: adc_RestorePowerRegisters
 210:.\Generated_Source\PSoC5/adc.c ****     ********************************************************************************
 211:.\Generated_Source\PSoC5/adc.c ****     *
 212:.\Generated_Source\PSoC5/adc.c ****     * Summary: 
 213:.\Generated_Source\PSoC5/adc.c ****     *  Restores the power registers on calling Start() API. This API is only 
 214:.\Generated_Source\PSoC5/adc.c ****     *   for internal use and valid only for PSoC5A.
 215:.\Generated_Source\PSoC5/adc.c ****     *  
 216:.\Generated_Source\PSoC5/adc.c ****     *
 217:.\Generated_Source\PSoC5/adc.c ****     * Parameters:  
 218:.\Generated_Source\PSoC5/adc.c ****     *  void
 219:.\Generated_Source\PSoC5/adc.c ****     *
 220:.\Generated_Source\PSoC5/adc.c ****     * Return: 
 221:.\Generated_Source\PSoC5/adc.c ****     *  void 
 222:.\Generated_Source\PSoC5/adc.c ****     *
 223:.\Generated_Source\PSoC5/adc.c ****     ***************************************************************************/
 224:.\Generated_Source\PSoC5/adc.c ****     void adc_RestorePowerRegisters(void) 
 225:.\Generated_Source\PSoC5/adc.c ****     {
 323              		.loc 1 225 0
 324              		.cfi_startproc
 325              		@ args = 0, pretend = 0, frame = 0
 326              		@ frame_needed = 1, uses_anonymous_args = 0
 327              		@ link register save eliminated.
 328 0000 80B4     		push	{r7}
 329              	.LCFI4:
 330              		.cfi_def_cfa_offset 4
 331 0002 00AF     		add	r7, sp, #0
 332              		.cfi_offset 7, -4
 333              	.LCFI5:
 334              		.cfi_def_cfa_register 7
 226:.\Generated_Source\PSoC5/adc.c ****         adc_DSM_CR14_REG = adc_powerModeBackup.DSM_CR_14;
 335              		.loc 1 226 0
 336 0004 45F68E03 		movw	r3, #:lower16:1073764494
 337 0008 C4F20003 		movt	r3, #:upper16:1073764494
 338 000c 40F20002 		movw	r2, #:lower16:adc_powerModeBackup
 339 0010 C0F20002 		movt	r2, #:upper16:adc_powerModeBackup
 340 0014 1278     		ldrb	r2, [r2, #0]	@ zero_extendqisi2
ARM GAS  C:\Users\arh\AppData\Local\Temp\ccpMsX4j.s 			page 11


 341 0016 1A70     		strb	r2, [r3, #0]
 227:.\Generated_Source\PSoC5/adc.c ****         adc_DSM_CR15_REG = adc_powerModeBackup.DSM_CR_15;
 342              		.loc 1 227 0
 343 0018 45F68F03 		movw	r3, #:lower16:1073764495
 344 001c C4F20003 		movt	r3, #:upper16:1073764495
 345 0020 40F20002 		movw	r2, #:lower16:adc_powerModeBackup
 346 0024 C0F20002 		movt	r2, #:upper16:adc_powerModeBackup
 347 0028 5278     		ldrb	r2, [r2, #1]	@ zero_extendqisi2
 348 002a 1A70     		strb	r2, [r3, #0]
 228:.\Generated_Source\PSoC5/adc.c ****         adc_DSM_CR16_REG = adc_powerModeBackup.DSM_CR_16;
 349              		.loc 1 228 0
 350 002c 45F69003 		movw	r3, #:lower16:1073764496
 351 0030 C4F20003 		movt	r3, #:upper16:1073764496
 352 0034 40F20002 		movw	r2, #:lower16:adc_powerModeBackup
 353 0038 C0F20002 		movt	r2, #:upper16:adc_powerModeBackup
 354 003c 9278     		ldrb	r2, [r2, #2]	@ zero_extendqisi2
 355 003e 1A70     		strb	r2, [r3, #0]
 229:.\Generated_Source\PSoC5/adc.c ****         adc_DSM_CR17_REG = adc_powerModeBackup.DSM_CR_17;
 356              		.loc 1 229 0
 357 0040 45F69103 		movw	r3, #:lower16:1073764497
 358 0044 C4F20003 		movt	r3, #:upper16:1073764497
 359 0048 40F20002 		movw	r2, #:lower16:adc_powerModeBackup
 360 004c C0F20002 		movt	r2, #:upper16:adc_powerModeBackup
 361 0050 D278     		ldrb	r2, [r2, #3]	@ zero_extendqisi2
 362 0052 1A70     		strb	r2, [r3, #0]
 230:.\Generated_Source\PSoC5/adc.c ****         adc_DSM_REF0_REG = adc_powerModeBackup.DSM_REF0;
 363              		.loc 1 230 0
 364 0054 45F69203 		movw	r3, #:lower16:1073764498
 365 0058 C4F20003 		movt	r3, #:upper16:1073764498
 366 005c 40F20002 		movw	r2, #:lower16:adc_powerModeBackup
 367 0060 C0F20002 		movt	r2, #:upper16:adc_powerModeBackup
 368 0064 1279     		ldrb	r2, [r2, #4]	@ zero_extendqisi2
 369 0066 1A70     		strb	r2, [r3, #0]
 231:.\Generated_Source\PSoC5/adc.c ****         adc_DSM_BUF0_REG = adc_powerModeBackup.DSM_BUF0;
 370              		.loc 1 231 0
 371 0068 45F69A03 		movw	r3, #:lower16:1073764506
 372 006c C4F20003 		movt	r3, #:upper16:1073764506
 373 0070 40F20002 		movw	r2, #:lower16:adc_powerModeBackup
 374 0074 C0F20002 		movt	r2, #:upper16:adc_powerModeBackup
 375 0078 5279     		ldrb	r2, [r2, #5]	@ zero_extendqisi2
 376 007a 1A70     		strb	r2, [r3, #0]
 232:.\Generated_Source\PSoC5/adc.c ****         adc_DSM_BUF1_REG = adc_powerModeBackup.DSM_BUF1;
 377              		.loc 1 232 0
 378 007c 45F69B03 		movw	r3, #:lower16:1073764507
 379 0080 C4F20003 		movt	r3, #:upper16:1073764507
 380 0084 40F20002 		movw	r2, #:lower16:adc_powerModeBackup
 381 0088 C0F20002 		movt	r2, #:upper16:adc_powerModeBackup
 382 008c 9279     		ldrb	r2, [r2, #6]	@ zero_extendqisi2
 383 008e 1A70     		strb	r2, [r3, #0]
 233:.\Generated_Source\PSoC5/adc.c ****         adc_DSM_CLK_REG = adc_powerModeBackup.DSM_CLK;
 384              		.loc 1 233 0
 385 0090 45F60733 		movw	r3, #:lower16:1073765127
 386 0094 C4F20003 		movt	r3, #:upper16:1073765127
 387 0098 40F20002 		movw	r2, #:lower16:adc_powerModeBackup
 388 009c C0F20002 		movt	r2, #:upper16:adc_powerModeBackup
 389 00a0 D279     		ldrb	r2, [r2, #7]	@ zero_extendqisi2
 390 00a2 1A70     		strb	r2, [r3, #0]
ARM GAS  C:\Users\arh\AppData\Local\Temp\ccpMsX4j.s 			page 12


 234:.\Generated_Source\PSoC5/adc.c ****     }
 391              		.loc 1 234 0
 392 00a4 BD46     		mov	sp, r7
 393 00a6 80BC     		pop	{r7}
 394 00a8 7047     		bx	lr
 395              		.cfi_endproc
 396              	.LFE2:
 397              		.size	adc_RestorePowerRegisters, .-adc_RestorePowerRegisters
 398 00aa 00BF     		.section	.text.adc_SavePowerRegisters,"ax",%progbits
 399              		.align	2
 400              		.global	adc_SavePowerRegisters
 401              		.thumb
 402              		.thumb_func
 403              		.type	adc_SavePowerRegisters, %function
 404              	adc_SavePowerRegisters:
 405              	.LFB3:
 235:.\Generated_Source\PSoC5/adc.c **** 
 236:.\Generated_Source\PSoC5/adc.c **** 
 237:.\Generated_Source\PSoC5/adc.c ****     /************************************************************************** 
 238:.\Generated_Source\PSoC5/adc.c ****     * Function Name: adc_SavePowerRegisters
 239:.\Generated_Source\PSoC5/adc.c ****     ***************************************************************************
 240:.\Generated_Source\PSoC5/adc.c ****     *
 241:.\Generated_Source\PSoC5/adc.c ****     * Summary: 
 242:.\Generated_Source\PSoC5/adc.c ****     *  Save the power registers before stopping the block operation. This is 
 243:.\Generated_Source\PSoC5/adc.c ****     *  called by Stop() API. This API is only for internal use and valid only 
 244:.\Generated_Source\PSoC5/adc.c ****     *  for PSoC5A.
 245:.\Generated_Source\PSoC5/adc.c ****     *  
 246:.\Generated_Source\PSoC5/adc.c ****     *
 247:.\Generated_Source\PSoC5/adc.c ****     * Parameters:  
 248:.\Generated_Source\PSoC5/adc.c ****     *  void
 249:.\Generated_Source\PSoC5/adc.c ****     *
 250:.\Generated_Source\PSoC5/adc.c ****     * Return: 
 251:.\Generated_Source\PSoC5/adc.c ****     *  void 
 252:.\Generated_Source\PSoC5/adc.c ****     *
 253:.\Generated_Source\PSoC5/adc.c ****     **************************************************************************/
 254:.\Generated_Source\PSoC5/adc.c ****     void adc_SavePowerRegisters(void) 
 255:.\Generated_Source\PSoC5/adc.c ****     {
 406              		.loc 1 255 0
 407              		.cfi_startproc
 408              		@ args = 0, pretend = 0, frame = 0
 409              		@ frame_needed = 1, uses_anonymous_args = 0
 410              		@ link register save eliminated.
 411 0000 80B4     		push	{r7}
 412              	.LCFI6:
 413              		.cfi_def_cfa_offset 4
 414 0002 00AF     		add	r7, sp, #0
 415              		.cfi_offset 7, -4
 416              	.LCFI7:
 417              		.cfi_def_cfa_register 7
 256:.\Generated_Source\PSoC5/adc.c ****         adc_powerModeBackup.DSM_CR_14 = adc_DSM_CR14_REG;
 418              		.loc 1 256 0
 419 0004 45F68E03 		movw	r3, #:lower16:1073764494
 420 0008 C4F20003 		movt	r3, #:upper16:1073764494
 421 000c 1B78     		ldrb	r3, [r3, #0]
 422 000e DAB2     		uxtb	r2, r3
 423 0010 40F20003 		movw	r3, #:lower16:adc_powerModeBackup
 424 0014 C0F20003 		movt	r3, #:upper16:adc_powerModeBackup
ARM GAS  C:\Users\arh\AppData\Local\Temp\ccpMsX4j.s 			page 13


 425 0018 1A70     		strb	r2, [r3, #0]
 257:.\Generated_Source\PSoC5/adc.c ****         adc_powerModeBackup.DSM_CR_15 = adc_DSM_CR15_REG;
 426              		.loc 1 257 0
 427 001a 45F68F03 		movw	r3, #:lower16:1073764495
 428 001e C4F20003 		movt	r3, #:upper16:1073764495
 429 0022 1B78     		ldrb	r3, [r3, #0]
 430 0024 DAB2     		uxtb	r2, r3
 431 0026 40F20003 		movw	r3, #:lower16:adc_powerModeBackup
 432 002a C0F20003 		movt	r3, #:upper16:adc_powerModeBackup
 433 002e 5A70     		strb	r2, [r3, #1]
 258:.\Generated_Source\PSoC5/adc.c ****         adc_powerModeBackup.DSM_CR_16 = adc_DSM_CR16_REG;
 434              		.loc 1 258 0
 435 0030 45F69003 		movw	r3, #:lower16:1073764496
 436 0034 C4F20003 		movt	r3, #:upper16:1073764496
 437 0038 1B78     		ldrb	r3, [r3, #0]
 438 003a DAB2     		uxtb	r2, r3
 439 003c 40F20003 		movw	r3, #:lower16:adc_powerModeBackup
 440 0040 C0F20003 		movt	r3, #:upper16:adc_powerModeBackup
 441 0044 9A70     		strb	r2, [r3, #2]
 259:.\Generated_Source\PSoC5/adc.c ****         adc_powerModeBackup.DSM_CR_17 = adc_DSM_CR17_REG;
 442              		.loc 1 259 0
 443 0046 45F69103 		movw	r3, #:lower16:1073764497
 444 004a C4F20003 		movt	r3, #:upper16:1073764497
 445 004e 1B78     		ldrb	r3, [r3, #0]
 446 0050 DAB2     		uxtb	r2, r3
 447 0052 40F20003 		movw	r3, #:lower16:adc_powerModeBackup
 448 0056 C0F20003 		movt	r3, #:upper16:adc_powerModeBackup
 449 005a DA70     		strb	r2, [r3, #3]
 260:.\Generated_Source\PSoC5/adc.c ****         adc_powerModeBackup.DSM_REF0 = adc_DSM_REF0_REG;
 450              		.loc 1 260 0
 451 005c 45F69203 		movw	r3, #:lower16:1073764498
 452 0060 C4F20003 		movt	r3, #:upper16:1073764498
 453 0064 1B78     		ldrb	r3, [r3, #0]
 454 0066 DAB2     		uxtb	r2, r3
 455 0068 40F20003 		movw	r3, #:lower16:adc_powerModeBackup
 456 006c C0F20003 		movt	r3, #:upper16:adc_powerModeBackup
 457 0070 1A71     		strb	r2, [r3, #4]
 261:.\Generated_Source\PSoC5/adc.c ****         adc_powerModeBackup.DSM_BUF0 = adc_DSM_BUF0_REG;
 458              		.loc 1 261 0
 459 0072 45F69A03 		movw	r3, #:lower16:1073764506
 460 0076 C4F20003 		movt	r3, #:upper16:1073764506
 461 007a 1B78     		ldrb	r3, [r3, #0]
 462 007c DAB2     		uxtb	r2, r3
 463 007e 40F20003 		movw	r3, #:lower16:adc_powerModeBackup
 464 0082 C0F20003 		movt	r3, #:upper16:adc_powerModeBackup
 465 0086 5A71     		strb	r2, [r3, #5]
 262:.\Generated_Source\PSoC5/adc.c ****         adc_powerModeBackup.DSM_BUF1 = adc_DSM_BUF1_REG;
 466              		.loc 1 262 0
 467 0088 45F69B03 		movw	r3, #:lower16:1073764507
 468 008c C4F20003 		movt	r3, #:upper16:1073764507
 469 0090 1B78     		ldrb	r3, [r3, #0]
 470 0092 DAB2     		uxtb	r2, r3
 471 0094 40F20003 		movw	r3, #:lower16:adc_powerModeBackup
 472 0098 C0F20003 		movt	r3, #:upper16:adc_powerModeBackup
 473 009c 9A71     		strb	r2, [r3, #6]
 263:.\Generated_Source\PSoC5/adc.c ****         adc_powerModeBackup.DSM_CLK = adc_DSM_CLK_REG;
 474              		.loc 1 263 0
ARM GAS  C:\Users\arh\AppData\Local\Temp\ccpMsX4j.s 			page 14


 475 009e 45F60733 		movw	r3, #:lower16:1073765127
 476 00a2 C4F20003 		movt	r3, #:upper16:1073765127
 477 00a6 1B78     		ldrb	r3, [r3, #0]
 478 00a8 DAB2     		uxtb	r2, r3
 479 00aa 40F20003 		movw	r3, #:lower16:adc_powerModeBackup
 480 00ae C0F20003 		movt	r3, #:upper16:adc_powerModeBackup
 481 00b2 DA71     		strb	r2, [r3, #7]
 264:.\Generated_Source\PSoC5/adc.c ****     }
 482              		.loc 1 264 0
 483 00b4 BD46     		mov	sp, r7
 484 00b6 80BC     		pop	{r7}
 485 00b8 7047     		bx	lr
 486              		.cfi_endproc
 487              	.LFE3:
 488              		.size	adc_SavePowerRegisters, .-adc_SavePowerRegisters
 489 00ba 00BF     		.section	.text.adc_SetLowPower,"ax",%progbits
 490              		.align	2
 491              		.global	adc_SetLowPower
 492              		.thumb
 493              		.thumb_func
 494              		.type	adc_SetLowPower, %function
 495              	adc_SetLowPower:
 496              	.LFB4:
 265:.\Generated_Source\PSoC5/adc.c **** 
 266:.\Generated_Source\PSoC5/adc.c **** 
 267:.\Generated_Source\PSoC5/adc.c ****     /************************************************************************* 
 268:.\Generated_Source\PSoC5/adc.c ****     * Function Name: adc_SetLowPower
 269:.\Generated_Source\PSoC5/adc.c ****     ***************************************************************************
 270:.\Generated_Source\PSoC5/adc.c ****     *
 271:.\Generated_Source\PSoC5/adc.c ****     * Summary: 
 272:.\Generated_Source\PSoC5/adc.c ****     *  Set all the power registers of DSM block to low power mode. This API is
 273:.\Generated_Source\PSoC5/adc.c ****     *   called by Stop() API. This API is only for internal use and valid for 
 274:.\Generated_Source\PSoC5/adc.c ****     *   only PSoC5A.
 275:.\Generated_Source\PSoC5/adc.c ****     *  
 276:.\Generated_Source\PSoC5/adc.c ****     *
 277:.\Generated_Source\PSoC5/adc.c ****     * Parameters:  
 278:.\Generated_Source\PSoC5/adc.c ****     *  void
 279:.\Generated_Source\PSoC5/adc.c ****     *
 280:.\Generated_Source\PSoC5/adc.c ****     * Return: 
 281:.\Generated_Source\PSoC5/adc.c ****     *  void 
 282:.\Generated_Source\PSoC5/adc.c ****     *
 283:.\Generated_Source\PSoC5/adc.c ****     ***************************************************************************/
 284:.\Generated_Source\PSoC5/adc.c ****     void adc_SetLowPower(void) 
 285:.\Generated_Source\PSoC5/adc.c ****     {
 497              		.loc 1 285 0
 498              		.cfi_startproc
 499              		@ args = 0, pretend = 0, frame = 0
 500              		@ frame_needed = 1, uses_anonymous_args = 0
 501              		@ link register save eliminated.
 502 0000 80B4     		push	{r7}
 503              	.LCFI8:
 504              		.cfi_def_cfa_offset 4
 505 0002 00AF     		add	r7, sp, #0
 506              		.cfi_offset 7, -4
 507              	.LCFI9:
 508              		.cfi_def_cfa_register 7
 286:.\Generated_Source\PSoC5/adc.c ****         adc_DSM_CR14_REG &= ~adc_DSM_POWER1_MASK;
ARM GAS  C:\Users\arh\AppData\Local\Temp\ccpMsX4j.s 			page 15


 509              		.loc 1 286 0
 510 0004 45F68E03 		movw	r3, #:lower16:1073764494
 511 0008 C4F20003 		movt	r3, #:upper16:1073764494
 512 000c 45F68E02 		movw	r2, #:lower16:1073764494
 513 0010 C4F20002 		movt	r2, #:upper16:1073764494
 514 0014 1278     		ldrb	r2, [r2, #0]
 515 0016 D2B2     		uxtb	r2, r2
 516 0018 02F0F802 		and	r2, r2, #248
 517 001c 1A70     		strb	r2, [r3, #0]
 287:.\Generated_Source\PSoC5/adc.c ****         adc_DSM_CR14_REG |= adc_DSM_POWER1_44UA;
 518              		.loc 1 287 0
 519 001e 45F68E03 		movw	r3, #:lower16:1073764494
 520 0022 C4F20003 		movt	r3, #:upper16:1073764494
 521 0026 45F68E02 		movw	r2, #:lower16:1073764494
 522 002a C4F20002 		movt	r2, #:upper16:1073764494
 523 002e 1278     		ldrb	r2, [r2, #0]
 524 0030 D2B2     		uxtb	r2, r2
 525 0032 1A70     		strb	r2, [r3, #0]
 288:.\Generated_Source\PSoC5/adc.c ****         
 289:.\Generated_Source\PSoC5/adc.c ****         adc_DSM_CR15_REG &= ~(adc_DSM_POWER2_3_MASK | adc_DSM_POWER_COMP_MASK);
 526              		.loc 1 289 0
 527 0034 45F68F03 		movw	r3, #:lower16:1073764495
 528 0038 C4F20003 		movt	r3, #:upper16:1073764495
 529 003c 45F68F02 		movw	r2, #:lower16:1073764495
 530 0040 C4F20002 		movt	r2, #:upper16:1073764495
 531 0044 1278     		ldrb	r2, [r2, #0]
 532 0046 D2B2     		uxtb	r2, r2
 533 0048 02F0C802 		and	r2, r2, #200
 534 004c 1A70     		strb	r2, [r3, #0]
 290:.\Generated_Source\PSoC5/adc.c ****         adc_DSM_CR15_REG |= (adc_DSM_POWER2_3_LOW | adc_DSM_POWER_VERYLOW);
 535              		.loc 1 290 0
 536 004e 45F68F03 		movw	r3, #:lower16:1073764495
 537 0052 C4F20003 		movt	r3, #:upper16:1073764495
 538 0056 45F68F02 		movw	r2, #:lower16:1073764495
 539 005a C4F20002 		movt	r2, #:upper16:1073764495
 540 005e 1278     		ldrb	r2, [r2, #0]
 541 0060 D2B2     		uxtb	r2, r2
 542 0062 1A70     		strb	r2, [r3, #0]
 291:.\Generated_Source\PSoC5/adc.c ****         
 292:.\Generated_Source\PSoC5/adc.c ****         adc_DSM_CR16_REG &= ~(adc_DSM_CP_PWRCTL_MASK | adc_DSM_POWER_SUM_MASK |
 543              		.loc 1 292 0
 544 0064 45F69003 		movw	r3, #:lower16:1073764496
 545 0068 C4F20003 		movt	r3, #:upper16:1073764496
 546 006c 45F69002 		movw	r2, #:lower16:1073764496
 547 0070 C4F20002 		movt	r2, #:upper16:1073764496
 548 0074 1278     		ldrb	r2, [r2, #0]
 549 0076 D2B2     		uxtb	r2, r2
 550 0078 02F08002 		and	r2, r2, #128
 551 007c 1A70     		strb	r2, [r3, #0]
 293:.\Generated_Source\PSoC5/adc.c ****                                            adc_DSM_CP_ENABLE);
 294:.\Generated_Source\PSoC5/adc.c ****         adc_DSM_CR16_REG |= (adc_DSM_POWER_SUM_LOW | adc_DSM_CP_PWRCTL_LOW);
 552              		.loc 1 294 0
 553 007e 45F69003 		movw	r3, #:lower16:1073764496
 554 0082 C4F20003 		movt	r3, #:upper16:1073764496
 555 0086 45F69002 		movw	r2, #:lower16:1073764496
 556 008a C4F20002 		movt	r2, #:upper16:1073764496
 557 008e 1278     		ldrb	r2, [r2, #0]
ARM GAS  C:\Users\arh\AppData\Local\Temp\ccpMsX4j.s 			page 16


 558 0090 D2B2     		uxtb	r2, r2
 559 0092 42F00402 		orr	r2, r2, #4
 560 0096 D2B2     		uxtb	r2, r2
 561 0098 1A70     		strb	r2, [r3, #0]
 295:.\Generated_Source\PSoC5/adc.c ****         
 296:.\Generated_Source\PSoC5/adc.c ****         adc_DSM_CR17_REG &= ~(adc_DSM_EN_BUF_VREF | adc_DSM_PWR_CTRL_VCM_MASK |
 562              		.loc 1 296 0
 563 009a 45F69103 		movw	r3, #:lower16:1073764497
 564 009e C4F20003 		movt	r3, #:upper16:1073764497
 565 00a2 1B78     		ldrb	r3, [r3, #0]
 566 00a4 45F69103 		movw	r3, #:lower16:1073764497
 567 00a8 C4F20003 		movt	r3, #:upper16:1073764497
 568 00ac 4FF00002 		mov	r2, #0
 569 00b0 1A70     		strb	r2, [r3, #0]
 297:.\Generated_Source\PSoC5/adc.c ****                                            adc_DSM_PWR_CTRL_VREF_MASK | adc_DSM_EN_BUF_VCM |
 298:.\Generated_Source\PSoC5/adc.c ****                                            adc_DSM_PWR_CTRL_VREF_INN_MASK);
 299:.\Generated_Source\PSoC5/adc.c ****         adc_DSM_CR17_REG |= (adc_DSM_PWR_CTRL_VREF_0 | adc_DSM_PWR_CTRL_VCM_0 |
 570              		.loc 1 299 0
 571 00b2 45F69103 		movw	r3, #:lower16:1073764497
 572 00b6 C4F20003 		movt	r3, #:upper16:1073764497
 573 00ba 45F69102 		movw	r2, #:lower16:1073764497
 574 00be C4F20002 		movt	r2, #:upper16:1073764497
 575 00c2 1278     		ldrb	r2, [r2, #0]
 576 00c4 D2B2     		uxtb	r2, r2
 577 00c6 1A70     		strb	r2, [r3, #0]
 300:.\Generated_Source\PSoC5/adc.c ****                                            adc_DSM_PWR_CTRL_VREF_INN_0);
 301:.\Generated_Source\PSoC5/adc.c ****         
 302:.\Generated_Source\PSoC5/adc.c ****         /* Disable reference buffers */
 303:.\Generated_Source\PSoC5/adc.c ****         adc_DSM_REF0_REG &= ~(adc_DSM_EN_BUF_VREF_INN | adc_DSM_VREF_RES_DIV_EN |
 578              		.loc 1 303 0
 579 00c8 45F69203 		movw	r3, #:lower16:1073764498
 580 00cc C4F20003 		movt	r3, #:upper16:1073764498
 581 00d0 45F69202 		movw	r2, #:lower16:1073764498
 582 00d4 C4F20002 		movt	r2, #:upper16:1073764498
 583 00d8 1278     		ldrb	r2, [r2, #0]
 584 00da D2B2     		uxtb	r2, r2
 585 00dc 02F0C702 		and	r2, r2, #199
 586 00e0 1A70     		strb	r2, [r3, #0]
 304:.\Generated_Source\PSoC5/adc.c ****                                            adc_DSM_VCM_RES_DIV_EN);
 305:.\Generated_Source\PSoC5/adc.c ****             
 306:.\Generated_Source\PSoC5/adc.c ****         /* Disable the positive input buffer */
 307:.\Generated_Source\PSoC5/adc.c ****         adc_DSM_BUF0_REG &= ~adc_DSM_ENABLE_P;
 587              		.loc 1 307 0
 588 00e2 45F69A03 		movw	r3, #:lower16:1073764506
 589 00e6 C4F20003 		movt	r3, #:upper16:1073764506
 590 00ea 45F69A02 		movw	r2, #:lower16:1073764506
 591 00ee C4F20002 		movt	r2, #:upper16:1073764506
 592 00f2 1278     		ldrb	r2, [r2, #0]
 593 00f4 D2B2     		uxtb	r2, r2
 594 00f6 02F0FE02 		and	r2, r2, #254
 595 00fa 1A70     		strb	r2, [r3, #0]
 308:.\Generated_Source\PSoC5/adc.c ****         /* Disable the negative input buffer */
 309:.\Generated_Source\PSoC5/adc.c ****         adc_DSM_BUF1_REG &= ~adc_DSM_ENABLE_N;
 596              		.loc 1 309 0
 597 00fc 45F69B03 		movw	r3, #:lower16:1073764507
 598 0100 C4F20003 		movt	r3, #:upper16:1073764507
 599 0104 45F69B02 		movw	r2, #:lower16:1073764507
ARM GAS  C:\Users\arh\AppData\Local\Temp\ccpMsX4j.s 			page 17


 600 0108 C4F20002 		movt	r2, #:upper16:1073764507
 601 010c 1278     		ldrb	r2, [r2, #0]
 602 010e D2B2     		uxtb	r2, r2
 603 0110 02F0FE02 		and	r2, r2, #254
 604 0114 1A70     		strb	r2, [r3, #0]
 310:.\Generated_Source\PSoC5/adc.c ****         /* Disable the clock to DSM */
 311:.\Generated_Source\PSoC5/adc.c ****         adc_DSM_CLK_REG &= ~(adc_DSM_CLK_CLK_EN | adc_DSM_CLK_BYPASS_SYNC);
 605              		.loc 1 311 0
 606 0116 45F60733 		movw	r3, #:lower16:1073765127
 607 011a C4F20003 		movt	r3, #:upper16:1073765127
 608 011e 45F60732 		movw	r2, #:lower16:1073765127
 609 0122 C4F20002 		movt	r2, #:upper16:1073765127
 610 0126 1278     		ldrb	r2, [r2, #0]
 611 0128 D2B2     		uxtb	r2, r2
 612 012a 02F0E702 		and	r2, r2, #231
 613 012e 1A70     		strb	r2, [r3, #0]
 312:.\Generated_Source\PSoC5/adc.c ****     }
 614              		.loc 1 312 0
 615 0130 BD46     		mov	sp, r7
 616 0132 80BC     		pop	{r7}
 617 0134 7047     		bx	lr
 618              		.cfi_endproc
 619              	.LFE4:
 620              		.size	adc_SetLowPower, .-adc_SetLowPower
 621 0136 00BF     		.section	.text.adc_Start,"ax",%progbits
 622              		.align	2
 623              		.global	adc_Start
 624              		.thumb
 625              		.thumb_func
 626              		.type	adc_Start, %function
 627              	adc_Start:
 628              	.LFB5:
 313:.\Generated_Source\PSoC5/adc.c **** #endif /* CY_PSOC5A */
 314:.\Generated_Source\PSoC5/adc.c **** 
 315:.\Generated_Source\PSoC5/adc.c **** 
 316:.\Generated_Source\PSoC5/adc.c **** /******************************************************************************* 
 317:.\Generated_Source\PSoC5/adc.c **** * Function Name: adc_Start
 318:.\Generated_Source\PSoC5/adc.c **** ********************************************************************************
 319:.\Generated_Source\PSoC5/adc.c **** *
 320:.\Generated_Source\PSoC5/adc.c **** * Summary:
 321:.\Generated_Source\PSoC5/adc.c **** *  The start function initializes the Delta Sigma Modulator with the default  
 322:.\Generated_Source\PSoC5/adc.c **** *  values, and sets the power to the given level.  A power level of 0, is the 
 323:.\Generated_Source\PSoC5/adc.c **** *  same as executing the stop function.
 324:.\Generated_Source\PSoC5/adc.c **** *
 325:.\Generated_Source\PSoC5/adc.c **** * Parameters:  
 326:.\Generated_Source\PSoC5/adc.c **** *  None
 327:.\Generated_Source\PSoC5/adc.c **** *
 328:.\Generated_Source\PSoC5/adc.c **** * Return: 
 329:.\Generated_Source\PSoC5/adc.c **** *  void 
 330:.\Generated_Source\PSoC5/adc.c **** *
 331:.\Generated_Source\PSoC5/adc.c **** * Global variables:
 332:.\Generated_Source\PSoC5/adc.c **** *  adc_initVar:  Used to check the initial configuration,
 333:.\Generated_Source\PSoC5/adc.c **** *  modified when this function is called for the first time.
 334:.\Generated_Source\PSoC5/adc.c **** *
 335:.\Generated_Source\PSoC5/adc.c **** *******************************************************************************/
 336:.\Generated_Source\PSoC5/adc.c **** void adc_Start() 
 337:.\Generated_Source\PSoC5/adc.c **** {
ARM GAS  C:\Users\arh\AppData\Local\Temp\ccpMsX4j.s 			page 18


 629              		.loc 1 337 0
 630              		.cfi_startproc
 631              		@ args = 0, pretend = 0, frame = 0
 632              		@ frame_needed = 1, uses_anonymous_args = 0
 633 0000 80B5     		push	{r7, lr}
 634              	.LCFI10:
 635              		.cfi_def_cfa_offset 8
 636 0002 00AF     		add	r7, sp, #0
 637              		.cfi_offset 14, -4
 638              		.cfi_offset 7, -8
 639              	.LCFI11:
 640              		.cfi_def_cfa_register 7
 338:.\Generated_Source\PSoC5/adc.c ****     if(adc_initVar == 0u)
 641              		.loc 1 338 0
 642 0004 40F20003 		movw	r3, #:lower16:adc_initVar
 643 0008 C0F20003 		movt	r3, #:upper16:adc_initVar
 644 000c 1B78     		ldrb	r3, [r3, #0]	@ zero_extendqisi2
 645 000e 002B     		cmp	r3, #0
 646 0010 10D1     		bne	.L14
 339:.\Generated_Source\PSoC5/adc.c ****     {
 340:.\Generated_Source\PSoC5/adc.c ****         if(!(adc_started))
 647              		.loc 1 340 0
 648 0012 40F20003 		movw	r3, #:lower16:adc_started
 649 0016 C0F20003 		movt	r3, #:upper16:adc_started
 650 001a 1B78     		ldrb	r3, [r3, #0]
 651 001c DBB2     		uxtb	r3, r3
 652 001e 002B     		cmp	r3, #0
 653 0020 01D1     		bne	.L15
 341:.\Generated_Source\PSoC5/adc.c ****         {
 342:.\Generated_Source\PSoC5/adc.c ****             adc_Init();
 654              		.loc 1 342 0
 655 0022 FFF7FEFF 		bl	adc_Init
 656              	.L15:
 343:.\Generated_Source\PSoC5/adc.c ****         }
 344:.\Generated_Source\PSoC5/adc.c ****         adc_initVar = 1u;
 657              		.loc 1 344 0
 658 0026 40F20003 		movw	r3, #:lower16:adc_initVar
 659 002a C0F20003 		movt	r3, #:upper16:adc_initVar
 660 002e 4FF00102 		mov	r2, #1
 661 0032 1A70     		strb	r2, [r3, #0]
 662              	.L14:
 345:.\Generated_Source\PSoC5/adc.c ****     }
 346:.\Generated_Source\PSoC5/adc.c **** 
 347:.\Generated_Source\PSoC5/adc.c ****     /* Enable the ADC */
 348:.\Generated_Source\PSoC5/adc.c ****     adc_Enable();
 663              		.loc 1 348 0
 664 0034 FFF7FEFF 		bl	adc_Enable
 349:.\Generated_Source\PSoC5/adc.c **** }
 665              		.loc 1 349 0
 666 0038 80BD     		pop	{r7, pc}
 667              		.cfi_endproc
 668              	.LFE5:
 669              		.size	adc_Start, .-adc_Start
 670 003a 00BF     		.section	.text.adc_Stop,"ax",%progbits
 671              		.align	2
 672              		.global	adc_Stop
 673              		.thumb
ARM GAS  C:\Users\arh\AppData\Local\Temp\ccpMsX4j.s 			page 19


 674              		.thumb_func
 675              		.type	adc_Stop, %function
 676              	adc_Stop:
 677              	.LFB6:
 350:.\Generated_Source\PSoC5/adc.c **** 
 351:.\Generated_Source\PSoC5/adc.c **** 
 352:.\Generated_Source\PSoC5/adc.c **** /*******************************************************************************
 353:.\Generated_Source\PSoC5/adc.c **** * Function Name: adc_Stop
 354:.\Generated_Source\PSoC5/adc.c **** ********************************************************************************
 355:.\Generated_Source\PSoC5/adc.c **** *
 356:.\Generated_Source\PSoC5/adc.c **** * Summary:
 357:.\Generated_Source\PSoC5/adc.c **** *  Stops and powers down ADC to lowest power state.
 358:.\Generated_Source\PSoC5/adc.c **** *
 359:.\Generated_Source\PSoC5/adc.c **** * Parameters:  
 360:.\Generated_Source\PSoC5/adc.c **** *  void
 361:.\Generated_Source\PSoC5/adc.c **** *
 362:.\Generated_Source\PSoC5/adc.c **** * Return: 
 363:.\Generated_Source\PSoC5/adc.c **** *  void 
 364:.\Generated_Source\PSoC5/adc.c **** *
 365:.\Generated_Source\PSoC5/adc.c **** *******************************************************************************/
 366:.\Generated_Source\PSoC5/adc.c **** void adc_Stop(void) 
 367:.\Generated_Source\PSoC5/adc.c **** {
 678              		.loc 1 367 0
 679              		.cfi_startproc
 680              		@ args = 0, pretend = 0, frame = 0
 681              		@ frame_needed = 1, uses_anonymous_args = 0
 682 0000 80B5     		push	{r7, lr}
 683              	.LCFI12:
 684              		.cfi_def_cfa_offset 8
 685 0002 00AF     		add	r7, sp, #0
 686              		.cfi_offset 14, -4
 687              		.cfi_offset 7, -8
 688              	.LCFI13:
 689              		.cfi_def_cfa_register 7
 368:.\Generated_Source\PSoC5/adc.c ****     /* Stop conversions */
 369:.\Generated_Source\PSoC5/adc.c ****     adc_DEC_CR_REG &= ~adc_DEC_START_CONV;
 690              		.loc 1 369 0
 691 0004 44F60063 		movw	r3, #:lower16:1073761792
 692 0008 C4F20003 		movt	r3, #:upper16:1073761792
 693 000c 44F60062 		movw	r2, #:lower16:1073761792
 694 0010 C4F20002 		movt	r2, #:upper16:1073761792
 695 0014 1278     		ldrb	r2, [r2, #0]
 696 0016 D2B2     		uxtb	r2, r2
 697 0018 02F0FE02 		and	r2, r2, #254
 698 001c 1A70     		strb	r2, [r3, #0]
 370:.\Generated_Source\PSoC5/adc.c ****     adc_DEC_SR_REG |=  adc_DEC_INTR_CLEAR;
 699              		.loc 1 370 0
 700 001e 44F60163 		movw	r3, #:lower16:1073761793
 701 0022 C4F20003 		movt	r3, #:upper16:1073761793
 702 0026 44F60162 		movw	r2, #:lower16:1073761793
 703 002a C4F20002 		movt	r2, #:upper16:1073761793
 704 002e 1278     		ldrb	r2, [r2, #0]
 705 0030 D2B2     		uxtb	r2, r2
 706 0032 42F00402 		orr	r2, r2, #4
 707 0036 D2B2     		uxtb	r2, r2
 708 0038 1A70     		strb	r2, [r3, #0]
 371:.\Generated_Source\PSoC5/adc.c ****     
ARM GAS  C:\Users\arh\AppData\Local\Temp\ccpMsX4j.s 			page 20


 372:.\Generated_Source\PSoC5/adc.c ****     /* Disable PRES, Disable power to VCMBUF0, REFBUF0 and REFBUF1, 
 373:.\Generated_Source\PSoC5/adc.c ****        enable PRES */
 374:.\Generated_Source\PSoC5/adc.c ****     #if (CY_PSOC3 || CY_PSOC5LP)
 375:.\Generated_Source\PSoC5/adc.c ****         adc_RESET_CR4_REG |= adc_IGNORE_PRESA1;
 376:.\Generated_Source\PSoC5/adc.c ****         adc_RESET_CR5_REG |= adc_IGNORE_PRESA2;
 377:.\Generated_Source\PSoC5/adc.c ****     #elif (CY_PSOC5A)
 378:.\Generated_Source\PSoC5/adc.c ****         adc_RESET_CR1_REG |= adc_DIS_PRES1;
 709              		.loc 1 378 0
 710 003a 44F2F563 		movw	r3, #:lower16:1073759989
 711 003e C4F20003 		movt	r3, #:upper16:1073759989
 712 0042 44F2F562 		movw	r2, #:lower16:1073759989
 713 0046 C4F20002 		movt	r2, #:upper16:1073759989
 714 004a 1278     		ldrb	r2, [r2, #0]
 715 004c D2B2     		uxtb	r2, r2
 716 004e 42F01002 		orr	r2, r2, #16
 717 0052 D2B2     		uxtb	r2, r2
 718 0054 1A70     		strb	r2, [r3, #0]
 379:.\Generated_Source\PSoC5/adc.c ****         adc_RESET_CR3_REG |= adc_DIS_PRES2;
 719              		.loc 1 379 0
 720 0056 44F2F763 		movw	r3, #:lower16:1073759991
 721 005a C4F20003 		movt	r3, #:upper16:1073759991
 722 005e 44F2F762 		movw	r2, #:lower16:1073759991
 723 0062 C4F20002 		movt	r2, #:upper16:1073759991
 724 0066 1278     		ldrb	r2, [r2, #0]
 725 0068 D2B2     		uxtb	r2, r2
 726 006a 42F00802 		orr	r2, r2, #8
 727 006e D2B2     		uxtb	r2, r2
 728 0070 1A70     		strb	r2, [r3, #0]
 380:.\Generated_Source\PSoC5/adc.c ****     #endif /* CY_PSOC5A */
 381:.\Generated_Source\PSoC5/adc.c ****     
 382:.\Generated_Source\PSoC5/adc.c ****     adc_DSM_CR17_REG &= ~(adc_DSM_EN_BUF_VREF | adc_DSM_EN_BUF_VCM);
 729              		.loc 1 382 0
 730 0072 45F69103 		movw	r3, #:lower16:1073764497
 731 0076 C4F20003 		movt	r3, #:upper16:1073764497
 732 007a 45F69102 		movw	r2, #:lower16:1073764497
 733 007e C4F20002 		movt	r2, #:upper16:1073764497
 734 0082 1278     		ldrb	r2, [r2, #0]
 735 0084 D2B2     		uxtb	r2, r2
 736 0086 02F0FC02 		and	r2, r2, #252
 737 008a 1A70     		strb	r2, [r3, #0]
 383:.\Generated_Source\PSoC5/adc.c ****     adc_DSM_REF0_REG &= ~adc_DSM_EN_BUF_VREF_INN;
 738              		.loc 1 383 0
 739 008c 45F69203 		movw	r3, #:lower16:1073764498
 740 0090 C4F20003 		movt	r3, #:upper16:1073764498
 741 0094 45F69202 		movw	r2, #:lower16:1073764498
 742 0098 C4F20002 		movt	r2, #:upper16:1073764498
 743 009c 1278     		ldrb	r2, [r2, #0]
 744 009e D2B2     		uxtb	r2, r2
 745 00a0 02F0F702 		and	r2, r2, #247
 746 00a4 1A70     		strb	r2, [r3, #0]
 384:.\Generated_Source\PSoC5/adc.c ****     
 385:.\Generated_Source\PSoC5/adc.c ****     /* Wait for 3 microseconds. */
 386:.\Generated_Source\PSoC5/adc.c ****     CyDelayUs(3);
 747              		.loc 1 386 0
 748 00a6 4FF00300 		mov	r0, #3
 749 00aa FFF7FEFF 		bl	CyDelayUs
 387:.\Generated_Source\PSoC5/adc.c ****     
ARM GAS  C:\Users\arh\AppData\Local\Temp\ccpMsX4j.s 			page 21


 388:.\Generated_Source\PSoC5/adc.c **** 	/* Enable the press circuit */
 389:.\Generated_Source\PSoC5/adc.c ****     #if (CY_PSOC3 || CY_PSOC5LP)
 390:.\Generated_Source\PSoC5/adc.c ****         adc_RESET_CR4_REG &= ~adc_IGNORE_PRESA1;
 391:.\Generated_Source\PSoC5/adc.c ****         adc_RESET_CR5_REG &= ~adc_IGNORE_PRESA2;
 392:.\Generated_Source\PSoC5/adc.c ****     #elif (CY_PSOC5A)
 393:.\Generated_Source\PSoC5/adc.c ****         adc_RESET_CR1_REG &= ~adc_DIS_PRES1;
 750              		.loc 1 393 0
 751 00ae 44F2F563 		movw	r3, #:lower16:1073759989
 752 00b2 C4F20003 		movt	r3, #:upper16:1073759989
 753 00b6 44F2F562 		movw	r2, #:lower16:1073759989
 754 00ba C4F20002 		movt	r2, #:upper16:1073759989
 755 00be 1278     		ldrb	r2, [r2, #0]
 756 00c0 D2B2     		uxtb	r2, r2
 757 00c2 02F0EF02 		and	r2, r2, #239
 758 00c6 1A70     		strb	r2, [r3, #0]
 394:.\Generated_Source\PSoC5/adc.c ****         adc_RESET_CR3_REG &= ~adc_DIS_PRES2;
 759              		.loc 1 394 0
 760 00c8 44F2F763 		movw	r3, #:lower16:1073759991
 761 00cc C4F20003 		movt	r3, #:upper16:1073759991
 762 00d0 44F2F762 		movw	r2, #:lower16:1073759991
 763 00d4 C4F20002 		movt	r2, #:upper16:1073759991
 764 00d8 1278     		ldrb	r2, [r2, #0]
 765 00da D2B2     		uxtb	r2, r2
 766 00dc 02F0F702 		and	r2, r2, #247
 767 00e0 1A70     		strb	r2, [r3, #0]
 395:.\Generated_Source\PSoC5/adc.c ****     #endif /* CY_PSOC5A */
 396:.\Generated_Source\PSoC5/adc.c ****     
 397:.\Generated_Source\PSoC5/adc.c ****     /* If PSoC5A then don't disable the power instead put the block to  
 398:.\Generated_Source\PSoC5/adc.c ****        low power mode. Also, save current state of all the power configuration 
 399:.\Generated_Source\PSoC5/adc.c ****        registers before putting block to low power mode */
 400:.\Generated_Source\PSoC5/adc.c ****     #if (CY_PSOC5A)
 401:.\Generated_Source\PSoC5/adc.c ****         
 402:.\Generated_Source\PSoC5/adc.c ****         /* set the flag */
 403:.\Generated_Source\PSoC5/adc.c ****         adc_restoreReg = 1u;
 768              		.loc 1 403 0
 769 00e2 40F20003 		movw	r3, #:lower16:adc_restoreReg
 770 00e6 C0F20003 		movt	r3, #:upper16:adc_restoreReg
 771 00ea 4FF00102 		mov	r2, #1
 772 00ee 1A70     		strb	r2, [r3, #0]
 404:.\Generated_Source\PSoC5/adc.c ****         
 405:.\Generated_Source\PSoC5/adc.c ****         adc_SavePowerRegisters();
 773              		.loc 1 405 0
 774 00f0 FFF7FEFF 		bl	adc_SavePowerRegisters
 406:.\Generated_Source\PSoC5/adc.c ****         adc_SetLowPower();
 775              		.loc 1 406 0
 776 00f4 FFF7FEFF 		bl	adc_SetLowPower
 407:.\Generated_Source\PSoC5/adc.c ****     #else    
 408:.\Generated_Source\PSoC5/adc.c ****         /* Disable power to the ADC */
 409:.\Generated_Source\PSoC5/adc.c ****         adc_PWRMGR_DSM_REG &= ~adc_ACT_PWR_DSM_EN;
 410:.\Generated_Source\PSoC5/adc.c ****     #endif /* CY_PSOC5A */
 411:.\Generated_Source\PSoC5/adc.c ****     
 412:.\Generated_Source\PSoC5/adc.c ****     /* Disable power to Decimator block */
 413:.\Generated_Source\PSoC5/adc.c ****     adc_PWRMGR_DEC_REG &= ~adc_ACT_PWR_DEC_EN;
 777              		.loc 1 413 0
 778 00f8 44F2AA33 		movw	r3, #:lower16:1073759146
 779 00fc C4F20003 		movt	r3, #:upper16:1073759146
 780 0100 44F2AA32 		movw	r2, #:lower16:1073759146
ARM GAS  C:\Users\arh\AppData\Local\Temp\ccpMsX4j.s 			page 22


 781 0104 C4F20002 		movt	r2, #:upper16:1073759146
 782 0108 1278     		ldrb	r2, [r2, #0]
 783 010a D2B2     		uxtb	r2, r2
 784 010c 02F0FE02 		and	r2, r2, #254
 785 0110 1A70     		strb	r2, [r3, #0]
 414:.\Generated_Source\PSoC5/adc.c ****     
 415:.\Generated_Source\PSoC5/adc.c ****     /* Disable alternative active power to the ADC */
 416:.\Generated_Source\PSoC5/adc.c ****     adc_STBY_PWRMGR_DEC_REG &= ~adc_STBY_PWR_DEC_EN;
 786              		.loc 1 416 0
 787 0112 44F2BA33 		movw	r3, #:lower16:1073759162
 788 0116 C4F20003 		movt	r3, #:upper16:1073759162
 789 011a 44F2BA32 		movw	r2, #:lower16:1073759162
 790 011e C4F20002 		movt	r2, #:upper16:1073759162
 791 0122 1278     		ldrb	r2, [r2, #0]
 792 0124 D2B2     		uxtb	r2, r2
 793 0126 02F0FE02 		and	r2, r2, #254
 794 012a 1A70     		strb	r2, [r3, #0]
 417:.\Generated_Source\PSoC5/adc.c ****     #if (CY_PSOC3 || CY_PSOC5LP)
 418:.\Generated_Source\PSoC5/adc.c ****     adc_STBY_PWRMGR_DSM_REG &= ~adc_STBY_PWR_DSM_EN;
 419:.\Generated_Source\PSoC5/adc.c ****     #endif /* CY_PSOC3 || CY_PSOC5LP */
 420:.\Generated_Source\PSoC5/adc.c **** 
 421:.\Generated_Source\PSoC5/adc.c ****    /* Disable negative pumps for DSM  */
 422:.\Generated_Source\PSoC5/adc.c ****     adc_PUMP_CR1_REG &= ~(adc_PUMP_CR1_CLKSEL | adc_PUMP_CR1_FORCE );
 795              		.loc 1 422 0
 796 012c 45F67703 		movw	r3, #:lower16:1073764471
 797 0130 C4F20003 		movt	r3, #:upper16:1073764471
 798 0134 45F67702 		movw	r2, #:lower16:1073764471
 799 0138 C4F20002 		movt	r2, #:upper16:1073764471
 800 013c 1278     		ldrb	r2, [r2, #0]
 801 013e D2B2     		uxtb	r2, r2
 802 0140 02F0F902 		and	r2, r2, #249
 803 0144 1A70     		strb	r2, [r3, #0]
 423:.\Generated_Source\PSoC5/adc.c ****     
 424:.\Generated_Source\PSoC5/adc.c ****     /* This is only valid if there is an internal clock */
 425:.\Generated_Source\PSoC5/adc.c ****     #if(adc_DEFAULT_INTERNAL_CLK)
 426:.\Generated_Source\PSoC5/adc.c ****         adc_PWRMGR_CLK_REG &= ~adc_ACT_PWR_CLK_EN;
 804              		.loc 1 426 0
 805 0146 44F2A133 		movw	r3, #:lower16:1073759137
 806 014a C4F20003 		movt	r3, #:upper16:1073759137
 807 014e 44F2A132 		movw	r2, #:lower16:1073759137
 808 0152 C4F20002 		movt	r2, #:upper16:1073759137
 809 0156 1278     		ldrb	r2, [r2, #0]
 810 0158 D2B2     		uxtb	r2, r2
 811 015a 02F0FE02 		and	r2, r2, #254
 812 015e 1A70     		strb	r2, [r3, #0]
 427:.\Generated_Source\PSoC5/adc.c ****         adc_STBY_PWRMGR_CLK_REG &= ~adc_STBY_PWR_CLK_EN;
 813              		.loc 1 427 0
 814 0160 44F2B133 		movw	r3, #:lower16:1073759153
 815 0164 C4F20003 		movt	r3, #:upper16:1073759153
 816 0168 44F2B132 		movw	r2, #:lower16:1073759153
 817 016c C4F20002 		movt	r2, #:upper16:1073759153
 818 0170 1278     		ldrb	r2, [r2, #0]
 819 0172 D2B2     		uxtb	r2, r2
 820 0174 02F0FE02 		and	r2, r2, #254
 821 0178 1A70     		strb	r2, [r3, #0]
 428:.\Generated_Source\PSoC5/adc.c ****     #endif /* adc_DEFAULT_INTERNAL_CLK */
 429:.\Generated_Source\PSoC5/adc.c ****     
ARM GAS  C:\Users\arh\AppData\Local\Temp\ccpMsX4j.s 			page 23


 430:.\Generated_Source\PSoC5/adc.c ****     /* Disable power to charge pump clock */
 431:.\Generated_Source\PSoC5/adc.c ****     adc_PWRMGR_CHARGE_PUMP_CLK_REG &= ~adc_ACT_PWR_CHARGE_PUMP_CLK_EN;
 822              		.loc 1 431 0
 823 017a 44F2A233 		movw	r3, #:lower16:1073759138
 824 017e C4F20003 		movt	r3, #:upper16:1073759138
 825 0182 44F2A232 		movw	r2, #:lower16:1073759138
 826 0186 C4F20002 		movt	r2, #:upper16:1073759138
 827 018a 1278     		ldrb	r2, [r2, #0]
 828 018c D2B2     		uxtb	r2, r2
 829 018e 02F0FE02 		and	r2, r2, #254
 830 0192 1A70     		strb	r2, [r3, #0]
 432:.\Generated_Source\PSoC5/adc.c ****     adc_STBY_PWRMGR_CHARGE_PUMP_CLK_REG &= ~adc_STBY_PWR_CHARGE_PUMP_CLK_EN;
 831              		.loc 1 432 0
 832 0194 44F2B233 		movw	r3, #:lower16:1073759154
 833 0198 C4F20003 		movt	r3, #:upper16:1073759154
 834 019c 44F2B232 		movw	r2, #:lower16:1073759154
 835 01a0 C4F20002 		movt	r2, #:upper16:1073759154
 836 01a4 1278     		ldrb	r2, [r2, #0]
 837 01a6 D2B2     		uxtb	r2, r2
 838 01a8 02F0FE02 		and	r2, r2, #254
 839 01ac 1A70     		strb	r2, [r3, #0]
 433:.\Generated_Source\PSoC5/adc.c **** }
 840              		.loc 1 433 0
 841 01ae 80BD     		pop	{r7, pc}
 842              		.cfi_endproc
 843              	.LFE6:
 844              		.size	adc_Stop, .-adc_Stop
 845              		.section	.text.adc_SetBufferGain,"ax",%progbits
 846              		.align	2
 847              		.global	adc_SetBufferGain
 848              		.thumb
 849              		.thumb_func
 850              		.type	adc_SetBufferGain, %function
 851              	adc_SetBufferGain:
 852              	.LFB7:
 434:.\Generated_Source\PSoC5/adc.c **** 
 435:.\Generated_Source\PSoC5/adc.c **** 
 436:.\Generated_Source\PSoC5/adc.c **** /*******************************************************************************
 437:.\Generated_Source\PSoC5/adc.c **** * Function Name: adc_SetBufferGain
 438:.\Generated_Source\PSoC5/adc.c **** ********************************************************************************
 439:.\Generated_Source\PSoC5/adc.c **** *
 440:.\Generated_Source\PSoC5/adc.c **** * Summary:
 441:.\Generated_Source\PSoC5/adc.c **** *  Set input buffer range.
 442:.\Generated_Source\PSoC5/adc.c **** *
 443:.\Generated_Source\PSoC5/adc.c **** * Parameters:  
 444:.\Generated_Source\PSoC5/adc.c **** *  gain:  Two bit value to select a gain of 1, 2, 4, or 8.
 445:.\Generated_Source\PSoC5/adc.c **** *
 446:.\Generated_Source\PSoC5/adc.c **** * Return: 
 447:.\Generated_Source\PSoC5/adc.c **** *  void
 448:.\Generated_Source\PSoC5/adc.c **** *
 449:.\Generated_Source\PSoC5/adc.c **** *******************************************************************************/
 450:.\Generated_Source\PSoC5/adc.c **** void adc_SetBufferGain(uint8 gain) 
 451:.\Generated_Source\PSoC5/adc.c **** {
 853              		.loc 1 451 0
 854              		.cfi_startproc
 855              		@ args = 0, pretend = 0, frame = 16
 856              		@ frame_needed = 1, uses_anonymous_args = 0
ARM GAS  C:\Users\arh\AppData\Local\Temp\ccpMsX4j.s 			page 24


 857              		@ link register save eliminated.
 858 0000 80B4     		push	{r7}
 859              	.LCFI14:
 860              		.cfi_def_cfa_offset 4
 861 0002 85B0     		sub	sp, sp, #20
 862              	.LCFI15:
 863              		.cfi_def_cfa_offset 24
 864 0004 00AF     		add	r7, sp, #0
 865              		.cfi_offset 7, -4
 866              	.LCFI16:
 867              		.cfi_def_cfa_register 7
 868 0006 0346     		mov	r3, r0
 869 0008 FB71     		strb	r3, [r7, #7]
 452:.\Generated_Source\PSoC5/adc.c ****     uint8 tmpReg;
 453:.\Generated_Source\PSoC5/adc.c ****     tmpReg = adc_DSM_BUF1_REG & ~adc_DSM_GAIN_MASK;
 870              		.loc 1 453 0
 871 000a 45F69B03 		movw	r3, #:lower16:1073764507
 872 000e C4F20003 		movt	r3, #:upper16:1073764507
 873 0012 1B78     		ldrb	r3, [r3, #0]
 874 0014 DBB2     		uxtb	r3, r3
 875 0016 23F00C03 		bic	r3, r3, #12
 876 001a FB73     		strb	r3, [r7, #15]
 454:.\Generated_Source\PSoC5/adc.c ****     tmpReg |= (gain << 2);
 877              		.loc 1 454 0
 878 001c FB79     		ldrb	r3, [r7, #7]	@ zero_extendqisi2
 879 001e 4FEA8303 		lsl	r3, r3, #2
 880 0022 DAB2     		uxtb	r2, r3
 881 0024 FB7B     		ldrb	r3, [r7, #15]	@ zero_extendqisi2
 882 0026 42EA0303 		orr	r3, r2, r3
 883 002a DBB2     		uxtb	r3, r3
 884 002c FB73     		strb	r3, [r7, #15]
 455:.\Generated_Source\PSoC5/adc.c ****     adc_DSM_BUF1_REG = tmpReg;
 885              		.loc 1 455 0
 886 002e 45F69B03 		movw	r3, #:lower16:1073764507
 887 0032 C4F20003 		movt	r3, #:upper16:1073764507
 888 0036 FA7B     		ldrb	r2, [r7, #15]
 889 0038 1A70     		strb	r2, [r3, #0]
 456:.\Generated_Source\PSoC5/adc.c **** }
 890              		.loc 1 456 0
 891 003a 07F11407 		add	r7, r7, #20
 892 003e BD46     		mov	sp, r7
 893 0040 80BC     		pop	{r7}
 894 0042 7047     		bx	lr
 895              		.cfi_endproc
 896              	.LFE7:
 897              		.size	adc_SetBufferGain, .-adc_SetBufferGain
 898              		.section	.text.adc_SetCoherency,"ax",%progbits
 899              		.align	2
 900              		.global	adc_SetCoherency
 901              		.thumb
 902              		.thumb_func
 903              		.type	adc_SetCoherency, %function
 904              	adc_SetCoherency:
 905              	.LFB8:
 457:.\Generated_Source\PSoC5/adc.c **** 
 458:.\Generated_Source\PSoC5/adc.c **** 
 459:.\Generated_Source\PSoC5/adc.c **** /*******************************************************************************
ARM GAS  C:\Users\arh\AppData\Local\Temp\ccpMsX4j.s 			page 25


 460:.\Generated_Source\PSoC5/adc.c **** * Function Name: adc_SetCoherency
 461:.\Generated_Source\PSoC5/adc.c **** ********************************************************************************
 462:.\Generated_Source\PSoC5/adc.c **** *
 463:.\Generated_Source\PSoC5/adc.c **** * Summary:
 464:.\Generated_Source\PSoC5/adc.c **** *  Sets the ADC output register coherency bit.
 465:.\Generated_Source\PSoC5/adc.c **** *
 466:.\Generated_Source\PSoC5/adc.c **** * Parameters:  
 467:.\Generated_Source\PSoC5/adc.c **** *  gain:  Two bit value to set the coherency bit.
 468:.\Generated_Source\PSoC5/adc.c ****           00-Coherency checking off
 469:.\Generated_Source\PSoC5/adc.c ****           01-low byte is key byte
 470:.\Generated_Source\PSoC5/adc.c ****           02-middle byte is the key byte
 471:.\Generated_Source\PSoC5/adc.c ****           03-high byte is the key byte
 472:.\Generated_Source\PSoC5/adc.c **** *
 473:.\Generated_Source\PSoC5/adc.c **** * Return: 
 474:.\Generated_Source\PSoC5/adc.c **** *  void
 475:.\Generated_Source\PSoC5/adc.c **** *
 476:.\Generated_Source\PSoC5/adc.c **** * Side Effects:  If the coherency is changed, for any reason, it should be 
 477:.\Generated_Source\PSoC5/adc.c **** *                changed back to the LSB when the provided "GetResult" API 
 478:.\Generated_Source\PSoC5/adc.c **** *                is used.
 479:.\Generated_Source\PSoC5/adc.c **** *
 480:.\Generated_Source\PSoC5/adc.c **** *******************************************************************************/
 481:.\Generated_Source\PSoC5/adc.c **** void adc_SetCoherency(uint8 coherency) 
 482:.\Generated_Source\PSoC5/adc.c **** {
 906              		.loc 1 482 0
 907              		.cfi_startproc
 908              		@ args = 0, pretend = 0, frame = 16
 909              		@ frame_needed = 1, uses_anonymous_args = 0
 910              		@ link register save eliminated.
 911 0000 80B4     		push	{r7}
 912              	.LCFI17:
 913              		.cfi_def_cfa_offset 4
 914 0002 85B0     		sub	sp, sp, #20
 915              	.LCFI18:
 916              		.cfi_def_cfa_offset 24
 917 0004 00AF     		add	r7, sp, #0
 918              		.cfi_offset 7, -4
 919              	.LCFI19:
 920              		.cfi_def_cfa_register 7
 921 0006 0346     		mov	r3, r0
 922 0008 FB71     		strb	r3, [r7, #7]
 483:.\Generated_Source\PSoC5/adc.c ****     uint8 tmpReg;    
 484:.\Generated_Source\PSoC5/adc.c ****     tmpReg = adc_DEC_COHER_REG & ~adc_DEC_SAMP_KEY_MASK;
 923              		.loc 1 484 0
 924 000a 44F61463 		movw	r3, #:lower16:1073761812
 925 000e C4F20003 		movt	r3, #:upper16:1073761812
 926 0012 1B78     		ldrb	r3, [r3, #0]
 927 0014 DBB2     		uxtb	r3, r3
 928 0016 23F00303 		bic	r3, r3, #3
 929 001a FB73     		strb	r3, [r7, #15]
 485:.\Generated_Source\PSoC5/adc.c ****     tmpReg |= coherency;
 930              		.loc 1 485 0
 931 001c FA7B     		ldrb	r2, [r7, #15]
 932 001e FB79     		ldrb	r3, [r7, #7]
 933 0020 42EA0303 		orr	r3, r2, r3
 934 0024 FB73     		strb	r3, [r7, #15]
 486:.\Generated_Source\PSoC5/adc.c ****     adc_DEC_COHER_REG = tmpReg;
 935              		.loc 1 486 0
ARM GAS  C:\Users\arh\AppData\Local\Temp\ccpMsX4j.s 			page 26


 936 0026 44F61463 		movw	r3, #:lower16:1073761812
 937 002a C4F20003 		movt	r3, #:upper16:1073761812
 938 002e FA7B     		ldrb	r2, [r7, #15]
 939 0030 1A70     		strb	r2, [r3, #0]
 487:.\Generated_Source\PSoC5/adc.c **** }
 940              		.loc 1 487 0
 941 0032 07F11407 		add	r7, r7, #20
 942 0036 BD46     		mov	sp, r7
 943 0038 80BC     		pop	{r7}
 944 003a 7047     		bx	lr
 945              		.cfi_endproc
 946              	.LFE8:
 947              		.size	adc_SetCoherency, .-adc_SetCoherency
 948              		.global	__aeabi_ui2f
 949              		.global	__aeabi_fdiv
 950              		.global	__aeabi_fmul
 951              		.global	__aeabi_f2d
 952              		.global	__aeabi_dcmpgt
 953              		.global	__aeabi_f2uiz
 954              		.section	.text.adc_SetGCOR,"ax",%progbits
 955              		.align	2
 956              		.global	adc_SetGCOR
 957              		.thumb
 958              		.thumb_func
 959              		.type	adc_SetGCOR, %function
 960              	adc_SetGCOR:
 961              	.LFB9:
 488:.\Generated_Source\PSoC5/adc.c **** 
 489:.\Generated_Source\PSoC5/adc.c **** 
 490:.\Generated_Source\PSoC5/adc.c **** /*******************************************************************************
 491:.\Generated_Source\PSoC5/adc.c **** * Function Name: adc_SetGCOR
 492:.\Generated_Source\PSoC5/adc.c **** ********************************************************************************
 493:.\Generated_Source\PSoC5/adc.c **** *
 494:.\Generated_Source\PSoC5/adc.c **** * Summary:
 495:.\Generated_Source\PSoC5/adc.c **** *  Calculates a new GCOR value and writes it into the GCOR register.
 496:.\Generated_Source\PSoC5/adc.c **** *
 497:.\Generated_Source\PSoC5/adc.c **** * Parameters:  
 498:.\Generated_Source\PSoC5/adc.c **** *  gainAdjust:  floating point value to set GCOR registers.
 499:.\Generated_Source\PSoC5/adc.c **** *
 500:.\Generated_Source\PSoC5/adc.c **** * Return: 
 501:.\Generated_Source\PSoC5/adc.c **** *  uint8:  0-if GCOR value is within the expected range.
 502:.\Generated_Source\PSoC5/adc.c ****            1- if GCOR is outside the expected range.
 503:.\Generated_Source\PSoC5/adc.c **** *
 504:.\Generated_Source\PSoC5/adc.c **** * Side Effects:  The GVAL register is set to the amount of valid bits in the
 505:.\Generated_Source\PSoC5/adc.c **** *                GCOR  register minus one. If GVAL is 15 (0x0F), all 16 bits
 506:.\Generated_Source\PSoC5/adc.c **** *                of the GCOR registers will be valid. If for example GVAL is 
 507:.\Generated_Source\PSoC5/adc.c **** *                11 (0x0B) only 12 bits will be valid. The least 4 bits will
 508:.\Generated_Source\PSoC5/adc.c **** *                be lost when the GCOR value is shifted 4 places to the right.
 509:.\Generated_Source\PSoC5/adc.c **** *
 510:.\Generated_Source\PSoC5/adc.c **** ******************************************************************************/
 511:.\Generated_Source\PSoC5/adc.c **** uint8 adc_SetGCOR(float gainAdjust) 
 512:.\Generated_Source\PSoC5/adc.c **** {
 962              		.loc 1 512 0
 963              		.cfi_startproc
 964              		@ args = 0, pretend = 0, frame = 16
 965              		@ frame_needed = 1, uses_anonymous_args = 0
 966 0000 90B5     		push	{r4, r7, lr}
ARM GAS  C:\Users\arh\AppData\Local\Temp\ccpMsX4j.s 			page 27


 967              	.LCFI20:
 968              		.cfi_def_cfa_offset 12
 969 0002 85B0     		sub	sp, sp, #20
 970              	.LCFI21:
 971              		.cfi_def_cfa_offset 32
 972 0004 00AF     		add	r7, sp, #0
 973              		.cfi_offset 14, -4
 974              		.cfi_offset 7, -8
 975              		.cfi_offset 4, -12
 976              	.LCFI22:
 977              		.cfi_def_cfa_register 7
 978 0006 7860     		str	r0, [r7, #4]	@ float
 513:.\Generated_Source\PSoC5/adc.c ****     uint16 tmpReg;
 514:.\Generated_Source\PSoC5/adc.c ****     uint8 status;
 515:.\Generated_Source\PSoC5/adc.c ****     float tmpValue;
 516:.\Generated_Source\PSoC5/adc.c ****     
 517:.\Generated_Source\PSoC5/adc.c ****     tmpReg = adc_DEC_GCORH_REG;
 979              		.loc 1 517 0
 980 0008 44F60D63 		movw	r3, #:lower16:1073761805
 981 000c C4F20003 		movt	r3, #:upper16:1073761805
 982 0010 1B78     		ldrb	r3, [r3, #0]
 983 0012 DBB2     		uxtb	r3, r3
 984 0014 3B81     		strh	r3, [r7, #8]	@ movhi
 518:.\Generated_Source\PSoC5/adc.c ****     tmpReg = (tmpReg << 8) | adc_DEC_GCOR_REG;
 985              		.loc 1 518 0
 986 0016 3B89     		ldrh	r3, [r7, #8]
 987 0018 4FEA0323 		lsl	r3, r3, #8
 988 001c 9AB2     		uxth	r2, r3
 989 001e 44F60C63 		movw	r3, #:lower16:1073761804
 990 0022 C4F20003 		movt	r3, #:upper16:1073761804
 991 0026 1B78     		ldrb	r3, [r3, #0]
 992 0028 DBB2     		uxtb	r3, r3
 993 002a 42EA0303 		orr	r3, r2, r3
 994 002e 9BB2     		uxth	r3, r3
 995 0030 3B81     		strh	r3, [r7, #8]	@ movhi
 519:.\Generated_Source\PSoC5/adc.c ****     tmpValue = ((float)tmpReg / adc_IDEAL_GAIN_CONST);
 996              		.loc 1 519 0
 997 0032 3B89     		ldrh	r3, [r7, #8]
 998 0034 1846     		mov	r0, r3
 999 0036 FFF7FEFF 		bl	__aeabi_ui2f
 1000 003a 0346     		mov	r3, r0
 1001 003c 1846     		mov	r0, r3
 1002 003e 2849     		ldr	r1, .L29+8	@ float
 1003 0040 FFF7FEFF 		bl	__aeabi_fdiv
 1004 0044 0346     		mov	r3, r0
 1005 0046 FB60     		str	r3, [r7, #12]	@ float
 520:.\Generated_Source\PSoC5/adc.c ****     tmpValue = tmpValue * gainAdjust;
 1006              		.loc 1 520 0
 1007 0048 F868     		ldr	r0, [r7, #12]	@ float
 1008 004a 7968     		ldr	r1, [r7, #4]	@ float
 1009 004c FFF7FEFF 		bl	__aeabi_fmul
 1010 0050 0346     		mov	r3, r0
 1011 0052 FB60     		str	r3, [r7, #12]	@ float
 521:.\Generated_Source\PSoC5/adc.c ****     
 522:.\Generated_Source\PSoC5/adc.c ****     if (tmpValue > 1.9999)
 1012              		.loc 1 522 0
 1013 0054 F868     		ldr	r0, [r7, #12]	@ float
ARM GAS  C:\Users\arh\AppData\Local\Temp\ccpMsX4j.s 			page 28


 1014 0056 FFF7FEFF 		bl	__aeabi_f2d
 1015 005a 0246     		mov	r2, r0
 1016 005c 0B46     		mov	r3, r1
 1017 005e 4FF00001 		mov	r1, #0
 1018 0062 0C46     		mov	r4, r1
 1019 0064 1046     		mov	r0, r2
 1020 0066 1946     		mov	r1, r3
 1021 0068 1BA3     		adr	r3, .L29
 1022 006a D3E90023 		ldrd	r2, [r3]
 1023 006e FFF7FEFF 		bl	__aeabi_dcmpgt
 1024 0072 0346     		mov	r3, r0
 1025 0074 002B     		cmp	r3, #0
 1026 0076 02D0     		beq	.L24
 1027              	.L25:
 1028 0078 4FF00103 		mov	r3, #1
 1029 007c 1C46     		mov	r4, r3
 1030              	.L24:
 1031 007e E3B2     		uxtb	r3, r4
 1032 0080 002B     		cmp	r3, #0
 1033 0082 03D0     		beq	.L26
 523:.\Generated_Source\PSoC5/adc.c ****     {
 524:.\Generated_Source\PSoC5/adc.c ****         status = 1;
 1034              		.loc 1 524 0
 1035 0084 4FF00103 		mov	r3, #1
 1036 0088 FB72     		strb	r3, [r7, #11]
 1037 008a 1DE0     		b	.L27
 1038              	.L26:
 525:.\Generated_Source\PSoC5/adc.c ****     }
 526:.\Generated_Source\PSoC5/adc.c ****     else
 527:.\Generated_Source\PSoC5/adc.c ****     {
 528:.\Generated_Source\PSoC5/adc.c ****         tmpReg = (uint16)(tmpValue * adc_IDEAL_GAIN_CONST);
 1039              		.loc 1 528 0
 1040 008c F868     		ldr	r0, [r7, #12]	@ float
 1041 008e 1449     		ldr	r1, .L29+8	@ float
 1042 0090 FFF7FEFF 		bl	__aeabi_fmul
 1043 0094 0346     		mov	r3, r0
 1044 0096 1846     		mov	r0, r3
 1045 0098 FFF7FEFF 		bl	__aeabi_f2uiz
 1046 009c 0346     		mov	r3, r0
 1047 009e 3B81     		strh	r3, [r7, #8]	@ movhi
 529:.\Generated_Source\PSoC5/adc.c ****         adc_DEC_GCOR_REG = (uint8)tmpReg;
 1048              		.loc 1 529 0
 1049 00a0 44F60C63 		movw	r3, #:lower16:1073761804
 1050 00a4 C4F20003 		movt	r3, #:upper16:1073761804
 1051 00a8 3A89     		ldrh	r2, [r7, #8]	@ movhi
 1052 00aa D2B2     		uxtb	r2, r2
 1053 00ac 1A70     		strb	r2, [r3, #0]
 530:.\Generated_Source\PSoC5/adc.c ****         adc_DEC_GCORH_REG = (uint8) (tmpReg >> 8);
 1054              		.loc 1 530 0
 1055 00ae 44F60D63 		movw	r3, #:lower16:1073761805
 1056 00b2 C4F20003 		movt	r3, #:upper16:1073761805
 1057 00b6 3A89     		ldrh	r2, [r7, #8]
 1058 00b8 4FEA1222 		lsr	r2, r2, #8
 1059 00bc 92B2     		uxth	r2, r2
 1060 00be D2B2     		uxtb	r2, r2
 1061 00c0 1A70     		strb	r2, [r3, #0]
 531:.\Generated_Source\PSoC5/adc.c ****         status = 0;
ARM GAS  C:\Users\arh\AppData\Local\Temp\ccpMsX4j.s 			page 29


 1062              		.loc 1 531 0
 1063 00c2 4FF00003 		mov	r3, #0
 1064 00c6 FB72     		strb	r3, [r7, #11]
 1065              	.L27:
 532:.\Generated_Source\PSoC5/adc.c ****     }
 533:.\Generated_Source\PSoC5/adc.c ****     
 534:.\Generated_Source\PSoC5/adc.c ****     return status;
 1066              		.loc 1 534 0
 1067 00c8 FB7A     		ldrb	r3, [r7, #11]	@ zero_extendqisi2
 535:.\Generated_Source\PSoC5/adc.c **** }
 1068              		.loc 1 535 0
 1069 00ca 1846     		mov	r0, r3
 1070 00cc 07F11407 		add	r7, r7, #20
 1071 00d0 BD46     		mov	sp, r7
 1072 00d2 90BD     		pop	{r4, r7, pc}
 1073              	.L30:
 1074 00d4 AFF30080 		.align	3
 1075              	.L29:
 1076 00d8 8F537424 		.word	611603343
 1077 00dc 97FFFF3F 		.word	1073741719
 1078 00e0 00000047 		.word	1191182336
 1079              		.cfi_endproc
 1080              	.LFE9:
 1081              		.size	adc_SetGCOR, .-adc_SetGCOR
 1082 00e4 AFF30080 		.section	.text.adc_ReadGCOR,"ax",%progbits
 1083              		.align	2
 1084              		.global	adc_ReadGCOR
 1085              		.thumb
 1086              		.thumb_func
 1087              		.type	adc_ReadGCOR, %function
 1088              	adc_ReadGCOR:
 1089              	.LFB10:
 536:.\Generated_Source\PSoC5/adc.c **** 
 537:.\Generated_Source\PSoC5/adc.c **** 
 538:.\Generated_Source\PSoC5/adc.c **** /******************************************************************************
 539:.\Generated_Source\PSoC5/adc.c **** * Function Name: adc_ReadGCOR
 540:.\Generated_Source\PSoC5/adc.c **** *******************************************************************************
 541:.\Generated_Source\PSoC5/adc.c **** *
 542:.\Generated_Source\PSoC5/adc.c **** * Summary:
 543:.\Generated_Source\PSoC5/adc.c **** *  This API returns the current GCOR register value, normalized based on the 
 544:.\Generated_Source\PSoC5/adc.c **** *  GVAL register settings.
 545:.\Generated_Source\PSoC5/adc.c **** *
 546:.\Generated_Source\PSoC5/adc.c **** * Parameters:  
 547:.\Generated_Source\PSoC5/adc.c **** *  void
 548:.\Generated_Source\PSoC5/adc.c **** *
 549:.\Generated_Source\PSoC5/adc.c **** * Return: 
 550:.\Generated_Source\PSoC5/adc.c **** *  uint16:  Normalized GCOR value.
 551:.\Generated_Source\PSoC5/adc.c **** *
 552:.\Generated_Source\PSoC5/adc.c **** * Side Effects:  If the GVAL register is set to a value greater than 0x0F, then
 553:.\Generated_Source\PSoC5/adc.c ****                  it gives unexpected value.
 554:.\Generated_Source\PSoC5/adc.c **** *
 555:.\Generated_Source\PSoC5/adc.c **** *******************************************************************************/
 556:.\Generated_Source\PSoC5/adc.c **** uint16 adc_ReadGCOR(void) 
 557:.\Generated_Source\PSoC5/adc.c **** {
 1090              		.loc 1 557 0
 1091              		.cfi_startproc
 1092              		@ args = 0, pretend = 0, frame = 8
ARM GAS  C:\Users\arh\AppData\Local\Temp\ccpMsX4j.s 			page 30


 1093              		@ frame_needed = 1, uses_anonymous_args = 0
 1094              		@ link register save eliminated.
 1095 0000 80B4     		push	{r7}
 1096              	.LCFI23:
 1097              		.cfi_def_cfa_offset 4
 1098 0002 83B0     		sub	sp, sp, #12
 1099              	.LCFI24:
 1100              		.cfi_def_cfa_offset 16
 1101 0004 00AF     		add	r7, sp, #0
 1102              		.cfi_offset 7, -4
 1103              	.LCFI25:
 1104              		.cfi_def_cfa_register 7
 558:.\Generated_Source\PSoC5/adc.c ****     uint8 gValue;
 559:.\Generated_Source\PSoC5/adc.c ****     uint16 gcorValue, gcorRegValue;
 560:.\Generated_Source\PSoC5/adc.c ****     
 561:.\Generated_Source\PSoC5/adc.c ****     gValue = adc_DEC_GVAL_REG;
 1105              		.loc 1 561 0
 1106 0006 44F60E63 		movw	r3, #:lower16:1073761806
 1107 000a C4F20003 		movt	r3, #:upper16:1073761806
 1108 000e 1B78     		ldrb	r3, [r3, #0]
 1109 0010 FB70     		strb	r3, [r7, #3]
 562:.\Generated_Source\PSoC5/adc.c ****     gcorRegValue = CY_GET_REG16(adc_DEC_GCOR_PTR);
 1110              		.loc 1 562 0
 1111 0012 44F60C63 		movw	r3, #:lower16:1073761804
 1112 0016 C4F20003 		movt	r3, #:upper16:1073761804
 1113 001a 1B88     		ldrh	r3, [r3, #0]	@ movhi
 1114 001c FB80     		strh	r3, [r7, #6]	@ movhi
 563:.\Generated_Source\PSoC5/adc.c ****     
 564:.\Generated_Source\PSoC5/adc.c ****     switch (gValue)
 1115              		.loc 1 564 0
 1116 001e FB78     		ldrb	r3, [r7, #3]	@ zero_extendqisi2
 1117 0020 A3F10903 		sub	r3, r3, #9
 1118 0024 052B     		cmp	r3, #5
 1119 0026 3FD8     		bhi	.L32
 1120 0028 01A2     		adr	r2, .L39
 1121 002a 52F823F0 		ldr	pc, [r2, r3, lsl #2]
 1122 002e 00BF     		.align	2
 1123              	.L39:
 1124 0030 49000000 		.word	.L33+1
 1125 0034 59000000 		.word	.L34+1
 1126 0038 69000000 		.word	.L35+1
 1127 003c 79000000 		.word	.L36+1
 1128 0040 89000000 		.word	.L37+1
 1129 0044 99000000 		.word	.L38+1
 1130              	.L33:
 565:.\Generated_Source\PSoC5/adc.c ****     {
 566:.\Generated_Source\PSoC5/adc.c ****         case adc_GVAL_RESOLUTIN_8:
 567:.\Generated_Source\PSoC5/adc.c ****             gcorValue = gcorRegValue << (adc_MAX_GVAL - gValue);
 1131              		.loc 1 567 0
 1132 0048 FA88     		ldrh	r2, [r7, #6]
 1133 004a FB78     		ldrb	r3, [r7, #3]	@ zero_extendqisi2
 1134 004c C3F10F03 		rsb	r3, r3, #15
 1135 0050 02FA03F3 		lsl	r3, r2, r3
 1136 0054 BB80     		strh	r3, [r7, #4]	@ movhi
 568:.\Generated_Source\PSoC5/adc.c ****             break;
 1137              		.loc 1 568 0
 1138 0056 29E0     		b	.L40
ARM GAS  C:\Users\arh\AppData\Local\Temp\ccpMsX4j.s 			page 31


 1139              	.L34:
 569:.\Generated_Source\PSoC5/adc.c ****         
 570:.\Generated_Source\PSoC5/adc.c ****         case adc_GVAL_RESOLUTIN_9:
 571:.\Generated_Source\PSoC5/adc.c ****             gcorValue = gcorRegValue << (adc_MAX_GVAL - gValue);
 1140              		.loc 1 571 0
 1141 0058 FA88     		ldrh	r2, [r7, #6]
 1142 005a FB78     		ldrb	r3, [r7, #3]	@ zero_extendqisi2
 1143 005c C3F10F03 		rsb	r3, r3, #15
 1144 0060 02FA03F3 		lsl	r3, r2, r3
 1145 0064 BB80     		strh	r3, [r7, #4]	@ movhi
 572:.\Generated_Source\PSoC5/adc.c ****             break;
 1146              		.loc 1 572 0
 1147 0066 21E0     		b	.L40
 1148              	.L35:
 573:.\Generated_Source\PSoC5/adc.c ****             
 574:.\Generated_Source\PSoC5/adc.c ****         case adc_GVAL_RESOLUTIN_10:
 575:.\Generated_Source\PSoC5/adc.c ****             gcorValue = gcorRegValue << (adc_MAX_GVAL - gValue);
 1149              		.loc 1 575 0
 1150 0068 FA88     		ldrh	r2, [r7, #6]
 1151 006a FB78     		ldrb	r3, [r7, #3]	@ zero_extendqisi2
 1152 006c C3F10F03 		rsb	r3, r3, #15
 1153 0070 02FA03F3 		lsl	r3, r2, r3
 1154 0074 BB80     		strh	r3, [r7, #4]	@ movhi
 576:.\Generated_Source\PSoC5/adc.c ****             break;
 1155              		.loc 1 576 0
 1156 0076 19E0     		b	.L40
 1157              	.L36:
 577:.\Generated_Source\PSoC5/adc.c ****             
 578:.\Generated_Source\PSoC5/adc.c ****         case adc_GVAL_RESOLUTIN_11:
 579:.\Generated_Source\PSoC5/adc.c ****             gcorValue = gcorRegValue << (adc_MAX_GVAL - gValue);
 1158              		.loc 1 579 0
 1159 0078 FA88     		ldrh	r2, [r7, #6]
 1160 007a FB78     		ldrb	r3, [r7, #3]	@ zero_extendqisi2
 1161 007c C3F10F03 		rsb	r3, r3, #15
 1162 0080 02FA03F3 		lsl	r3, r2, r3
 1163 0084 BB80     		strh	r3, [r7, #4]	@ movhi
 580:.\Generated_Source\PSoC5/adc.c ****             break;
 1164              		.loc 1 580 0
 1165 0086 11E0     		b	.L40
 1166              	.L37:
 581:.\Generated_Source\PSoC5/adc.c ****             
 582:.\Generated_Source\PSoC5/adc.c ****         case adc_GVAL_RESOLUTIN_12:
 583:.\Generated_Source\PSoC5/adc.c ****             gcorValue = gcorRegValue << (adc_MAX_GVAL - gValue);
 1167              		.loc 1 583 0
 1168 0088 FA88     		ldrh	r2, [r7, #6]
 1169 008a FB78     		ldrb	r3, [r7, #3]	@ zero_extendqisi2
 1170 008c C3F10F03 		rsb	r3, r3, #15
 1171 0090 02FA03F3 		lsl	r3, r2, r3
 1172 0094 BB80     		strh	r3, [r7, #4]	@ movhi
 584:.\Generated_Source\PSoC5/adc.c ****             break;
 1173              		.loc 1 584 0
 1174 0096 09E0     		b	.L40
 1175              	.L38:
 585:.\Generated_Source\PSoC5/adc.c ****             
 586:.\Generated_Source\PSoC5/adc.c ****         case adc_GVAL_RESOLUTIN_13:
 587:.\Generated_Source\PSoC5/adc.c ****             gcorValue = gcorRegValue << (adc_MAX_GVAL - gValue);
 1176              		.loc 1 587 0
ARM GAS  C:\Users\arh\AppData\Local\Temp\ccpMsX4j.s 			page 32


 1177 0098 FA88     		ldrh	r2, [r7, #6]
 1178 009a FB78     		ldrb	r3, [r7, #3]	@ zero_extendqisi2
 1179 009c C3F10F03 		rsb	r3, r3, #15
 1180 00a0 02FA03F3 		lsl	r3, r2, r3
 1181 00a4 BB80     		strh	r3, [r7, #4]	@ movhi
 588:.\Generated_Source\PSoC5/adc.c ****             break;
 1182              		.loc 1 588 0
 1183 00a6 01E0     		b	.L40
 1184              	.L32:
 589:.\Generated_Source\PSoC5/adc.c ****             
 590:.\Generated_Source\PSoC5/adc.c ****         default:
 591:.\Generated_Source\PSoC5/adc.c ****             gcorValue = gcorRegValue;
 1185              		.loc 1 591 0
 1186 00a8 FB88     		ldrh	r3, [r7, #6]	@ movhi
 1187 00aa BB80     		strh	r3, [r7, #4]	@ movhi
 1188              	.L40:
 592:.\Generated_Source\PSoC5/adc.c ****             break;
 593:.\Generated_Source\PSoC5/adc.c ****     }
 594:.\Generated_Source\PSoC5/adc.c ****         
 595:.\Generated_Source\PSoC5/adc.c ****     return gcorValue;
 1189              		.loc 1 595 0
 1190 00ac BB88     		ldrh	r3, [r7, #4]
 596:.\Generated_Source\PSoC5/adc.c **** }
 1191              		.loc 1 596 0
 1192 00ae 1846     		mov	r0, r3
 1193 00b0 07F10C07 		add	r7, r7, #12
 1194 00b4 BD46     		mov	sp, r7
 1195 00b6 80BC     		pop	{r7}
 1196 00b8 7047     		bx	lr
 1197              		.cfi_endproc
 1198              	.LFE10:
 1199              		.size	adc_ReadGCOR, .-adc_ReadGCOR
 1200 00ba 00BF     		.section	.text.adc_SetBufferChop,"ax",%progbits
 1201              		.align	2
 1202              		.global	adc_SetBufferChop
 1203              		.thumb
 1204              		.thumb_func
 1205              		.type	adc_SetBufferChop, %function
 1206              	adc_SetBufferChop:
 1207              	.LFB11:
 597:.\Generated_Source\PSoC5/adc.c **** 
 598:.\Generated_Source\PSoC5/adc.c **** 
 599:.\Generated_Source\PSoC5/adc.c **** /*******************************************************************************
 600:.\Generated_Source\PSoC5/adc.c **** * Function Name: adc_SetBufferChop
 601:.\Generated_Source\PSoC5/adc.c **** ********************************************************************************
 602:.\Generated_Source\PSoC5/adc.c **** *
 603:.\Generated_Source\PSoC5/adc.c **** * Summary:
 604:.\Generated_Source\PSoC5/adc.c **** *  Sets the Delta Sigma Modulator Buffer chopper mode.
 605:.\Generated_Source\PSoC5/adc.c **** *
 606:.\Generated_Source\PSoC5/adc.c **** * Parameters:  
 607:.\Generated_Source\PSoC5/adc.c **** *  chopen:  If non-zero set the chopper mode.
 608:.\Generated_Source\PSoC5/adc.c **** *  chopFreq:  Chop frequency value.
 609:.\Generated_Source\PSoC5/adc.c **** *
 610:.\Generated_Source\PSoC5/adc.c **** * Return: 
 611:.\Generated_Source\PSoC5/adc.c **** *  void
 612:.\Generated_Source\PSoC5/adc.c **** *
 613:.\Generated_Source\PSoC5/adc.c **** *******************************************************************************/
ARM GAS  C:\Users\arh\AppData\Local\Temp\ccpMsX4j.s 			page 33


 614:.\Generated_Source\PSoC5/adc.c **** void adc_SetBufferChop(uint8 chopen, uint8 chopFreq) 
 615:.\Generated_Source\PSoC5/adc.c **** {
 1208              		.loc 1 615 0
 1209              		.cfi_startproc
 1210              		@ args = 0, pretend = 0, frame = 8
 1211              		@ frame_needed = 1, uses_anonymous_args = 0
 1212              		@ link register save eliminated.
 1213 0000 80B4     		push	{r7}
 1214              	.LCFI26:
 1215              		.cfi_def_cfa_offset 4
 1216 0002 83B0     		sub	sp, sp, #12
 1217              	.LCFI27:
 1218              		.cfi_def_cfa_offset 16
 1219 0004 00AF     		add	r7, sp, #0
 1220              		.cfi_offset 7, -4
 1221              	.LCFI28:
 1222              		.cfi_def_cfa_register 7
 1223 0006 0246     		mov	r2, r0
 1224 0008 0B46     		mov	r3, r1
 1225 000a FA71     		strb	r2, [r7, #7]
 1226 000c BB71     		strb	r3, [r7, #6]
 616:.\Generated_Source\PSoC5/adc.c ****     if(chopen != 0u)
 1227              		.loc 1 616 0
 1228 000e FB79     		ldrb	r3, [r7, #7]	@ zero_extendqisi2
 1229 0010 002B     		cmp	r3, #0
 1230 0012 0BD0     		beq	.L43
 617:.\Generated_Source\PSoC5/adc.c ****     {
 618:.\Generated_Source\PSoC5/adc.c ****         adc_DSM_BUF2_REG = (adc_DSM_BUF_FCHOP_MASK & chopFreq) | \
 1231              		.loc 1 618 0
 1232 0014 45F69C03 		movw	r3, #:lower16:1073764508
 1233 0018 C4F20003 		movt	r3, #:upper16:1073764508
 1234 001c BA79     		ldrb	r2, [r7, #6]	@ zero_extendqisi2
 1235 001e 02F00702 		and	r2, r2, #7
 1236 0022 42F00802 		orr	r2, r2, #8
 1237 0026 D2B2     		uxtb	r2, r2
 1238 0028 1A70     		strb	r2, [r3, #0]
 1239 002a 06E0     		b	.L45
 1240              	.L43:
 619:.\Generated_Source\PSoC5/adc.c ****                                          adc_DSM_BUF_CHOP_EN;
 620:.\Generated_Source\PSoC5/adc.c ****     }
 621:.\Generated_Source\PSoC5/adc.c ****     else
 622:.\Generated_Source\PSoC5/adc.c ****     {
 623:.\Generated_Source\PSoC5/adc.c ****         adc_DSM_BUF2_REG = 0x00u;
 1241              		.loc 1 623 0
 1242 002c 45F69C03 		movw	r3, #:lower16:1073764508
 1243 0030 C4F20003 		movt	r3, #:upper16:1073764508
 1244 0034 4FF00002 		mov	r2, #0
 1245 0038 1A70     		strb	r2, [r3, #0]
 1246              	.L45:
 624:.\Generated_Source\PSoC5/adc.c ****     }
 625:.\Generated_Source\PSoC5/adc.c **** }
 1247              		.loc 1 625 0
 1248 003a 07F10C07 		add	r7, r7, #12
 1249 003e BD46     		mov	sp, r7
 1250 0040 80BC     		pop	{r7}
 1251 0042 7047     		bx	lr
 1252              		.cfi_endproc
ARM GAS  C:\Users\arh\AppData\Local\Temp\ccpMsX4j.s 			page 34


 1253              	.LFE11:
 1254              		.size	adc_SetBufferChop, .-adc_SetBufferChop
 1255              		.section	.text.adc_StartConvert,"ax",%progbits
 1256              		.align	2
 1257              		.global	adc_StartConvert
 1258              		.thumb
 1259              		.thumb_func
 1260              		.type	adc_StartConvert, %function
 1261              	adc_StartConvert:
 1262              	.LFB12:
 626:.\Generated_Source\PSoC5/adc.c **** 
 627:.\Generated_Source\PSoC5/adc.c **** 
 628:.\Generated_Source\PSoC5/adc.c **** /*******************************************************************************
 629:.\Generated_Source\PSoC5/adc.c **** * Function Name: adc_StartConvert
 630:.\Generated_Source\PSoC5/adc.c **** ********************************************************************************
 631:.\Generated_Source\PSoC5/adc.c **** *
 632:.\Generated_Source\PSoC5/adc.c **** * Summary:
 633:.\Generated_Source\PSoC5/adc.c **** *  Starts ADC conversion using the given mode.
 634:.\Generated_Source\PSoC5/adc.c **** *
 635:.\Generated_Source\PSoC5/adc.c **** * Parameters:  
 636:.\Generated_Source\PSoC5/adc.c **** *  void
 637:.\Generated_Source\PSoC5/adc.c **** *
 638:.\Generated_Source\PSoC5/adc.c **** * Return: 
 639:.\Generated_Source\PSoC5/adc.c **** *  void 
 640:.\Generated_Source\PSoC5/adc.c **** *
 641:.\Generated_Source\PSoC5/adc.c **** *******************************************************************************/
 642:.\Generated_Source\PSoC5/adc.c **** void adc_StartConvert(void) 
 643:.\Generated_Source\PSoC5/adc.c **** {
 1263              		.loc 1 643 0
 1264              		.cfi_startproc
 1265              		@ args = 0, pretend = 0, frame = 0
 1266              		@ frame_needed = 1, uses_anonymous_args = 0
 1267              		@ link register save eliminated.
 1268 0000 80B4     		push	{r7}
 1269              	.LCFI29:
 1270              		.cfi_def_cfa_offset 4
 1271 0002 00AF     		add	r7, sp, #0
 1272              		.cfi_offset 7, -4
 1273              	.LCFI30:
 1274              		.cfi_def_cfa_register 7
 644:.\Generated_Source\PSoC5/adc.c ****     /* Start the conversion */
 645:.\Generated_Source\PSoC5/adc.c ****     adc_DEC_CR_REG |= adc_DEC_START_CONV;  
 1275              		.loc 1 645 0
 1276 0004 44F60063 		movw	r3, #:lower16:1073761792
 1277 0008 C4F20003 		movt	r3, #:upper16:1073761792
 1278 000c 44F60062 		movw	r2, #:lower16:1073761792
 1279 0010 C4F20002 		movt	r2, #:upper16:1073761792
 1280 0014 1278     		ldrb	r2, [r2, #0]
 1281 0016 D2B2     		uxtb	r2, r2
 1282 0018 42F00102 		orr	r2, r2, #1
 1283 001c D2B2     		uxtb	r2, r2
 1284 001e 1A70     		strb	r2, [r3, #0]
 646:.\Generated_Source\PSoC5/adc.c **** }
 1285              		.loc 1 646 0
 1286 0020 BD46     		mov	sp, r7
 1287 0022 80BC     		pop	{r7}
 1288 0024 7047     		bx	lr
ARM GAS  C:\Users\arh\AppData\Local\Temp\ccpMsX4j.s 			page 35


 1289              		.cfi_endproc
 1290              	.LFE12:
 1291              		.size	adc_StartConvert, .-adc_StartConvert
 1292 0026 00BF     		.section	.text.adc_StopConvert,"ax",%progbits
 1293              		.align	2
 1294              		.global	adc_StopConvert
 1295              		.thumb
 1296              		.thumb_func
 1297              		.type	adc_StopConvert, %function
 1298              	adc_StopConvert:
 1299              	.LFB13:
 647:.\Generated_Source\PSoC5/adc.c **** 
 648:.\Generated_Source\PSoC5/adc.c **** 
 649:.\Generated_Source\PSoC5/adc.c **** /*******************************************************************************
 650:.\Generated_Source\PSoC5/adc.c **** * Function Name: adc_StopConvert
 651:.\Generated_Source\PSoC5/adc.c **** ********************************************************************************
 652:.\Generated_Source\PSoC5/adc.c **** *
 653:.\Generated_Source\PSoC5/adc.c **** * Summary:
 654:.\Generated_Source\PSoC5/adc.c **** *  Starts ADC conversion using the given mode.
 655:.\Generated_Source\PSoC5/adc.c **** *
 656:.\Generated_Source\PSoC5/adc.c **** * Parameters:  
 657:.\Generated_Source\PSoC5/adc.c **** *  void
 658:.\Generated_Source\PSoC5/adc.c **** *
 659:.\Generated_Source\PSoC5/adc.c **** * Return: 
 660:.\Generated_Source\PSoC5/adc.c **** *  void
 661:.\Generated_Source\PSoC5/adc.c **** *
 662:.\Generated_Source\PSoC5/adc.c **** * Global variables:
 663:.\Generated_Source\PSoC5/adc.c **** *  adc_convDone:  Modified when conversion is complete for single
 664:.\Generated_Source\PSoC5/adc.c **** *   sample mode with resolution is above 16.
 665:.\Generated_Source\PSoC5/adc.c **** *
 666:.\Generated_Source\PSoC5/adc.c **** *******************************************************************************/
 667:.\Generated_Source\PSoC5/adc.c **** void adc_StopConvert(void) 
 668:.\Generated_Source\PSoC5/adc.c **** {
 1300              		.loc 1 668 0
 1301              		.cfi_startproc
 1302              		@ args = 0, pretend = 0, frame = 0
 1303              		@ frame_needed = 1, uses_anonymous_args = 0
 1304              		@ link register save eliminated.
 1305 0000 80B4     		push	{r7}
 1306              	.LCFI31:
 1307              		.cfi_def_cfa_offset 4
 1308 0002 00AF     		add	r7, sp, #0
 1309              		.cfi_offset 7, -4
 1310              	.LCFI32:
 1311              		.cfi_def_cfa_register 7
 669:.\Generated_Source\PSoC5/adc.c ****     /* Stop all conversions */
 670:.\Generated_Source\PSoC5/adc.c ****     adc_DEC_CR_REG &= ~adc_DEC_START_CONV; 
 1312              		.loc 1 670 0
 1313 0004 44F60063 		movw	r3, #:lower16:1073761792
 1314 0008 C4F20003 		movt	r3, #:upper16:1073761792
 1315 000c 44F60062 		movw	r2, #:lower16:1073761792
 1316 0010 C4F20002 		movt	r2, #:upper16:1073761792
 1317 0014 1278     		ldrb	r2, [r2, #0]
 1318 0016 D2B2     		uxtb	r2, r2
 1319 0018 02F0FE02 		and	r2, r2, #254
 1320 001c 1A70     		strb	r2, [r3, #0]
 671:.\Generated_Source\PSoC5/adc.c ****     
ARM GAS  C:\Users\arh\AppData\Local\Temp\ccpMsX4j.s 			page 36


 672:.\Generated_Source\PSoC5/adc.c ****     /* Software flag for checking conversion complete or not. Will be used when
 673:.\Generated_Source\PSoC5/adc.c ****        resolution is above 16 bits and conversion mode is single sample */
 674:.\Generated_Source\PSoC5/adc.c ****     adc_convDone = 1u;
 1321              		.loc 1 674 0
 1322 001e 40F20003 		movw	r3, #:lower16:adc_convDone
 1323 0022 C0F20003 		movt	r3, #:upper16:adc_convDone
 1324 0026 4FF00102 		mov	r2, #1
 1325 002a 1A70     		strb	r2, [r3, #0]
 675:.\Generated_Source\PSoC5/adc.c **** }
 1326              		.loc 1 675 0
 1327 002c BD46     		mov	sp, r7
 1328 002e 80BC     		pop	{r7}
 1329 0030 7047     		bx	lr
 1330              		.cfi_endproc
 1331              	.LFE13:
 1332              		.size	adc_StopConvert, .-adc_StopConvert
 1333 0032 00BF     		.section	.text.adc_IsEndConversion,"ax",%progbits
 1334              		.align	2
 1335              		.global	adc_IsEndConversion
 1336              		.thumb
 1337              		.thumb_func
 1338              		.type	adc_IsEndConversion, %function
 1339              	adc_IsEndConversion:
 1340              	.LFB14:
 676:.\Generated_Source\PSoC5/adc.c **** 
 677:.\Generated_Source\PSoC5/adc.c **** 
 678:.\Generated_Source\PSoC5/adc.c **** /*******************************************************************************
 679:.\Generated_Source\PSoC5/adc.c **** * Function Name: adc_IsEndConversion
 680:.\Generated_Source\PSoC5/adc.c **** ********************************************************************************
 681:.\Generated_Source\PSoC5/adc.c **** *
 682:.\Generated_Source\PSoC5/adc.c **** * Summary:
 683:.\Generated_Source\PSoC5/adc.c **** *  Queries the ADC to see if conversion is complete
 684:.\Generated_Source\PSoC5/adc.c **** *
 685:.\Generated_Source\PSoC5/adc.c **** * Parameters:  
 686:.\Generated_Source\PSoC5/adc.c **** *  wMode:  Wait mode, 0 if return with answer immediately.
 687:.\Generated_Source\PSoC5/adc.c **** *                     1 if wait until conversion is complete, then return.
 688:.\Generated_Source\PSoC5/adc.c **** *
 689:.\Generated_Source\PSoC5/adc.c **** * Return: 
 690:.\Generated_Source\PSoC5/adc.c **** *  uint8 status:  0 =>  Conversion not complete.
 691:.\Generated_Source\PSoC5/adc.c **** *                 1 =>  Conversion complete.
 692:.\Generated_Source\PSoC5/adc.c **** *
 693:.\Generated_Source\PSoC5/adc.c **** * Global variables:
 694:.\Generated_Source\PSoC5/adc.c **** *  adc_convDone:  Used to check whether conversion is complete
 695:.\Generated_Source\PSoC5/adc.c **** *  or not for single sample mode with resolution is above 16
 696:.\Generated_Source\PSoC5/adc.c **** *
 697:.\Generated_Source\PSoC5/adc.c **** *******************************************************************************/
 698:.\Generated_Source\PSoC5/adc.c **** uint8 adc_IsEndConversion(uint8 wMode) 
 699:.\Generated_Source\PSoC5/adc.c **** {
 1341              		.loc 1 699 0
 1342              		.cfi_startproc
 1343              		@ args = 0, pretend = 0, frame = 16
 1344              		@ frame_needed = 1, uses_anonymous_args = 0
 1345              		@ link register save eliminated.
 1346 0000 80B4     		push	{r7}
 1347              	.LCFI33:
 1348              		.cfi_def_cfa_offset 4
 1349 0002 85B0     		sub	sp, sp, #20
ARM GAS  C:\Users\arh\AppData\Local\Temp\ccpMsX4j.s 			page 37


 1350              	.LCFI34:
 1351              		.cfi_def_cfa_offset 24
 1352 0004 00AF     		add	r7, sp, #0
 1353              		.cfi_offset 7, -4
 1354              	.LCFI35:
 1355              		.cfi_def_cfa_register 7
 1356 0006 0346     		mov	r3, r0
 1357 0008 FB71     		strb	r3, [r7, #7]
 700:.\Generated_Source\PSoC5/adc.c ****     uint8 status;
 701:.\Generated_Source\PSoC5/adc.c ****         
 702:.\Generated_Source\PSoC5/adc.c ****     /* Check for stop convert if conversion mode is Single Sample with 
 703:.\Generated_Source\PSoC5/adc.c ****        resolution above 16 bit */
 704:.\Generated_Source\PSoC5/adc.c ****     if(adc_stopConversion == 1u)
 1358              		.loc 1 704 0
 1359 000a 40F20003 		movw	r3, #:lower16:adc_stopConversion
 1360 000e C0F20003 		movt	r3, #:upper16:adc_stopConversion
 1361 0012 1B78     		ldrb	r3, [r3, #0]
 1362 0014 DBB2     		uxtb	r3, r3
 1363 0016 012B     		cmp	r3, #1
 1364 0018 0CD1     		bne	.L51
 1365              	.L53:
 705:.\Generated_Source\PSoC5/adc.c ****     {
 706:.\Generated_Source\PSoC5/adc.c ****         do
 707:.\Generated_Source\PSoC5/adc.c ****         {
 708:.\Generated_Source\PSoC5/adc.c ****             status = adc_convDone;
 1366              		.loc 1 708 0
 1367 001a 40F20003 		movw	r3, #:lower16:adc_convDone
 1368 001e C0F20003 		movt	r3, #:upper16:adc_convDone
 1369 0022 1B78     		ldrb	r3, [r3, #0]
 1370 0024 FB73     		strb	r3, [r7, #15]
 709:.\Generated_Source\PSoC5/adc.c ****         } while((status != adc_DEC_CONV_DONE) && (wMode == adc_WAIT_FOR_RESULT));
 1371              		.loc 1 709 0
 1372 0026 FB7B     		ldrb	r3, [r7, #15]	@ zero_extendqisi2
 1373 0028 012B     		cmp	r3, #1
 1374 002a 12D0     		beq	.L54
 1375 002c FB79     		ldrb	r3, [r7, #7]	@ zero_extendqisi2
 1376 002e 002B     		cmp	r3, #0
 1377 0030 F3D0     		beq	.L53
 1378 0032 0EE0     		b	.L54
 1379              	.L51:
 710:.\Generated_Source\PSoC5/adc.c ****     }
 711:.\Generated_Source\PSoC5/adc.c ****     else
 712:.\Generated_Source\PSoC5/adc.c ****     {
 713:.\Generated_Source\PSoC5/adc.c ****         do 
 714:.\Generated_Source\PSoC5/adc.c ****         {
 715:.\Generated_Source\PSoC5/adc.c ****             status = adc_DEC_SR_REG & adc_DEC_CONV_DONE;
 1380              		.loc 1 715 0
 1381 0034 44F60163 		movw	r3, #:lower16:1073761793
 1382 0038 C4F20003 		movt	r3, #:upper16:1073761793
 1383 003c 1B78     		ldrb	r3, [r3, #0]
 1384 003e DBB2     		uxtb	r3, r3
 1385 0040 03F00103 		and	r3, r3, #1
 1386 0044 FB73     		strb	r3, [r7, #15]
 716:.\Generated_Source\PSoC5/adc.c ****         } while((status != adc_DEC_CONV_DONE) && (wMode == adc_WAIT_FOR_RESULT));
 1387              		.loc 1 716 0
 1388 0046 FB7B     		ldrb	r3, [r7, #15]	@ zero_extendqisi2
 1389 0048 012B     		cmp	r3, #1
ARM GAS  C:\Users\arh\AppData\Local\Temp\ccpMsX4j.s 			page 38


 1390 004a 02D0     		beq	.L54
 1391 004c FB79     		ldrb	r3, [r7, #7]	@ zero_extendqisi2
 1392 004e 002B     		cmp	r3, #0
 1393 0050 F0D0     		beq	.L51
 1394              	.L54:
 717:.\Generated_Source\PSoC5/adc.c ****     }
 718:.\Generated_Source\PSoC5/adc.c ****     return(status);
 1395              		.loc 1 718 0
 1396 0052 FB7B     		ldrb	r3, [r7, #15]	@ zero_extendqisi2
 719:.\Generated_Source\PSoC5/adc.c **** }
 1397              		.loc 1 719 0
 1398 0054 1846     		mov	r0, r3
 1399 0056 07F11407 		add	r7, r7, #20
 1400 005a BD46     		mov	sp, r7
 1401 005c 80BC     		pop	{r7}
 1402 005e 7047     		bx	lr
 1403              		.cfi_endproc
 1404              	.LFE14:
 1405              		.size	adc_IsEndConversion, .-adc_IsEndConversion
 1406              		.section	.text.adc_GetResult8,"ax",%progbits
 1407              		.align	2
 1408              		.global	adc_GetResult8
 1409              		.thumb
 1410              		.thumb_func
 1411              		.type	adc_GetResult8, %function
 1412              	adc_GetResult8:
 1413              	.LFB15:
 720:.\Generated_Source\PSoC5/adc.c **** 
 721:.\Generated_Source\PSoC5/adc.c **** 
 722:.\Generated_Source\PSoC5/adc.c **** /*******************************************************************************
 723:.\Generated_Source\PSoC5/adc.c **** * Function Name: adc_GetResult8
 724:.\Generated_Source\PSoC5/adc.c **** ********************************************************************************
 725:.\Generated_Source\PSoC5/adc.c **** *
 726:.\Generated_Source\PSoC5/adc.c **** * Summary:
 727:.\Generated_Source\PSoC5/adc.c **** *  Returns an 8-bit result or the LSB of the last conversion.
 728:.\Generated_Source\PSoC5/adc.c **** *
 729:.\Generated_Source\PSoC5/adc.c **** * Parameters:  
 730:.\Generated_Source\PSoC5/adc.c **** *  void
 731:.\Generated_Source\PSoC5/adc.c **** *
 732:.\Generated_Source\PSoC5/adc.c **** * Return: 
 733:.\Generated_Source\PSoC5/adc.c **** *  int8:  ADC result.
 734:.\Generated_Source\PSoC5/adc.c **** *
 735:.\Generated_Source\PSoC5/adc.c **** *******************************************************************************/
 736:.\Generated_Source\PSoC5/adc.c **** int8 adc_GetResult8( void ) 
 737:.\Generated_Source\PSoC5/adc.c **** {
 1414              		.loc 1 737 0
 1415              		.cfi_startproc
 1416              		@ args = 0, pretend = 0, frame = 0
 1417              		@ frame_needed = 1, uses_anonymous_args = 0
 1418              		@ link register save eliminated.
 1419 0000 80B4     		push	{r7}
 1420              	.LCFI36:
 1421              		.cfi_def_cfa_offset 4
 1422 0002 00AF     		add	r7, sp, #0
 1423              		.cfi_offset 7, -4
 1424              	.LCFI37:
 1425              		.cfi_def_cfa_register 7
ARM GAS  C:\Users\arh\AppData\Local\Temp\ccpMsX4j.s 			page 39


 738:.\Generated_Source\PSoC5/adc.c ****      return( adc_DEC_SAMP_REG );
 1426              		.loc 1 738 0
 1427 0004 44F61063 		movw	r3, #:lower16:1073761808
 1428 0008 C4F20003 		movt	r3, #:upper16:1073761808
 1429 000c 1B78     		ldrb	r3, [r3, #0]
 1430 000e DBB2     		uxtb	r3, r3
 1431 0010 5BB2     		sxtb	r3, r3
 739:.\Generated_Source\PSoC5/adc.c **** }
 1432              		.loc 1 739 0
 1433 0012 1846     		mov	r0, r3
 1434 0014 BD46     		mov	sp, r7
 1435 0016 80BC     		pop	{r7}
 1436 0018 7047     		bx	lr
 1437              		.cfi_endproc
 1438              	.LFE15:
 1439              		.size	adc_GetResult8, .-adc_GetResult8
 1440 001a 00BF     		.section	.text.adc_GetResult16,"ax",%progbits
 1441              		.align	2
 1442              		.global	adc_GetResult16
 1443              		.thumb
 1444              		.thumb_func
 1445              		.type	adc_GetResult16, %function
 1446              	adc_GetResult16:
 1447              	.LFB16:
 740:.\Generated_Source\PSoC5/adc.c **** 
 741:.\Generated_Source\PSoC5/adc.c **** 
 742:.\Generated_Source\PSoC5/adc.c **** /*******************************************************************************
 743:.\Generated_Source\PSoC5/adc.c **** * Function Name: adc_GetResult16
 744:.\Generated_Source\PSoC5/adc.c **** ********************************************************************************
 745:.\Generated_Source\PSoC5/adc.c **** *
 746:.\Generated_Source\PSoC5/adc.c **** * Summary:
 747:.\Generated_Source\PSoC5/adc.c **** *  Returns a 16-bit result from the last ADC conversion.
 748:.\Generated_Source\PSoC5/adc.c **** *
 749:.\Generated_Source\PSoC5/adc.c **** * Parameters:  
 750:.\Generated_Source\PSoC5/adc.c **** *   void
 751:.\Generated_Source\PSoC5/adc.c **** *
 752:.\Generated_Source\PSoC5/adc.c **** * Return: 
 753:.\Generated_Source\PSoC5/adc.c **** *  int16:  ADC result.
 754:.\Generated_Source\PSoC5/adc.c **** *
 755:.\Generated_Source\PSoC5/adc.c **** *******************************************************************************/
 756:.\Generated_Source\PSoC5/adc.c **** int16 adc_GetResult16(void) 
 757:.\Generated_Source\PSoC5/adc.c **** {
 1448              		.loc 1 757 0
 1449              		.cfi_startproc
 1450              		@ args = 0, pretend = 0, frame = 8
 1451              		@ frame_needed = 1, uses_anonymous_args = 0
 1452              		@ link register save eliminated.
 1453 0000 80B4     		push	{r7}
 1454              	.LCFI38:
 1455              		.cfi_def_cfa_offset 4
 1456 0002 83B0     		sub	sp, sp, #12
 1457              	.LCFI39:
 1458              		.cfi_def_cfa_offset 16
 1459 0004 00AF     		add	r7, sp, #0
 1460              		.cfi_offset 7, -4
 1461              	.LCFI40:
 1462              		.cfi_def_cfa_register 7
ARM GAS  C:\Users\arh\AppData\Local\Temp\ccpMsX4j.s 			page 40


 758:.\Generated_Source\PSoC5/adc.c ****     uint16 result;
 759:.\Generated_Source\PSoC5/adc.c ****     
 760:.\Generated_Source\PSoC5/adc.c ****     #if (CY_PSOC3)
 761:.\Generated_Source\PSoC5/adc.c ****         result = adc_DEC_SAMPM_REG ;
 762:.\Generated_Source\PSoC5/adc.c ****         result = (result << 8 ) | adc_DEC_SAMP_REG;
 763:.\Generated_Source\PSoC5/adc.c ****     #else
 764:.\Generated_Source\PSoC5/adc.c ****         result = (CY_GET_REG16(adc_DEC_SAMP_PTR));
 1463              		.loc 1 764 0
 1464 0006 44F61063 		movw	r3, #:lower16:1073761808
 1465 000a C4F20003 		movt	r3, #:upper16:1073761808
 1466 000e 1B88     		ldrh	r3, [r3, #0]	@ movhi
 1467 0010 FB80     		strh	r3, [r7, #6]	@ movhi
 765:.\Generated_Source\PSoC5/adc.c ****     #endif /* CY_PSOC3 */
 766:.\Generated_Source\PSoC5/adc.c ****     
 767:.\Generated_Source\PSoC5/adc.c ****     return result;
 1468              		.loc 1 767 0
 1469 0012 FB88     		ldrh	r3, [r7, #6]
 1470 0014 1BB2     		sxth	r3, r3
 768:.\Generated_Source\PSoC5/adc.c **** }
 1471              		.loc 1 768 0
 1472 0016 1846     		mov	r0, r3
 1473 0018 07F10C07 		add	r7, r7, #12
 1474 001c BD46     		mov	sp, r7
 1475 001e 80BC     		pop	{r7}
 1476 0020 7047     		bx	lr
 1477              		.cfi_endproc
 1478              	.LFE16:
 1479              		.size	adc_GetResult16, .-adc_GetResult16
 1480 0022 00BF     		.section	.text.adc_GetResult32,"ax",%progbits
 1481              		.align	2
 1482              		.global	adc_GetResult32
 1483              		.thumb
 1484              		.thumb_func
 1485              		.type	adc_GetResult32, %function
 1486              	adc_GetResult32:
 1487              	.LFB17:
 769:.\Generated_Source\PSoC5/adc.c **** 
 770:.\Generated_Source\PSoC5/adc.c **** 
 771:.\Generated_Source\PSoC5/adc.c **** /*******************************************************************************
 772:.\Generated_Source\PSoC5/adc.c **** * Function Name: adc_GetResult32
 773:.\Generated_Source\PSoC5/adc.c **** ********************************************************************************
 774:.\Generated_Source\PSoC5/adc.c **** *
 775:.\Generated_Source\PSoC5/adc.c **** * Summary:
 776:.\Generated_Source\PSoC5/adc.c **** *  Returns an 32-bit result from ADC
 777:.\Generated_Source\PSoC5/adc.c **** *
 778:.\Generated_Source\PSoC5/adc.c **** * Parameters:  
 779:.\Generated_Source\PSoC5/adc.c **** *  void
 780:.\Generated_Source\PSoC5/adc.c **** *
 781:.\Generated_Source\PSoC5/adc.c **** * Return: 
 782:.\Generated_Source\PSoC5/adc.c **** *  int32:  ADC result.
 783:.\Generated_Source\PSoC5/adc.c **** *
 784:.\Generated_Source\PSoC5/adc.c **** *******************************************************************************/
 785:.\Generated_Source\PSoC5/adc.c **** int32 adc_GetResult32(void) 
 786:.\Generated_Source\PSoC5/adc.c **** {
 1488              		.loc 1 786 0
 1489              		.cfi_startproc
 1490              		@ args = 0, pretend = 0, frame = 8
ARM GAS  C:\Users\arh\AppData\Local\Temp\ccpMsX4j.s 			page 41


 1491              		@ frame_needed = 1, uses_anonymous_args = 0
 1492              		@ link register save eliminated.
 1493 0000 80B4     		push	{r7}
 1494              	.LCFI41:
 1495              		.cfi_def_cfa_offset 4
 1496 0002 83B0     		sub	sp, sp, #12
 1497              	.LCFI42:
 1498              		.cfi_def_cfa_offset 16
 1499 0004 00AF     		add	r7, sp, #0
 1500              		.cfi_offset 7, -4
 1501              	.LCFI43:
 1502              		.cfi_def_cfa_register 7
 787:.\Generated_Source\PSoC5/adc.c ****     uint32 result;
 788:.\Generated_Source\PSoC5/adc.c **** 
 789:.\Generated_Source\PSoC5/adc.c ****     #if (CY_PSOC3)
 790:.\Generated_Source\PSoC5/adc.c ****         /* to make upper bits fo result to 0 */
 791:.\Generated_Source\PSoC5/adc.c ****         result = (int8) (0xff & adc_DEC_SAMPH_REG); 
 792:.\Generated_Source\PSoC5/adc.c ****         result = (result << 8) | adc_DEC_SAMPM_REG;
 793:.\Generated_Source\PSoC5/adc.c ****         result = (result << 8) | adc_DEC_SAMP_REG;
 794:.\Generated_Source\PSoC5/adc.c ****     #else
 795:.\Generated_Source\PSoC5/adc.c ****         result = CY_GET_REG16(adc_DEC_SAMPH_PTR);
 1503              		.loc 1 795 0
 1504 0006 44F61263 		movw	r3, #:lower16:1073761810
 1505 000a C4F20003 		movt	r3, #:upper16:1073761810
 1506 000e 1B88     		ldrh	r3, [r3, #0]	@ movhi
 1507 0010 9BB2     		uxth	r3, r3
 1508 0012 7B60     		str	r3, [r7, #4]
 796:.\Generated_Source\PSoC5/adc.c ****         result = (result << 16) | (CY_GET_REG16(adc_DEC_SAMP_PTR));
 1509              		.loc 1 796 0
 1510 0014 7B68     		ldr	r3, [r7, #4]
 1511 0016 4FEA0342 		lsl	r2, r3, #16
 1512 001a 44F61063 		movw	r3, #:lower16:1073761808
 1513 001e C4F20003 		movt	r3, #:upper16:1073761808
 1514 0022 1B88     		ldrh	r3, [r3, #0]	@ movhi
 1515 0024 9BB2     		uxth	r3, r3
 1516 0026 42EA0303 		orr	r3, r2, r3
 1517 002a 7B60     		str	r3, [r7, #4]
 797:.\Generated_Source\PSoC5/adc.c ****     #endif /* CY_PSOC3 */
 798:.\Generated_Source\PSoC5/adc.c ****     
 799:.\Generated_Source\PSoC5/adc.c ****     return result;
 1518              		.loc 1 799 0
 1519 002c 7B68     		ldr	r3, [r7, #4]
 800:.\Generated_Source\PSoC5/adc.c **** }
 1520              		.loc 1 800 0
 1521 002e 1846     		mov	r0, r3
 1522 0030 07F10C07 		add	r7, r7, #12
 1523 0034 BD46     		mov	sp, r7
 1524 0036 80BC     		pop	{r7}
 1525 0038 7047     		bx	lr
 1526              		.cfi_endproc
 1527              	.LFE17:
 1528              		.size	adc_GetResult32, .-adc_GetResult32
 1529 003a 00BF     		.section	.text.adc_SetOffset,"ax",%progbits
 1530              		.align	2
 1531              		.global	adc_SetOffset
 1532              		.thumb
 1533              		.thumb_func
ARM GAS  C:\Users\arh\AppData\Local\Temp\ccpMsX4j.s 			page 42


 1534              		.type	adc_SetOffset, %function
 1535              	adc_SetOffset:
 1536              	.LFB18:
 801:.\Generated_Source\PSoC5/adc.c **** 
 802:.\Generated_Source\PSoC5/adc.c **** 
 803:.\Generated_Source\PSoC5/adc.c **** /*******************************************************************************
 804:.\Generated_Source\PSoC5/adc.c **** * Function Name: adc_SetOffset
 805:.\Generated_Source\PSoC5/adc.c **** ********************************************************************************
 806:.\Generated_Source\PSoC5/adc.c **** *
 807:.\Generated_Source\PSoC5/adc.c **** * Summary:
 808:.\Generated_Source\PSoC5/adc.c **** *  This function sets the offset for voltage readings.
 809:.\Generated_Source\PSoC5/adc.c **** *
 810:.\Generated_Source\PSoC5/adc.c **** * Parameters:  
 811:.\Generated_Source\PSoC5/adc.c **** *  int32:  offset  Offset in counts
 812:.\Generated_Source\PSoC5/adc.c **** *
 813:.\Generated_Source\PSoC5/adc.c **** * Return: 
 814:.\Generated_Source\PSoC5/adc.c **** *  void
 815:.\Generated_Source\PSoC5/adc.c **** *
 816:.\Generated_Source\PSoC5/adc.c **** * Global variables:
 817:.\Generated_Source\PSoC5/adc.c **** *  adc_Offset:  Modified to set the user provided offset. This 
 818:.\Generated_Source\PSoC5/adc.c **** *  variable is used for offset calibration purpose.
 819:.\Generated_Source\PSoC5/adc.c **** *  Affects the adc_CountsTo_Volts, 
 820:.\Generated_Source\PSoC5/adc.c **** *  adc_CountsTo_mVolts, adc_CountsTo_uVolts functions 
 821:.\Generated_Source\PSoC5/adc.c **** *  by subtracting the given offset. 
 822:.\Generated_Source\PSoC5/adc.c **** *
 823:.\Generated_Source\PSoC5/adc.c **** *******************************************************************************/
 824:.\Generated_Source\PSoC5/adc.c **** void adc_SetOffset(int32 offset) 
 825:.\Generated_Source\PSoC5/adc.c **** {
 1537              		.loc 1 825 0
 1538              		.cfi_startproc
 1539              		@ args = 0, pretend = 0, frame = 8
 1540              		@ frame_needed = 1, uses_anonymous_args = 0
 1541              		@ link register save eliminated.
 1542 0000 80B4     		push	{r7}
 1543              	.LCFI44:
 1544              		.cfi_def_cfa_offset 4
 1545 0002 83B0     		sub	sp, sp, #12
 1546              	.LCFI45:
 1547              		.cfi_def_cfa_offset 16
 1548 0004 00AF     		add	r7, sp, #0
 1549              		.cfi_offset 7, -4
 1550              	.LCFI46:
 1551              		.cfi_def_cfa_register 7
 1552 0006 7860     		str	r0, [r7, #4]
 826:.\Generated_Source\PSoC5/adc.c ****  
 827:.\Generated_Source\PSoC5/adc.c ****     adc_Offset = offset;
 1553              		.loc 1 827 0
 1554 0008 40F20003 		movw	r3, #:lower16:adc_Offset
 1555 000c C0F20003 		movt	r3, #:upper16:adc_Offset
 1556 0010 7A68     		ldr	r2, [r7, #4]
 1557 0012 1A60     		str	r2, [r3, #0]
 828:.\Generated_Source\PSoC5/adc.c **** }
 1558              		.loc 1 828 0
 1559 0014 07F10C07 		add	r7, r7, #12
 1560 0018 BD46     		mov	sp, r7
 1561 001a 80BC     		pop	{r7}
 1562 001c 7047     		bx	lr
ARM GAS  C:\Users\arh\AppData\Local\Temp\ccpMsX4j.s 			page 43


 1563              		.cfi_endproc
 1564              	.LFE18:
 1565              		.size	adc_SetOffset, .-adc_SetOffset
 1566 001e 00BF     		.section	.text.adc_SetGain,"ax",%progbits
 1567              		.align	2
 1568              		.global	adc_SetGain
 1569              		.thumb
 1570              		.thumb_func
 1571              		.type	adc_SetGain, %function
 1572              	adc_SetGain:
 1573              	.LFB19:
 829:.\Generated_Source\PSoC5/adc.c **** 
 830:.\Generated_Source\PSoC5/adc.c **** 
 831:.\Generated_Source\PSoC5/adc.c **** /*******************************************************************************
 832:.\Generated_Source\PSoC5/adc.c **** * Function Name: adc_SetGain
 833:.\Generated_Source\PSoC5/adc.c **** ********************************************************************************
 834:.\Generated_Source\PSoC5/adc.c **** *
 835:.\Generated_Source\PSoC5/adc.c **** * Summary:
 836:.\Generated_Source\PSoC5/adc.c **** *  This function sets the ADC gain in counts per volt.
 837:.\Generated_Source\PSoC5/adc.c **** *
 838:.\Generated_Source\PSoC5/adc.c **** * Parameters:  
 839:.\Generated_Source\PSoC5/adc.c **** *  int32:  offset  Offset in counts
 840:.\Generated_Source\PSoC5/adc.c **** *
 841:.\Generated_Source\PSoC5/adc.c **** * Return: 
 842:.\Generated_Source\PSoC5/adc.c **** *  void 
 843:.\Generated_Source\PSoC5/adc.c **** *
 844:.\Generated_Source\PSoC5/adc.c **** * Global variables:
 845:.\Generated_Source\PSoC5/adc.c **** *  adc_CountsPerVolt:  modified to set the ADC gain in counts 
 846:.\Generated_Source\PSoC5/adc.c **** *   per volt.
 847:.\Generated_Source\PSoC5/adc.c **** *
 848:.\Generated_Source\PSoC5/adc.c **** *******************************************************************************/
 849:.\Generated_Source\PSoC5/adc.c **** void adc_SetGain(int32 adcGain) 
 850:.\Generated_Source\PSoC5/adc.c **** {
 1574              		.loc 1 850 0
 1575              		.cfi_startproc
 1576              		@ args = 0, pretend = 0, frame = 8
 1577              		@ frame_needed = 1, uses_anonymous_args = 0
 1578              		@ link register save eliminated.
 1579 0000 80B4     		push	{r7}
 1580              	.LCFI47:
 1581              		.cfi_def_cfa_offset 4
 1582 0002 83B0     		sub	sp, sp, #12
 1583              	.LCFI48:
 1584              		.cfi_def_cfa_offset 16
 1585 0004 00AF     		add	r7, sp, #0
 1586              		.cfi_offset 7, -4
 1587              	.LCFI49:
 1588              		.cfi_def_cfa_register 7
 1589 0006 7860     		str	r0, [r7, #4]
 851:.\Generated_Source\PSoC5/adc.c ****  
 852:.\Generated_Source\PSoC5/adc.c ****     adc_CountsPerVolt = adcGain;
 1590              		.loc 1 852 0
 1591 0008 40F20003 		movw	r3, #:lower16:adc_CountsPerVolt
 1592 000c C0F20003 		movt	r3, #:upper16:adc_CountsPerVolt
 1593 0010 7A68     		ldr	r2, [r7, #4]
 1594 0012 1A60     		str	r2, [r3, #0]
 853:.\Generated_Source\PSoC5/adc.c **** }
ARM GAS  C:\Users\arh\AppData\Local\Temp\ccpMsX4j.s 			page 44


 1595              		.loc 1 853 0
 1596 0014 07F10C07 		add	r7, r7, #12
 1597 0018 BD46     		mov	sp, r7
 1598 001a 80BC     		pop	{r7}
 1599 001c 7047     		bx	lr
 1600              		.cfi_endproc
 1601              	.LFE19:
 1602              		.size	adc_SetGain, .-adc_SetGain
 1603 001e 00BF     		.section	.text.adc_CountsTo_mVolts,"ax",%progbits
 1604              		.align	2
 1605              		.global	adc_CountsTo_mVolts
 1606              		.thumb
 1607              		.thumb_func
 1608              		.type	adc_CountsTo_mVolts, %function
 1609              	adc_CountsTo_mVolts:
 1610              	.LFB20:
 854:.\Generated_Source\PSoC5/adc.c **** 
 855:.\Generated_Source\PSoC5/adc.c **** 
 856:.\Generated_Source\PSoC5/adc.c **** /*******************************************************************************
 857:.\Generated_Source\PSoC5/adc.c **** * Function Name: adc_CountsTo_mVolts
 858:.\Generated_Source\PSoC5/adc.c **** ********************************************************************************
 859:.\Generated_Source\PSoC5/adc.c **** *
 860:.\Generated_Source\PSoC5/adc.c **** * Summary:
 861:.\Generated_Source\PSoC5/adc.c **** *  This function converts ADC counts to mVolts.
 862:.\Generated_Source\PSoC5/adc.c **** *
 863:.\Generated_Source\PSoC5/adc.c **** * Parameters:  
 864:.\Generated_Source\PSoC5/adc.c **** *  int32:  adcCounts   Reading from ADC.
 865:.\Generated_Source\PSoC5/adc.c **** *
 866:.\Generated_Source\PSoC5/adc.c **** * Return: 
 867:.\Generated_Source\PSoC5/adc.c **** *  int32:  Result in mVolts
 868:.\Generated_Source\PSoC5/adc.c **** *
 869:.\Generated_Source\PSoC5/adc.c **** * Global variables:
 870:.\Generated_Source\PSoC5/adc.c **** *  adc_CountsPerVolt:  used to convert ADC counts to mVolts.
 871:.\Generated_Source\PSoC5/adc.c **** *  adc_Offset:  Used as the offset while converting ADC counts 
 872:.\Generated_Source\PSoC5/adc.c **** *   to mVolts.
 873:.\Generated_Source\PSoC5/adc.c **** *
 874:.\Generated_Source\PSoC5/adc.c **** *******************************************************************************/
 875:.\Generated_Source\PSoC5/adc.c **** int16 adc_CountsTo_mVolts( int32 adcCounts) 
 876:.\Generated_Source\PSoC5/adc.c **** {
 1611              		.loc 1 876 0
 1612              		.cfi_startproc
 1613              		@ args = 0, pretend = 0, frame = 24
 1614              		@ frame_needed = 1, uses_anonymous_args = 0
 1615              		@ link register save eliminated.
 1616 0000 80B4     		push	{r7}
 1617              	.LCFI50:
 1618              		.cfi_def_cfa_offset 4
 1619 0002 87B0     		sub	sp, sp, #28
 1620              	.LCFI51:
 1621              		.cfi_def_cfa_offset 32
 1622 0004 00AF     		add	r7, sp, #0
 1623              		.cfi_offset 7, -4
 1624              	.LCFI52:
 1625              		.cfi_def_cfa_register 7
 1626 0006 7860     		str	r0, [r7, #4]
 877:.\Generated_Source\PSoC5/adc.c **** 
 878:.\Generated_Source\PSoC5/adc.c ****     int32 mVolts = 0;
ARM GAS  C:\Users\arh\AppData\Local\Temp\ccpMsX4j.s 			page 45


 1627              		.loc 1 878 0
 1628 0008 4FF00003 		mov	r3, #0
 1629 000c BB60     		str	r3, [r7, #8]
 879:.\Generated_Source\PSoC5/adc.c ****     int32 A, B;
 880:.\Generated_Source\PSoC5/adc.c **** 	uint8 resolution = 16;
 1630              		.loc 1 880 0
 1631 000e 4FF01003 		mov	r3, #16
 1632 0012 FB75     		strb	r3, [r7, #23]
 881:.\Generated_Source\PSoC5/adc.c **** 
 882:.\Generated_Source\PSoC5/adc.c ****     /* Subtract ADC offset */
 883:.\Generated_Source\PSoC5/adc.c ****     adcCounts -= adc_Offset;
 1633              		.loc 1 883 0
 1634 0014 40F20003 		movw	r3, #:lower16:adc_Offset
 1635 0018 C0F20003 		movt	r3, #:upper16:adc_Offset
 1636 001c 1B68     		ldr	r3, [r3, #0]
 1637 001e 7A68     		ldr	r2, [r7, #4]
 1638 0020 C3EB0203 		rsb	r3, r3, r2
 1639 0024 7B60     		str	r3, [r7, #4]
 884:.\Generated_Source\PSoC5/adc.c **** 	
 885:.\Generated_Source\PSoC5/adc.c **** 	/* Set the resolution based on the configuration */
 886:.\Generated_Source\PSoC5/adc.c **** 	if (adc_Config == adc_CFG1)
 1640              		.loc 1 886 0
 1641 0026 40F20003 		movw	r3, #:lower16:adc_Config
 1642 002a C0F20003 		movt	r3, #:upper16:adc_Config
 1643 002e 1B78     		ldrb	r3, [r3, #0]
 1644 0030 DBB2     		uxtb	r3, r3
 1645 0032 012B     		cmp	r3, #1
 1646 0034 03D1     		bne	.L67
 887:.\Generated_Source\PSoC5/adc.c **** 	{
 888:.\Generated_Source\PSoC5/adc.c ****         resolution = adc_CFG1_RESOLUTION;
 1647              		.loc 1 888 0
 1648 0036 4FF01003 		mov	r3, #16
 1649 003a FB75     		strb	r3, [r7, #23]
 1650 003c 1AE0     		b	.L68
 1651              	.L67:
 889:.\Generated_Source\PSoC5/adc.c **** 	}	
 890:.\Generated_Source\PSoC5/adc.c **** 	else if (adc_Config == adc_CFG2)
 1652              		.loc 1 890 0
 1653 003e 40F20003 		movw	r3, #:lower16:adc_Config
 1654 0042 C0F20003 		movt	r3, #:upper16:adc_Config
 1655 0046 1B78     		ldrb	r3, [r3, #0]
 1656 0048 DBB2     		uxtb	r3, r3
 1657 004a 022B     		cmp	r3, #2
 1658 004c 03D1     		bne	.L69
 891:.\Generated_Source\PSoC5/adc.c **** 	{
 892:.\Generated_Source\PSoC5/adc.c **** 	    resolution = adc_CFG2_RESOLUTION;
 1659              		.loc 1 892 0
 1660 004e 4FF01003 		mov	r3, #16
 1661 0052 FB75     		strb	r3, [r7, #23]
 1662 0054 0EE0     		b	.L68
 1663              	.L69:
 893:.\Generated_Source\PSoC5/adc.c **** 	}
 894:.\Generated_Source\PSoC5/adc.c **** 	else if (adc_Config == adc_CFG3)
 1664              		.loc 1 894 0
 1665 0056 40F20003 		movw	r3, #:lower16:adc_Config
 1666 005a C0F20003 		movt	r3, #:upper16:adc_Config
 1667 005e 1B78     		ldrb	r3, [r3, #0]
ARM GAS  C:\Users\arh\AppData\Local\Temp\ccpMsX4j.s 			page 46


 1668 0060 DBB2     		uxtb	r3, r3
 1669 0062 032B     		cmp	r3, #3
 1670 0064 03D1     		bne	.L70
 895:.\Generated_Source\PSoC5/adc.c **** 	{
 896:.\Generated_Source\PSoC5/adc.c **** 	    resolution = adc_CFG3_RESOLUTION;
 1671              		.loc 1 896 0
 1672 0066 4FF01003 		mov	r3, #16
 1673 006a FB75     		strb	r3, [r7, #23]
 1674 006c 02E0     		b	.L68
 1675              	.L70:
 897:.\Generated_Source\PSoC5/adc.c **** 	}
 898:.\Generated_Source\PSoC5/adc.c **** 	else
 899:.\Generated_Source\PSoC5/adc.c **** 	{
 900:.\Generated_Source\PSoC5/adc.c **** 	    resolution = adc_CFG4_RESOLUTION;
 1676              		.loc 1 900 0
 1677 006e 4FF01003 		mov	r3, #16
 1678 0072 FB75     		strb	r3, [r7, #23]
 1679              	.L68:
 901:.\Generated_Source\PSoC5/adc.c **** 	}
 902:.\Generated_Source\PSoC5/adc.c **** 	
 903:.\Generated_Source\PSoC5/adc.c ****     if(resolution < 17)
 1680              		.loc 1 903 0
 1681 0074 FB7D     		ldrb	r3, [r7, #23]	@ zero_extendqisi2
 1682 0076 102B     		cmp	r3, #16
 1683 0078 06D8     		bhi	.L71
 904:.\Generated_Source\PSoC5/adc.c ****     {
 905:.\Generated_Source\PSoC5/adc.c ****         A = 1000;
 1684              		.loc 1 905 0
 1685 007a 4FF47A73 		mov	r3, #1000
 1686 007e FB60     		str	r3, [r7, #12]
 906:.\Generated_Source\PSoC5/adc.c ****         B = 1;
 1687              		.loc 1 906 0
 1688 0080 4FF00103 		mov	r3, #1
 1689 0084 3B61     		str	r3, [r7, #16]
 1690 0086 05E0     		b	.L72
 1691              	.L71:
 907:.\Generated_Source\PSoC5/adc.c ****     }
 908:.\Generated_Source\PSoC5/adc.c ****     else
 909:.\Generated_Source\PSoC5/adc.c ****     {
 910:.\Generated_Source\PSoC5/adc.c ****         A = 100;
 1692              		.loc 1 910 0
 1693 0088 4FF06403 		mov	r3, #100
 1694 008c FB60     		str	r3, [r7, #12]
 911:.\Generated_Source\PSoC5/adc.c ****         B = 10;
 1695              		.loc 1 911 0
 1696 008e 4FF00A03 		mov	r3, #10
 1697 0092 3B61     		str	r3, [r7, #16]
 1698              	.L72:
 912:.\Generated_Source\PSoC5/adc.c ****     }
 913:.\Generated_Source\PSoC5/adc.c **** 
 914:.\Generated_Source\PSoC5/adc.c ****     mVolts = ((A * adcCounts) / ((int32)adc_CountsPerVolt/B)) ;   
 1699              		.loc 1 914 0
 1700 0094 FB68     		ldr	r3, [r7, #12]
 1701 0096 7A68     		ldr	r2, [r7, #4]
 1702 0098 02FB03F2 		mul	r2, r2, r3
 1703 009c 40F20003 		movw	r3, #:lower16:adc_CountsPerVolt
 1704 00a0 C0F20003 		movt	r3, #:upper16:adc_CountsPerVolt
ARM GAS  C:\Users\arh\AppData\Local\Temp\ccpMsX4j.s 			page 47


 1705 00a4 1968     		ldr	r1, [r3, #0]
 1706 00a6 3B69     		ldr	r3, [r7, #16]
 1707 00a8 91FBF3F3 		sdiv	r3, r1, r3
 1708 00ac 92FBF3F3 		sdiv	r3, r2, r3
 1709 00b0 BB60     		str	r3, [r7, #8]
 915:.\Generated_Source\PSoC5/adc.c **** 
 916:.\Generated_Source\PSoC5/adc.c ****     return( (int16)mVolts );
 1710              		.loc 1 916 0
 1711 00b2 BB68     		ldr	r3, [r7, #8]
 1712 00b4 9BB2     		uxth	r3, r3
 1713 00b6 1BB2     		sxth	r3, r3
 917:.\Generated_Source\PSoC5/adc.c **** }
 1714              		.loc 1 917 0
 1715 00b8 1846     		mov	r0, r3
 1716 00ba 07F11C07 		add	r7, r7, #28
 1717 00be BD46     		mov	sp, r7
 1718 00c0 80BC     		pop	{r7}
 1719 00c2 7047     		bx	lr
 1720              		.cfi_endproc
 1721              	.LFE20:
 1722              		.size	adc_CountsTo_mVolts, .-adc_CountsTo_mVolts
 1723              		.global	__aeabi_i2f
 1724              		.section	.text.adc_CountsTo_Volts,"ax",%progbits
 1725              		.align	2
 1726              		.global	adc_CountsTo_Volts
 1727              		.thumb
 1728              		.thumb_func
 1729              		.type	adc_CountsTo_Volts, %function
 1730              	adc_CountsTo_Volts:
 1731              	.LFB21:
 918:.\Generated_Source\PSoC5/adc.c **** 
 919:.\Generated_Source\PSoC5/adc.c **** 
 920:.\Generated_Source\PSoC5/adc.c **** /*******************************************************************************
 921:.\Generated_Source\PSoC5/adc.c **** * Function Name: adc_CountsTo_Volts
 922:.\Generated_Source\PSoC5/adc.c **** ********************************************************************************
 923:.\Generated_Source\PSoC5/adc.c **** *
 924:.\Generated_Source\PSoC5/adc.c **** * Summary:
 925:.\Generated_Source\PSoC5/adc.c **** *  This function converts ADC counts to Volts
 926:.\Generated_Source\PSoC5/adc.c **** *
 927:.\Generated_Source\PSoC5/adc.c **** * Parameters:  
 928:.\Generated_Source\PSoC5/adc.c **** *  int32:  adcCounts   Reading from ADC.
 929:.\Generated_Source\PSoC5/adc.c **** *
 930:.\Generated_Source\PSoC5/adc.c **** * Return: 
 931:.\Generated_Source\PSoC5/adc.c **** *  float:  Result in Volts
 932:.\Generated_Source\PSoC5/adc.c **** *
 933:.\Generated_Source\PSoC5/adc.c **** * Global variables:
 934:.\Generated_Source\PSoC5/adc.c **** *  adc_CountsPerVolt:  used to convert to Volts.
 935:.\Generated_Source\PSoC5/adc.c **** *  adc_Offset:  Used as the offset while converting ADC counts 
 936:.\Generated_Source\PSoC5/adc.c **** *   to Volts.
 937:.\Generated_Source\PSoC5/adc.c **** *
 938:.\Generated_Source\PSoC5/adc.c **** *******************************************************************************/
 939:.\Generated_Source\PSoC5/adc.c **** float adc_CountsTo_Volts( int32 adcCounts) 
 940:.\Generated_Source\PSoC5/adc.c **** {
 1732              		.loc 1 940 0
 1733              		.cfi_startproc
 1734              		@ args = 0, pretend = 0, frame = 16
 1735              		@ frame_needed = 1, uses_anonymous_args = 0
ARM GAS  C:\Users\arh\AppData\Local\Temp\ccpMsX4j.s 			page 48


 1736 0000 90B5     		push	{r4, r7, lr}
 1737              	.LCFI53:
 1738              		.cfi_def_cfa_offset 12
 1739 0002 85B0     		sub	sp, sp, #20
 1740              	.LCFI54:
 1741              		.cfi_def_cfa_offset 32
 1742 0004 00AF     		add	r7, sp, #0
 1743              		.cfi_offset 14, -4
 1744              		.cfi_offset 7, -8
 1745              		.cfi_offset 4, -12
 1746              	.LCFI55:
 1747              		.cfi_def_cfa_register 7
 1748 0006 7860     		str	r0, [r7, #4]
 941:.\Generated_Source\PSoC5/adc.c **** 
 942:.\Generated_Source\PSoC5/adc.c ****     float Volts = 0;
 1749              		.loc 1 942 0
 1750 0008 114B     		ldr	r3, .L76	@ float
 1751 000a FB60     		str	r3, [r7, #12]	@ float
 943:.\Generated_Source\PSoC5/adc.c **** 
 944:.\Generated_Source\PSoC5/adc.c ****     /* Subtract ADC offset */
 945:.\Generated_Source\PSoC5/adc.c ****     adcCounts -= adc_Offset;
 1752              		.loc 1 945 0
 1753 000c 40F20003 		movw	r3, #:lower16:adc_Offset
 1754 0010 C0F20003 		movt	r3, #:upper16:adc_Offset
 1755 0014 1B68     		ldr	r3, [r3, #0]
 1756 0016 7A68     		ldr	r2, [r7, #4]
 1757 0018 C3EB0203 		rsb	r3, r3, r2
 1758 001c 7B60     		str	r3, [r7, #4]
 946:.\Generated_Source\PSoC5/adc.c **** 
 947:.\Generated_Source\PSoC5/adc.c ****     Volts = (float)adcCounts / (float)adc_CountsPerVolt;   
 1759              		.loc 1 947 0
 1760 001e 7868     		ldr	r0, [r7, #4]
 1761 0020 FFF7FEFF 		bl	__aeabi_i2f
 1762 0024 0446     		mov	r4, r0
 1763 0026 40F20003 		movw	r3, #:lower16:adc_CountsPerVolt
 1764 002a C0F20003 		movt	r3, #:upper16:adc_CountsPerVolt
 1765 002e 1B68     		ldr	r3, [r3, #0]
 1766 0030 1846     		mov	r0, r3
 1767 0032 FFF7FEFF 		bl	__aeabi_i2f
 1768 0036 0346     		mov	r3, r0
 1769 0038 2046     		mov	r0, r4
 1770 003a 1946     		mov	r1, r3
 1771 003c FFF7FEFF 		bl	__aeabi_fdiv
 1772 0040 0346     		mov	r3, r0
 1773 0042 FB60     		str	r3, [r7, #12]	@ float
 948:.\Generated_Source\PSoC5/adc.c ****     
 949:.\Generated_Source\PSoC5/adc.c ****     return( Volts );
 1774              		.loc 1 949 0
 1775 0044 FB68     		ldr	r3, [r7, #12]	@ float
 950:.\Generated_Source\PSoC5/adc.c **** }
 1776              		.loc 1 950 0
 1777 0046 1846     		mov	r0, r3
 1778 0048 07F11407 		add	r7, r7, #20
 1779 004c BD46     		mov	sp, r7
 1780 004e 90BD     		pop	{r4, r7, pc}
 1781              	.L77:
 1782              		.align	2
ARM GAS  C:\Users\arh\AppData\Local\Temp\ccpMsX4j.s 			page 49


 1783              	.L76:
 1784 0050 00000000 		.word	0
 1785              		.cfi_endproc
 1786              	.LFE21:
 1787              		.size	adc_CountsTo_Volts, .-adc_CountsTo_Volts
 1788              		.section	.text.adc_CountsTo_uVolts,"ax",%progbits
 1789              		.align	2
 1790              		.global	adc_CountsTo_uVolts
 1791              		.thumb
 1792              		.thumb_func
 1793              		.type	adc_CountsTo_uVolts, %function
 1794              	adc_CountsTo_uVolts:
 1795              	.LFB22:
 951:.\Generated_Source\PSoC5/adc.c **** 
 952:.\Generated_Source\PSoC5/adc.c **** 
 953:.\Generated_Source\PSoC5/adc.c **** /*******************************************************************************
 954:.\Generated_Source\PSoC5/adc.c **** * Function Name: adc_CountsTo_uVolts
 955:.\Generated_Source\PSoC5/adc.c **** ********************************************************************************
 956:.\Generated_Source\PSoC5/adc.c **** *
 957:.\Generated_Source\PSoC5/adc.c **** * Summary:
 958:.\Generated_Source\PSoC5/adc.c **** *  This function converts ADC counts to uVolts
 959:.\Generated_Source\PSoC5/adc.c **** *
 960:.\Generated_Source\PSoC5/adc.c **** * Parameters:  
 961:.\Generated_Source\PSoC5/adc.c **** *  int32:  adcCounts   Reading from ADC.
 962:.\Generated_Source\PSoC5/adc.c **** *
 963:.\Generated_Source\PSoC5/adc.c **** * Return: 
 964:.\Generated_Source\PSoC5/adc.c **** *  int32:  Result in uVolts
 965:.\Generated_Source\PSoC5/adc.c **** *
 966:.\Generated_Source\PSoC5/adc.c **** * Global variables:
 967:.\Generated_Source\PSoC5/adc.c **** *  adc_CountsPerVolt:  used to convert ADC counts to mVolts.
 968:.\Generated_Source\PSoC5/adc.c **** *  adc_Offset:  Used as the offset while converting ADC counts 
 969:.\Generated_Source\PSoC5/adc.c **** *   to mVolts.
 970:.\Generated_Source\PSoC5/adc.c **** *
 971:.\Generated_Source\PSoC5/adc.c **** * Theory: 
 972:.\Generated_Source\PSoC5/adc.c **** * Care must be taken to not exceed the maximum value for a 32 bit signed
 973:.\Generated_Source\PSoC5/adc.c **** * number in the conversion to uVolts and at the same time not loose 
 974:.\Generated_Source\PSoC5/adc.c **** * resolution.
 975:.\Generated_Source\PSoC5/adc.c **** *
 976:.\Generated_Source\PSoC5/adc.c **** * uVolts = ((A * adcCounts) / ((int32)adc_CountsPerVolt/B)) ;   
 977:.\Generated_Source\PSoC5/adc.c **** *
 978:.\Generated_Source\PSoC5/adc.c **** *  Resolution       A           B
 979:.\Generated_Source\PSoC5/adc.c **** *   8 - 11      1,000,000         1
 980:.\Generated_Source\PSoC5/adc.c **** *  12 - 14        100,000        10
 981:.\Generated_Source\PSoC5/adc.c **** *  15 - 17         10,000       100
 982:.\Generated_Source\PSoC5/adc.c **** *  18 - 20           1000      1000
 983:.\Generated_Source\PSoC5/adc.c **** *
 984:.\Generated_Source\PSoC5/adc.c **** *******************************************************************************/
 985:.\Generated_Source\PSoC5/adc.c **** int32 adc_CountsTo_uVolts( int32 adcCounts) 
 986:.\Generated_Source\PSoC5/adc.c **** {
 1796              		.loc 1 986 0
 1797              		.cfi_startproc
 1798              		@ args = 0, pretend = 0, frame = 24
 1799              		@ frame_needed = 1, uses_anonymous_args = 0
 1800              		@ link register save eliminated.
 1801 0000 80B4     		push	{r7}
 1802              	.LCFI56:
 1803              		.cfi_def_cfa_offset 4
ARM GAS  C:\Users\arh\AppData\Local\Temp\ccpMsX4j.s 			page 50


 1804 0002 87B0     		sub	sp, sp, #28
 1805              	.LCFI57:
 1806              		.cfi_def_cfa_offset 32
 1807 0004 00AF     		add	r7, sp, #0
 1808              		.cfi_offset 7, -4
 1809              	.LCFI58:
 1810              		.cfi_def_cfa_register 7
 1811 0006 7860     		str	r0, [r7, #4]
 987:.\Generated_Source\PSoC5/adc.c **** 
 988:.\Generated_Source\PSoC5/adc.c ****     int32 uVolts = 0;
 1812              		.loc 1 988 0
 1813 0008 4FF00003 		mov	r3, #0
 1814 000c BB60     		str	r3, [r7, #8]
 989:.\Generated_Source\PSoC5/adc.c ****     int32 A, B;
 990:.\Generated_Source\PSoC5/adc.c **** 	uint8 resolution = 16;
 1815              		.loc 1 990 0
 1816 000e 4FF01003 		mov	r3, #16
 1817 0012 FB75     		strb	r3, [r7, #23]
 991:.\Generated_Source\PSoC5/adc.c **** 	
 992:.\Generated_Source\PSoC5/adc.c **** 	/* Set the resolution based on the configuration */
 993:.\Generated_Source\PSoC5/adc.c **** 	if (adc_Config == adc_CFG1)
 1818              		.loc 1 993 0
 1819 0014 40F20003 		movw	r3, #:lower16:adc_Config
 1820 0018 C0F20003 		movt	r3, #:upper16:adc_Config
 1821 001c 1B78     		ldrb	r3, [r3, #0]
 1822 001e DBB2     		uxtb	r3, r3
 1823 0020 012B     		cmp	r3, #1
 1824 0022 03D1     		bne	.L79
 994:.\Generated_Source\PSoC5/adc.c **** 	{
 995:.\Generated_Source\PSoC5/adc.c ****         resolution = adc_CFG1_RESOLUTION;
 1825              		.loc 1 995 0
 1826 0024 4FF01003 		mov	r3, #16
 1827 0028 FB75     		strb	r3, [r7, #23]
 1828 002a 1AE0     		b	.L80
 1829              	.L79:
 996:.\Generated_Source\PSoC5/adc.c **** 	}	
 997:.\Generated_Source\PSoC5/adc.c **** 	else if (adc_Config == adc_CFG2)
 1830              		.loc 1 997 0
 1831 002c 40F20003 		movw	r3, #:lower16:adc_Config
 1832 0030 C0F20003 		movt	r3, #:upper16:adc_Config
 1833 0034 1B78     		ldrb	r3, [r3, #0]
 1834 0036 DBB2     		uxtb	r3, r3
 1835 0038 022B     		cmp	r3, #2
 1836 003a 03D1     		bne	.L81
 998:.\Generated_Source\PSoC5/adc.c **** 	{
 999:.\Generated_Source\PSoC5/adc.c **** 	    resolution = adc_CFG2_RESOLUTION;
 1837              		.loc 1 999 0
 1838 003c 4FF01003 		mov	r3, #16
 1839 0040 FB75     		strb	r3, [r7, #23]
 1840 0042 0EE0     		b	.L80
 1841              	.L81:
1000:.\Generated_Source\PSoC5/adc.c **** 	}
1001:.\Generated_Source\PSoC5/adc.c **** 	else if (adc_Config == adc_CFG3)
 1842              		.loc 1 1001 0
 1843 0044 40F20003 		movw	r3, #:lower16:adc_Config
 1844 0048 C0F20003 		movt	r3, #:upper16:adc_Config
 1845 004c 1B78     		ldrb	r3, [r3, #0]
ARM GAS  C:\Users\arh\AppData\Local\Temp\ccpMsX4j.s 			page 51


 1846 004e DBB2     		uxtb	r3, r3
 1847 0050 032B     		cmp	r3, #3
 1848 0052 03D1     		bne	.L82
1002:.\Generated_Source\PSoC5/adc.c **** 	{
1003:.\Generated_Source\PSoC5/adc.c **** 	    resolution = adc_CFG3_RESOLUTION;
 1849              		.loc 1 1003 0
 1850 0054 4FF01003 		mov	r3, #16
 1851 0058 FB75     		strb	r3, [r7, #23]
 1852 005a 02E0     		b	.L80
 1853              	.L82:
1004:.\Generated_Source\PSoC5/adc.c **** 	}
1005:.\Generated_Source\PSoC5/adc.c **** 	else
1006:.\Generated_Source\PSoC5/adc.c **** 	{
1007:.\Generated_Source\PSoC5/adc.c **** 	    resolution = adc_CFG4_RESOLUTION;
 1854              		.loc 1 1007 0
 1855 005c 4FF01003 		mov	r3, #16
 1856 0060 FB75     		strb	r3, [r7, #23]
 1857              	.L80:
1008:.\Generated_Source\PSoC5/adc.c **** 	}
1009:.\Generated_Source\PSoC5/adc.c ****     
1010:.\Generated_Source\PSoC5/adc.c ****     if(resolution < 12)
 1858              		.loc 1 1010 0
 1859 0062 FB7D     		ldrb	r3, [r7, #23]	@ zero_extendqisi2
 1860 0064 0B2B     		cmp	r3, #11
 1861 0066 08D8     		bhi	.L83
1011:.\Generated_Source\PSoC5/adc.c ****     {
1012:.\Generated_Source\PSoC5/adc.c ****         A = 1000000;
 1862              		.loc 1 1012 0
 1863 0068 44F24023 		movw	r3, #:lower16:1000000
 1864 006c C0F20F03 		movt	r3, #:upper16:1000000
 1865 0070 FB60     		str	r3, [r7, #12]
1013:.\Generated_Source\PSoC5/adc.c ****         B = 1;
 1866              		.loc 1 1013 0
 1867 0072 4FF00103 		mov	r3, #1
 1868 0076 3B61     		str	r3, [r7, #16]
 1869 0078 1BE0     		b	.L84
 1870              	.L83:
1014:.\Generated_Source\PSoC5/adc.c ****     }
1015:.\Generated_Source\PSoC5/adc.c ****     else if(resolution < 15)
 1871              		.loc 1 1015 0
 1872 007a FB7D     		ldrb	r3, [r7, #23]	@ zero_extendqisi2
 1873 007c 0E2B     		cmp	r3, #14
 1874 007e 08D8     		bhi	.L85
1016:.\Generated_Source\PSoC5/adc.c ****     {
1017:.\Generated_Source\PSoC5/adc.c ****         A = 100000;
 1875              		.loc 1 1017 0
 1876 0080 48F2A063 		movw	r3, #:lower16:100000
 1877 0084 C0F20103 		movt	r3, #:upper16:100000
 1878 0088 FB60     		str	r3, [r7, #12]
1018:.\Generated_Source\PSoC5/adc.c ****         B = 10;
 1879              		.loc 1 1018 0
 1880 008a 4FF00A03 		mov	r3, #10
 1881 008e 3B61     		str	r3, [r7, #16]
 1882 0090 0FE0     		b	.L84
 1883              	.L85:
1019:.\Generated_Source\PSoC5/adc.c ****     }
1020:.\Generated_Source\PSoC5/adc.c ****     else if(resolution < 18)
ARM GAS  C:\Users\arh\AppData\Local\Temp\ccpMsX4j.s 			page 52


 1884              		.loc 1 1020 0
 1885 0092 FB7D     		ldrb	r3, [r7, #23]	@ zero_extendqisi2
 1886 0094 112B     		cmp	r3, #17
 1887 0096 06D8     		bhi	.L86
1021:.\Generated_Source\PSoC5/adc.c ****     {
1022:.\Generated_Source\PSoC5/adc.c ****         A = 10000;
 1888              		.loc 1 1022 0
 1889 0098 42F21073 		movw	r3, #10000
 1890 009c FB60     		str	r3, [r7, #12]
1023:.\Generated_Source\PSoC5/adc.c ****         B = 100;
 1891              		.loc 1 1023 0
 1892 009e 4FF06403 		mov	r3, #100
 1893 00a2 3B61     		str	r3, [r7, #16]
 1894 00a4 05E0     		b	.L84
 1895              	.L86:
1024:.\Generated_Source\PSoC5/adc.c ****     }
1025:.\Generated_Source\PSoC5/adc.c ****     else
1026:.\Generated_Source\PSoC5/adc.c ****     {
1027:.\Generated_Source\PSoC5/adc.c ****         A = 1000;
 1896              		.loc 1 1027 0
 1897 00a6 4FF47A73 		mov	r3, #1000
 1898 00aa FB60     		str	r3, [r7, #12]
1028:.\Generated_Source\PSoC5/adc.c ****         B = 1000;
 1899              		.loc 1 1028 0
 1900 00ac 4FF47A73 		mov	r3, #1000
 1901 00b0 3B61     		str	r3, [r7, #16]
 1902              	.L84:
1029:.\Generated_Source\PSoC5/adc.c ****     }
1030:.\Generated_Source\PSoC5/adc.c **** 
1031:.\Generated_Source\PSoC5/adc.c ****     /* Subtract ADC offset */
1032:.\Generated_Source\PSoC5/adc.c ****     adcCounts -= adc_Offset;
 1903              		.loc 1 1032 0
 1904 00b2 40F20003 		movw	r3, #:lower16:adc_Offset
 1905 00b6 C0F20003 		movt	r3, #:upper16:adc_Offset
 1906 00ba 1B68     		ldr	r3, [r3, #0]
 1907 00bc 7A68     		ldr	r2, [r7, #4]
 1908 00be C3EB0203 		rsb	r3, r3, r2
 1909 00c2 7B60     		str	r3, [r7, #4]
1033:.\Generated_Source\PSoC5/adc.c **** 
1034:.\Generated_Source\PSoC5/adc.c ****     uVolts = ((A * adcCounts) / ((int32)adc_CountsPerVolt/B)) ;   
 1910              		.loc 1 1034 0
 1911 00c4 FB68     		ldr	r3, [r7, #12]
 1912 00c6 7A68     		ldr	r2, [r7, #4]
 1913 00c8 02FB03F2 		mul	r2, r2, r3
 1914 00cc 40F20003 		movw	r3, #:lower16:adc_CountsPerVolt
 1915 00d0 C0F20003 		movt	r3, #:upper16:adc_CountsPerVolt
 1916 00d4 1968     		ldr	r1, [r3, #0]
 1917 00d6 3B69     		ldr	r3, [r7, #16]
 1918 00d8 91FBF3F3 		sdiv	r3, r1, r3
 1919 00dc 92FBF3F3 		sdiv	r3, r2, r3
 1920 00e0 BB60     		str	r3, [r7, #8]
1035:.\Generated_Source\PSoC5/adc.c ****   
1036:.\Generated_Source\PSoC5/adc.c ****     return( uVolts );
 1921              		.loc 1 1036 0
 1922 00e2 BB68     		ldr	r3, [r7, #8]
1037:.\Generated_Source\PSoC5/adc.c **** }
 1923              		.loc 1 1037 0
ARM GAS  C:\Users\arh\AppData\Local\Temp\ccpMsX4j.s 			page 53


 1924 00e4 1846     		mov	r0, r3
 1925 00e6 07F11C07 		add	r7, r7, #28
 1926 00ea BD46     		mov	sp, r7
 1927 00ec 80BC     		pop	{r7}
 1928 00ee 7047     		bx	lr
 1929              		.cfi_endproc
 1930              	.LFE22:
 1931              		.size	adc_CountsTo_uVolts, .-adc_CountsTo_uVolts
 1932              		.section	.text.adc_IRQ_Start,"ax",%progbits
 1933              		.align	2
 1934              		.global	adc_IRQ_Start
 1935              		.thumb
 1936              		.thumb_func
 1937              		.type	adc_IRQ_Start, %function
 1938              	adc_IRQ_Start:
 1939              	.LFB23:
1038:.\Generated_Source\PSoC5/adc.c **** 
1039:.\Generated_Source\PSoC5/adc.c **** 
1040:.\Generated_Source\PSoC5/adc.c **** /*******************************************************************************
1041:.\Generated_Source\PSoC5/adc.c **** * Function Name: adc_IRQ_Start(void)
1042:.\Generated_Source\PSoC5/adc.c **** ********************************************************************************
1043:.\Generated_Source\PSoC5/adc.c **** *
1044:.\Generated_Source\PSoC5/adc.c **** * Summary:
1045:.\Generated_Source\PSoC5/adc.c **** *  Set up the interrupt and enable it. The IRQ_Start() API is included to 
1046:.\Generated_Source\PSoC5/adc.c **** *  support legacy code. The routine has been replaced by the library source 
1047:.\Generated_Source\PSoC5/adc.c **** *  code for interrupts. IRQ_Start() should not be used in new designs.
1048:.\Generated_Source\PSoC5/adc.c **** * 
1049:.\Generated_Source\PSoC5/adc.c **** * Parameters:  
1050:.\Generated_Source\PSoC5/adc.c **** *   void.
1051:.\Generated_Source\PSoC5/adc.c **** *
1052:.\Generated_Source\PSoC5/adc.c **** * Return:
1053:.\Generated_Source\PSoC5/adc.c **** *   void.
1054:.\Generated_Source\PSoC5/adc.c **** *
1055:.\Generated_Source\PSoC5/adc.c **** *******************************************************************************/
1056:.\Generated_Source\PSoC5/adc.c **** void adc_IRQ_Start(void) 
1057:.\Generated_Source\PSoC5/adc.c **** {
 1940              		.loc 1 1057 0
 1941              		.cfi_startproc
 1942              		@ args = 0, pretend = 0, frame = 0
 1943              		@ frame_needed = 1, uses_anonymous_args = 0
 1944 0000 80B5     		push	{r7, lr}
 1945              	.LCFI59:
 1946              		.cfi_def_cfa_offset 8
 1947 0002 00AF     		add	r7, sp, #0
 1948              		.cfi_offset 14, -4
 1949              		.cfi_offset 7, -8
 1950              	.LCFI60:
 1951              		.cfi_def_cfa_register 7
1058:.\Generated_Source\PSoC5/adc.c ****     /* For all we know the interrupt is active. */
1059:.\Generated_Source\PSoC5/adc.c ****     CyIntDisable(adc_IRQ__INTC_NUMBER );
 1952              		.loc 1 1059 0
 1953 0004 4FF01D00 		mov	r0, #29
 1954 0008 FFF7FEFF 		bl	CyIntDisable
1060:.\Generated_Source\PSoC5/adc.c **** 
1061:.\Generated_Source\PSoC5/adc.c ****     /* Set the ISR to point to the ADC_DelSig_1_IRQ Interrupt. */
1062:.\Generated_Source\PSoC5/adc.c ****     CyIntSetVector(adc_IRQ__INTC_NUMBER, adc_ISR1);
 1955              		.loc 1 1062 0
ARM GAS  C:\Users\arh\AppData\Local\Temp\ccpMsX4j.s 			page 54


 1956 000c 4FF01D00 		mov	r0, #29
 1957 0010 40F20001 		movw	r1, #:lower16:adc_ISR1
 1958 0014 C0F20001 		movt	r1, #:upper16:adc_ISR1
 1959 0018 FFF7FEFF 		bl	CyIntSetVector
1063:.\Generated_Source\PSoC5/adc.c **** 
1064:.\Generated_Source\PSoC5/adc.c ****     /* Set the priority. */
1065:.\Generated_Source\PSoC5/adc.c ****     CyIntSetPriority(adc_IRQ__INTC_NUMBER, adc_IRQ_INTC_PRIOR_NUMBER);
 1960              		.loc 1 1065 0
 1961 001c 4FF01D00 		mov	r0, #29
 1962 0020 4FF00701 		mov	r1, #7
 1963 0024 FFF7FEFF 		bl	CyIntSetPriority
1066:.\Generated_Source\PSoC5/adc.c **** 
1067:.\Generated_Source\PSoC5/adc.c ****     /* Enable interrupt. */
1068:.\Generated_Source\PSoC5/adc.c ****     CyIntEnable(adc_IRQ__INTC_NUMBER);
 1964              		.loc 1 1068 0
 1965 0028 4FF01D00 		mov	r0, #29
 1966 002c FFF7FEFF 		bl	CyIntEnable
1069:.\Generated_Source\PSoC5/adc.c **** }
 1967              		.loc 1 1069 0
 1968 0030 80BD     		pop	{r7, pc}
 1969              		.cfi_endproc
 1970              	.LFE23:
 1971              		.size	adc_IRQ_Start, .-adc_IRQ_Start
 1972 0032 00BF     		.section	.text.adc_InitConfig,"ax",%progbits
 1973              		.align	2
 1974              		.global	adc_InitConfig
 1975              		.thumb
 1976              		.thumb_func
 1977              		.type	adc_InitConfig, %function
 1978              	adc_InitConfig:
 1979              	.LFB24:
1070:.\Generated_Source\PSoC5/adc.c **** 
1071:.\Generated_Source\PSoC5/adc.c **** 
1072:.\Generated_Source\PSoC5/adc.c **** /*******************************************************************************
1073:.\Generated_Source\PSoC5/adc.c **** * Function Name: adc_InitConfig(uint8 config)
1074:.\Generated_Source\PSoC5/adc.c **** ********************************************************************************
1075:.\Generated_Source\PSoC5/adc.c **** *
1076:.\Generated_Source\PSoC5/adc.c **** * Summary:
1077:.\Generated_Source\PSoC5/adc.c **** *  Initializes all registers based on customizer settings
1078:.\Generated_Source\PSoC5/adc.c **** *
1079:.\Generated_Source\PSoC5/adc.c **** * Parameters:  
1080:.\Generated_Source\PSoC5/adc.c **** *   void
1081:.\Generated_Source\PSoC5/adc.c **** *
1082:.\Generated_Source\PSoC5/adc.c **** * Return: 
1083:.\Generated_Source\PSoC5/adc.c **** *  void
1084:.\Generated_Source\PSoC5/adc.c **** *
1085:.\Generated_Source\PSoC5/adc.c **** * Global variables:
1086:.\Generated_Source\PSoC5/adc.c **** *  adc_initVar:  used to set the common registers in the beginning.
1087:.\Generated_Source\PSoC5/adc.c **** *  adc_CountsPerVolt:  Used to set the default counts per volt.
1088:.\Generated_Source\PSoC5/adc.c **** *
1089:.\Generated_Source\PSoC5/adc.c **** *******************************************************************************/
1090:.\Generated_Source\PSoC5/adc.c **** void adc_InitConfig(uint8 config) 
1091:.\Generated_Source\PSoC5/adc.c **** {
 1980              		.loc 1 1091 0
 1981              		.cfi_startproc
 1982              		@ args = 0, pretend = 0, frame = 8
 1983              		@ frame_needed = 1, uses_anonymous_args = 0
ARM GAS  C:\Users\arh\AppData\Local\Temp\ccpMsX4j.s 			page 55


 1984 0000 80B5     		push	{r7, lr}
 1985              	.LCFI61:
 1986              		.cfi_def_cfa_offset 8
 1987 0002 82B0     		sub	sp, sp, #8
 1988              	.LCFI62:
 1989              		.cfi_def_cfa_offset 16
 1990 0004 00AF     		add	r7, sp, #0
 1991              		.cfi_offset 14, -4
 1992              		.cfi_offset 7, -8
 1993              	.LCFI63:
 1994              		.cfi_def_cfa_register 7
 1995 0006 0346     		mov	r3, r0
 1996 0008 FB71     		strb	r3, [r7, #7]
1092:.\Generated_Source\PSoC5/adc.c ****     adc_stopConversion = 0u;
 1997              		.loc 1 1092 0
 1998 000a 40F20003 		movw	r3, #:lower16:adc_stopConversion
 1999 000e C0F20003 		movt	r3, #:upper16:adc_stopConversion
 2000 0012 4FF00002 		mov	r2, #0
 2001 0016 1A70     		strb	r2, [r3, #0]
1093:.\Generated_Source\PSoC5/adc.c ****     
1094:.\Generated_Source\PSoC5/adc.c ****     if(adc_initVar == 0u)
 2002              		.loc 1 1094 0
 2003 0018 40F20003 		movw	r3, #:lower16:adc_initVar
 2004 001c C0F20003 		movt	r3, #:upper16:adc_initVar
 2005 0020 1B78     		ldrb	r3, [r3, #0]	@ zero_extendqisi2
 2006 0022 002B     		cmp	r3, #0
 2007 0024 68D1     		bne	.L91
1095:.\Generated_Source\PSoC5/adc.c ****         {
1096:.\Generated_Source\PSoC5/adc.c ****             adc_DSM_DEM0_REG    = adc_CFG1_DSM_DEM0;    
 2008              		.loc 1 1096 0
 2009 0026 45F69603 		movw	r3, #:lower16:1073764502
 2010 002a C4F20003 		movt	r3, #:upper16:1073764502
 2011 002e 4FF00702 		mov	r2, #7
 2012 0032 1A70     		strb	r2, [r3, #0]
1097:.\Generated_Source\PSoC5/adc.c ****             adc_DSM_DEM1_REG    = adc_CFG1_DSM_DEM1;    
 2013              		.loc 1 1097 0
 2014 0034 45F69703 		movw	r3, #:lower16:1073764503
 2015 0038 C4F20003 		movt	r3, #:upper16:1073764503
 2016 003c 4FF00002 		mov	r2, #0
 2017 0040 1A70     		strb	r2, [r3, #0]
1098:.\Generated_Source\PSoC5/adc.c ****             adc_DSM_MISC_REG    = adc_CFG1_DSM_MISC;    
 2018              		.loc 1 1098 0
 2019 0042 45F69E03 		movw	r3, #:lower16:1073764510
 2020 0046 C4F20003 		movt	r3, #:upper16:1073764510
 2021 004a 4FF00002 		mov	r2, #0
 2022 004e 1A70     		strb	r2, [r3, #0]
1099:.\Generated_Source\PSoC5/adc.c ****             adc_DSM_CLK_REG    |= adc_CFG1_DSM_CLK; 
 2023              		.loc 1 1099 0
 2024 0050 45F60733 		movw	r3, #:lower16:1073765127
 2025 0054 C4F20003 		movt	r3, #:upper16:1073765127
 2026 0058 45F60732 		movw	r2, #:lower16:1073765127
 2027 005c C4F20002 		movt	r2, #:upper16:1073765127
 2028 0060 1278     		ldrb	r2, [r2, #0]
 2029 0062 D2B2     		uxtb	r2, r2
 2030 0064 42F01802 		orr	r2, r2, #24
 2031 0068 D2B2     		uxtb	r2, r2
 2032 006a 1A70     		strb	r2, [r3, #0]
ARM GAS  C:\Users\arh\AppData\Local\Temp\ccpMsX4j.s 			page 56


1100:.\Generated_Source\PSoC5/adc.c ****             adc_DSM_REF1_REG    = adc_CFG1_DSM_REF1;    
 2033              		.loc 1 1100 0
 2034 006c 45F69303 		movw	r3, #:lower16:1073764499
 2035 0070 C4F20003 		movt	r3, #:upper16:1073764499
 2036 0074 4FF00002 		mov	r2, #0
 2037 0078 1A70     		strb	r2, [r3, #0]
1101:.\Generated_Source\PSoC5/adc.c ****         
1102:.\Generated_Source\PSoC5/adc.c ****             adc_DSM_OUT0_REG    = adc_CFG1_DSM_OUT0;    
 2038              		.loc 1 1102 0
 2039 007a 45F68833 		movw	r3, #:lower16:1073765256
 2040 007e C4F20003 		movt	r3, #:upper16:1073765256
 2041 0082 4FF00002 		mov	r2, #0
 2042 0086 1A70     		strb	r2, [r3, #0]
1103:.\Generated_Source\PSoC5/adc.c ****             adc_DSM_OUT1_REG    = adc_CFG1_DSM_OUT1;   
 2043              		.loc 1 1103 0
 2044 0088 45F68933 		movw	r3, #:lower16:1073765257
 2045 008c C4F20003 		movt	r3, #:upper16:1073765257
 2046 0090 4FF00002 		mov	r2, #0
 2047 0094 1A70     		strb	r2, [r3, #0]
1104:.\Generated_Source\PSoC5/adc.c ****         
1105:.\Generated_Source\PSoC5/adc.c ****             adc_DSM_CR0_REG     = adc_CFG1_DSM_CR0;     
 2048              		.loc 1 1105 0
 2049 0096 45F68003 		movw	r3, #:lower16:1073764480
 2050 009a C4F20003 		movt	r3, #:upper16:1073764480
 2051 009e 4FF00A02 		mov	r2, #10
 2052 00a2 1A70     		strb	r2, [r3, #0]
1106:.\Generated_Source\PSoC5/adc.c ****             adc_DSM_CR1_REG     = adc_CFG1_DSM_CR1;     
 2053              		.loc 1 1106 0
 2054 00a4 45F68103 		movw	r3, #:lower16:1073764481
 2055 00a8 C4F20003 		movt	r3, #:upper16:1073764481
 2056 00ac 4FF00002 		mov	r2, #0
 2057 00b0 1A70     		strb	r2, [r3, #0]
1107:.\Generated_Source\PSoC5/adc.c ****             adc_DSM_CR2_REG     = adc_CFG1_DSM_CR2;     
 2058              		.loc 1 1107 0
 2059 00b2 45F68203 		movw	r3, #:lower16:1073764482
 2060 00b6 C4F20003 		movt	r3, #:upper16:1073764482
 2061 00ba 4FF07A02 		mov	r2, #122
 2062 00be 1A70     		strb	r2, [r3, #0]
1108:.\Generated_Source\PSoC5/adc.c ****             adc_DSM_CR3_REG     = adc_CFG1_DSM_CR3;     
 2063              		.loc 1 1108 0
 2064 00c0 45F68303 		movw	r3, #:lower16:1073764483
 2065 00c4 C4F20003 		movt	r3, #:upper16:1073764483
 2066 00c8 4FF00002 		mov	r2, #0
 2067 00cc 1A70     		strb	r2, [r3, #0]
1109:.\Generated_Source\PSoC5/adc.c ****             adc_DSM_CR13_REG    = adc_CFG1_DSM_CR13;     
 2068              		.loc 1 1109 0
 2069 00ce 45F68D03 		movw	r3, #:lower16:1073764493
 2070 00d2 C4F20003 		movt	r3, #:upper16:1073764493
 2071 00d6 4FF00002 		mov	r2, #0
 2072 00da 1A70     		strb	r2, [r3, #0]
1110:.\Generated_Source\PSoC5/adc.c ****             
1111:.\Generated_Source\PSoC5/adc.c ****             adc_DEC_SR_REG      = adc_CFG1_DEC_SR;      
 2073              		.loc 1 1111 0
 2074 00dc 44F60163 		movw	r3, #:lower16:1073761793
 2075 00e0 C4F20003 		movt	r3, #:upper16:1073761793
 2076 00e4 4FF01402 		mov	r2, #20
 2077 00e8 1A70     		strb	r2, [r3, #0]
ARM GAS  C:\Users\arh\AppData\Local\Temp\ccpMsX4j.s 			page 57


1112:.\Generated_Source\PSoC5/adc.c ****             adc_DEC_COHER_REG   = adc_CFG1_DEC_COHER;   
 2078              		.loc 1 1112 0
 2079 00ea 44F61463 		movw	r3, #:lower16:1073761812
 2080 00ee C4F20003 		movt	r3, #:upper16:1073761812
 2081 00f2 4FF00102 		mov	r2, #1
 2082 00f6 1A70     		strb	r2, [r3, #0]
 2083              	.L91:
1113:.\Generated_Source\PSoC5/adc.c ****         }
1114:.\Generated_Source\PSoC5/adc.c **** 
1115:.\Generated_Source\PSoC5/adc.c ****     if (config == 1u)
 2084              		.loc 1 1115 0
 2085 00f8 FB79     		ldrb	r3, [r7, #7]	@ zero_extendqisi2
 2086 00fa 012B     		cmp	r3, #1
 2087 00fc 40F0EF80 		bne	.L92
1116:.\Generated_Source\PSoC5/adc.c ****     {
1117:.\Generated_Source\PSoC5/adc.c ****         /* Default Config */   
1118:.\Generated_Source\PSoC5/adc.c ****         adc_DEC_CR_REG      = adc_CFG1_DEC_CR;      
 2088              		.loc 1 1118 0
 2089 0100 44F60063 		movw	r3, #:lower16:1073761792
 2090 0104 C4F20003 		movt	r3, #:upper16:1073761792
 2091 0108 4FF03002 		mov	r2, #48
 2092 010c 1A70     		strb	r2, [r3, #0]
1119:.\Generated_Source\PSoC5/adc.c ****         adc_DEC_SHIFT1_REG  = adc_CFG1_DEC_SHIFT1;  
 2093              		.loc 1 1119 0
 2094 010e 44F60263 		movw	r3, #:lower16:1073761794
 2095 0112 C4F20003 		movt	r3, #:upper16:1073761794
 2096 0116 4FF00402 		mov	r2, #4
 2097 011a 1A70     		strb	r2, [r3, #0]
1120:.\Generated_Source\PSoC5/adc.c ****         adc_DEC_SHIFT2_REG  = adc_CFG1_DEC_SHIFT2;  
 2098              		.loc 1 1120 0
 2099 011c 44F60363 		movw	r3, #:lower16:1073761795
 2100 0120 C4F20003 		movt	r3, #:upper16:1073761795
 2101 0124 4FF00702 		mov	r2, #7
 2102 0128 1A70     		strb	r2, [r3, #0]
1121:.\Generated_Source\PSoC5/adc.c ****         adc_DEC_DR2_REG     = adc_CFG1_DEC_DR2;     
 2103              		.loc 1 1121 0
 2104 012a 44F60463 		movw	r3, #:lower16:1073761796
 2105 012e C4F20003 		movt	r3, #:upper16:1073761796
 2106 0132 4FF00002 		mov	r2, #0
 2107 0136 1A70     		strb	r2, [r3, #0]
1122:.\Generated_Source\PSoC5/adc.c ****         adc_DEC_DR2H_REG    = adc_CFG1_DEC_DR2H;    
 2108              		.loc 1 1122 0
 2109 0138 44F60563 		movw	r3, #:lower16:1073761797
 2110 013c C4F20003 		movt	r3, #:upper16:1073761797
 2111 0140 4FF00002 		mov	r2, #0
 2112 0144 1A70     		strb	r2, [r3, #0]
1123:.\Generated_Source\PSoC5/adc.c ****         adc_DEC_DR1_REG     = adc_CFG1_DEC_DR1;     
 2113              		.loc 1 1123 0
 2114 0146 44F60663 		movw	r3, #:lower16:1073761798
 2115 014a C4F20003 		movt	r3, #:upper16:1073761798
 2116 014e 4FF03F02 		mov	r2, #63
 2117 0152 1A70     		strb	r2, [r3, #0]
1124:.\Generated_Source\PSoC5/adc.c ****         adc_DEC_OCOR_REG    = adc_CFG1_DEC_OCOR;    
 2118              		.loc 1 1124 0
 2119 0154 44F60863 		movw	r3, #:lower16:1073761800
 2120 0158 C4F20003 		movt	r3, #:upper16:1073761800
 2121 015c 4FF00002 		mov	r2, #0
ARM GAS  C:\Users\arh\AppData\Local\Temp\ccpMsX4j.s 			page 58


 2122 0160 1A70     		strb	r2, [r3, #0]
1125:.\Generated_Source\PSoC5/adc.c ****         adc_DEC_OCORM_REG   = adc_CFG1_DEC_OCORM;   
 2123              		.loc 1 1125 0
 2124 0162 44F60963 		movw	r3, #:lower16:1073761801
 2125 0166 C4F20003 		movt	r3, #:upper16:1073761801
 2126 016a 4FF00002 		mov	r2, #0
 2127 016e 1A70     		strb	r2, [r3, #0]
1126:.\Generated_Source\PSoC5/adc.c ****         adc_DEC_OCORH_REG   = adc_CFG1_DEC_OCORH;   
 2128              		.loc 1 1126 0
 2129 0170 44F60A63 		movw	r3, #:lower16:1073761802
 2130 0174 C4F20003 		movt	r3, #:upper16:1073761802
 2131 0178 4FF00002 		mov	r2, #0
 2132 017c 1A70     		strb	r2, [r3, #0]
1127:.\Generated_Source\PSoC5/adc.c ****         
1128:.\Generated_Source\PSoC5/adc.c ****         adc_DSM_CR4_REG     = adc_CFG1_DSM_CR4;     
 2133              		.loc 1 1128 0
 2134 017e 45F68403 		movw	r3, #:lower16:1073764484
 2135 0182 C4F20003 		movt	r3, #:upper16:1073764484
 2136 0186 4FF05002 		mov	r2, #80
 2137 018a 1A70     		strb	r2, [r3, #0]
1129:.\Generated_Source\PSoC5/adc.c ****         adc_DSM_CR5_REG     = adc_CFG1_DSM_CR5;     
 2138              		.loc 1 1129 0
 2139 018c 45F68503 		movw	r3, #:lower16:1073764485
 2140 0190 C4F20003 		movt	r3, #:upper16:1073764485
 2141 0194 4FF02702 		mov	r2, #39
 2142 0198 1A70     		strb	r2, [r3, #0]
1130:.\Generated_Source\PSoC5/adc.c ****         adc_DSM_CR6_REG     = adc_CFG1_DSM_CR6;     
 2143              		.loc 1 1130 0
 2144 019a 45F68603 		movw	r3, #:lower16:1073764486
 2145 019e C4F20003 		movt	r3, #:upper16:1073764486
 2146 01a2 4FF02C02 		mov	r2, #44
 2147 01a6 1A70     		strb	r2, [r3, #0]
1131:.\Generated_Source\PSoC5/adc.c ****         adc_DSM_CR7_REG     = adc_CFG1_DSM_CR7;     
 2148              		.loc 1 1131 0
 2149 01a8 45F68703 		movw	r3, #:lower16:1073764487
 2150 01ac C4F20003 		movt	r3, #:upper16:1073764487
 2151 01b0 4FF00002 		mov	r2, #0
 2152 01b4 1A70     		strb	r2, [r3, #0]
1132:.\Generated_Source\PSoC5/adc.c ****         adc_DSM_CR8_REG     = adc_CFG1_DSM_CR8;     
 2153              		.loc 1 1132 0
 2154 01b6 45F68803 		movw	r3, #:lower16:1073764488
 2155 01ba C4F20003 		movt	r3, #:upper16:1073764488
 2156 01be 4FF01202 		mov	r2, #18
 2157 01c2 1A70     		strb	r2, [r3, #0]
1133:.\Generated_Source\PSoC5/adc.c ****         adc_DSM_CR9_REG     = adc_CFG1_DSM_CR9;     
 2158              		.loc 1 1133 0
 2159 01c4 45F68903 		movw	r3, #:lower16:1073764489
 2160 01c8 C4F20003 		movt	r3, #:upper16:1073764489
 2161 01cc 4FF01302 		mov	r2, #19
 2162 01d0 1A70     		strb	r2, [r3, #0]
1134:.\Generated_Source\PSoC5/adc.c ****         adc_DSM_CR10_REG    = adc_CFG1_DSM_CR10;    
 2163              		.loc 1 1134 0
 2164 01d2 45F68A03 		movw	r3, #:lower16:1073764490
 2165 01d6 C4F20003 		movt	r3, #:upper16:1073764490
 2166 01da 4FF05502 		mov	r2, #85
 2167 01de 1A70     		strb	r2, [r3, #0]
1135:.\Generated_Source\PSoC5/adc.c ****         adc_DSM_CR11_REG    = adc_CFG1_DSM_CR11;    
ARM GAS  C:\Users\arh\AppData\Local\Temp\ccpMsX4j.s 			page 59


 2168              		.loc 1 1135 0
 2169 01e0 45F68B03 		movw	r3, #:lower16:1073764491
 2170 01e4 C4F20003 		movt	r3, #:upper16:1073764491
 2171 01e8 4FF05A02 		mov	r2, #90
 2172 01ec 1A70     		strb	r2, [r3, #0]
1136:.\Generated_Source\PSoC5/adc.c ****         adc_DSM_CR12_REG    = adc_CFG1_DSM_CR12;    
 2173              		.loc 1 1136 0
 2174 01ee 45F68C03 		movw	r3, #:lower16:1073764492
 2175 01f2 C4F20003 		movt	r3, #:upper16:1073764492
 2176 01f6 4FF00502 		mov	r2, #5
 2177 01fa 1A70     		strb	r2, [r3, #0]
1137:.\Generated_Source\PSoC5/adc.c ****         adc_DSM_CR14_REG    = adc_CFG1_DSM_CR14;    
 2178              		.loc 1 1137 0
 2179 01fc 45F68E03 		movw	r3, #:lower16:1073764494
 2180 0200 C4F20003 		movt	r3, #:upper16:1073764494
 2181 0204 4FF00202 		mov	r2, #2
 2182 0208 1A70     		strb	r2, [r3, #0]
1138:.\Generated_Source\PSoC5/adc.c ****         adc_DSM_CR15_REG    = adc_CFG1_DSM_CR15;    
 2183              		.loc 1 1138 0
 2184 020a 45F68F03 		movw	r3, #:lower16:1073764495
 2185 020e C4F20003 		movt	r3, #:upper16:1073764495
 2186 0212 4FF01202 		mov	r2, #18
 2187 0216 1A70     		strb	r2, [r3, #0]
1139:.\Generated_Source\PSoC5/adc.c ****         adc_DSM_CR16_REG    = adc_CFG1_DSM_CR16;    
 2188              		.loc 1 1139 0
 2189 0218 45F69003 		movw	r3, #:lower16:1073764496
 2190 021c C4F20003 		movt	r3, #:upper16:1073764496
 2191 0220 4FF02802 		mov	r2, #40
 2192 0224 1A70     		strb	r2, [r3, #0]
1140:.\Generated_Source\PSoC5/adc.c ****         adc_DSM_CR17_REG    = adc_CFG1_DSM_CR17;
 2193              		.loc 1 1140 0
 2194 0226 45F69103 		movw	r3, #:lower16:1073764497
 2195 022a C4F20003 		movt	r3, #:upper16:1073764497
 2196 022e 6FF01402 		mvn	r2, #20
 2197 0232 1A70     		strb	r2, [r3, #0]
1141:.\Generated_Source\PSoC5/adc.c **** 		/* Set DSM_REF0_REG by disabling and enabling the PRESS cirucit */
1142:.\Generated_Source\PSoC5/adc.c **** 		adc_SetDSMRef0Reg(adc_CFG1_DSM_REF0);
 2198              		.loc 1 1142 0
 2199 0234 4FF04400 		mov	r0, #68
 2200 0238 FFF7FEFF 		bl	adc_SetDSMRef0Reg
1143:.\Generated_Source\PSoC5/adc.c ****         adc_DSM_REF2_REG    = adc_CFG1_DSM_REF2;    
 2201              		.loc 1 1143 0
 2202 023c 45F69403 		movw	r3, #:lower16:1073764500
 2203 0240 C4F20003 		movt	r3, #:upper16:1073764500
 2204 0244 4FF05802 		mov	r2, #88
 2205 0248 1A70     		strb	r2, [r3, #0]
1144:.\Generated_Source\PSoC5/adc.c ****         adc_DSM_REF3_REG    = adc_CFG1_DSM_REF3;    
 2206              		.loc 1 1144 0
 2207 024a 45F69503 		movw	r3, #:lower16:1073764501
 2208 024e C4F20003 		movt	r3, #:upper16:1073764501
 2209 0252 4FF00002 		mov	r2, #0
 2210 0256 1A70     		strb	r2, [r3, #0]
1145:.\Generated_Source\PSoC5/adc.c ****         
1146:.\Generated_Source\PSoC5/adc.c ****         adc_DSM_BUF0_REG    = adc_CFG1_DSM_BUF0;    
 2211              		.loc 1 1146 0
 2212 0258 45F69A03 		movw	r3, #:lower16:1073764506
 2213 025c C4F20003 		movt	r3, #:upper16:1073764506
ARM GAS  C:\Users\arh\AppData\Local\Temp\ccpMsX4j.s 			page 60


 2214 0260 4FF00502 		mov	r2, #5
 2215 0264 1A70     		strb	r2, [r3, #0]
1147:.\Generated_Source\PSoC5/adc.c ****         adc_DSM_BUF1_REG    = adc_CFG1_DSM_BUF1;    
 2216              		.loc 1 1147 0
 2217 0266 45F69B03 		movw	r3, #:lower16:1073764507
 2218 026a C4F20003 		movt	r3, #:upper16:1073764507
 2219 026e 4FF00102 		mov	r2, #1
 2220 0272 1A70     		strb	r2, [r3, #0]
1148:.\Generated_Source\PSoC5/adc.c ****         adc_DSM_BUF2_REG    = adc_CFG1_DSM_BUF2;   
 2221              		.loc 1 1148 0
 2222 0274 45F69C03 		movw	r3, #:lower16:1073764508
 2223 0278 C4F20003 		movt	r3, #:upper16:1073764508
 2224 027c 4FF00002 		mov	r2, #0
 2225 0280 1A70     		strb	r2, [r3, #0]
1149:.\Generated_Source\PSoC5/adc.c ****         adc_DSM_BUF3_REG    = adc_CFG1_DSM_BUF3;
 2226              		.loc 1 1149 0
 2227 0282 45F69D03 		movw	r3, #:lower16:1073764509
 2228 0286 C4F20003 		movt	r3, #:upper16:1073764509
 2229 028a 4FF00A02 		mov	r2, #10
 2230 028e 1A70     		strb	r2, [r3, #0]
1150:.\Generated_Source\PSoC5/adc.c ****         #if (CY_PSOC5A)
1151:.\Generated_Source\PSoC5/adc.c ****             adc_DSM_CLK_REG    |= adc_CFG1_DSM_CLK; 
 2231              		.loc 1 1151 0
 2232 0290 45F60733 		movw	r3, #:lower16:1073765127
 2233 0294 C4F20003 		movt	r3, #:upper16:1073765127
 2234 0298 45F60732 		movw	r2, #:lower16:1073765127
 2235 029c C4F20002 		movt	r2, #:upper16:1073765127
 2236 02a0 1278     		ldrb	r2, [r2, #0]
 2237 02a2 D2B2     		uxtb	r2, r2
 2238 02a4 42F01802 		orr	r2, r2, #24
 2239 02a8 D2B2     		uxtb	r2, r2
 2240 02aa 1A70     		strb	r2, [r3, #0]
1152:.\Generated_Source\PSoC5/adc.c ****         #endif /* CY_PSOC5A */
1153:.\Generated_Source\PSoC5/adc.c ****         
1154:.\Generated_Source\PSoC5/adc.c ****         /* To select either Vssa or Vref to -ve input of DSM depending on 
1155:.\Generated_Source\PSoC5/adc.c ****           the input  range selected.
1156:.\Generated_Source\PSoC5/adc.c ****         */
1157:.\Generated_Source\PSoC5/adc.c ****         
1158:.\Generated_Source\PSoC5/adc.c ****         #if(adc_DEFAULT_INPUT_MODE)
1159:.\Generated_Source\PSoC5/adc.c ****             #if (CY_PSOC3 || CY_PSOC5LP)
1160:.\Generated_Source\PSoC5/adc.c ****                 #if (adc_CFG1_RANGE == adc_IR_VSSA_TO_2VREF)
1161:.\Generated_Source\PSoC5/adc.c ****                     adc_AMux_Select(1);
1162:.\Generated_Source\PSoC5/adc.c ****                 #else
1163:.\Generated_Source\PSoC5/adc.c ****                     adc_AMux_Select(0);
1164:.\Generated_Source\PSoC5/adc.c ****                 #endif /* adc_IR_VSSA_TO_2VREF) */
1165:.\Generated_Source\PSoC5/adc.c ****             #elif (CY_PSOC5A)
1166:.\Generated_Source\PSoC5/adc.c ****                 adc_AMux_Select(0);
1167:.\Generated_Source\PSoC5/adc.c ****             #endif /* CY_PSOC3 || CY_PSOC5LP */
1168:.\Generated_Source\PSoC5/adc.c ****         #endif /* adc_DEFAULT_INPUT_MODE */
1169:.\Generated_Source\PSoC5/adc.c ****         
1170:.\Generated_Source\PSoC5/adc.c ****         /* Set the Conversion stop if resolution is above 16 bit and conversion 
1171:.\Generated_Source\PSoC5/adc.c ****            mode is Single sample */
1172:.\Generated_Source\PSoC5/adc.c ****         #if(adc_CFG1_RESOLUTION > 16 && \
1173:.\Generated_Source\PSoC5/adc.c ****             adc_CFG1_CONV_MODE == adc_MODE_SINGLE_SAMPLE) 
1174:.\Generated_Source\PSoC5/adc.c ****             adc_stopConversion = 1;
1175:.\Generated_Source\PSoC5/adc.c ****         #endif /* Single sample with resolution above 16 bits. */
1176:.\Generated_Source\PSoC5/adc.c ****         adc_CountsPerVolt = (uint32)adc_CFG1_COUNTS_PER_VOLT;
ARM GAS  C:\Users\arh\AppData\Local\Temp\ccpMsX4j.s 			page 61


 2241              		.loc 1 1176 0
 2242 02ac 40F20003 		movw	r3, #:lower16:adc_CountsPerVolt
 2243 02b0 C0F20003 		movt	r3, #:upper16:adc_CountsPerVolt
 2244 02b4 4FF4FA42 		mov	r2, #32000
 2245 02b8 1A60     		str	r2, [r3, #0]
1177:.\Generated_Source\PSoC5/adc.c ****         
1178:.\Generated_Source\PSoC5/adc.c ****         /* Start and set interrupt vector */
1179:.\Generated_Source\PSoC5/adc.c ****         CyIntSetPriority(adc_IRQ__INTC_NUMBER, adc_IRQ_INTC_PRIOR_NUMBER);
 2246              		.loc 1 1179 0
 2247 02ba 4FF01D00 		mov	r0, #29
 2248 02be 4FF00701 		mov	r1, #7
 2249 02c2 FFF7FEFF 		bl	CyIntSetPriority
1180:.\Generated_Source\PSoC5/adc.c ****         CyIntSetVector(adc_IRQ__INTC_NUMBER, adc_ISR1 );
 2250              		.loc 1 1180 0
 2251 02c6 4FF01D00 		mov	r0, #29
 2252 02ca 40F20001 		movw	r1, #:lower16:adc_ISR1
 2253 02ce C0F20001 		movt	r1, #:upper16:adc_ISR1
 2254 02d2 FFF7FEFF 		bl	CyIntSetVector
1181:.\Generated_Source\PSoC5/adc.c ****         CyIntEnable(adc_IRQ__INTC_NUMBER);
 2255              		.loc 1 1181 0
 2256 02d6 4FF01D00 		mov	r0, #29
 2257 02da FFF7FEFF 		bl	CyIntEnable
 2258              	.L92:
1182:.\Generated_Source\PSoC5/adc.c ****     }
1183:.\Generated_Source\PSoC5/adc.c ****     
1184:.\Generated_Source\PSoC5/adc.c ****     #if(adc_DEFAULT_NUM_CONFIGS > 1)
1185:.\Generated_Source\PSoC5/adc.c ****         if(config == 2u)
 2259              		.loc 1 1185 0
 2260 02de FB79     		ldrb	r3, [r7, #7]	@ zero_extendqisi2
 2261 02e0 022B     		cmp	r3, #2
 2262 02e2 40F0EF80 		bne	.L93
1186:.\Generated_Source\PSoC5/adc.c ****         {
1187:.\Generated_Source\PSoC5/adc.c ****             /* Second Config */
1188:.\Generated_Source\PSoC5/adc.c ****             adc_DEC_CR_REG      = adc_CFG2_DEC_CR;      
 2263              		.loc 1 1188 0
 2264 02e6 44F60063 		movw	r3, #:lower16:1073761792
 2265 02ea C4F20003 		movt	r3, #:upper16:1073761792
 2266 02ee 4FF03802 		mov	r2, #56
 2267 02f2 1A70     		strb	r2, [r3, #0]
1189:.\Generated_Source\PSoC5/adc.c ****             adc_DEC_SHIFT1_REG  = adc_CFG2_DEC_SHIFT1;  
 2268              		.loc 1 1189 0
 2269 02f4 44F60263 		movw	r3, #:lower16:1073761794
 2270 02f8 C4F20003 		movt	r3, #:upper16:1073761794
 2271 02fc 4FF00402 		mov	r2, #4
 2272 0300 1A70     		strb	r2, [r3, #0]
1190:.\Generated_Source\PSoC5/adc.c ****             adc_DEC_SHIFT2_REG  = adc_CFG2_DEC_SHIFT2;  
 2273              		.loc 1 1190 0
 2274 0302 44F60363 		movw	r3, #:lower16:1073761795
 2275 0306 C4F20003 		movt	r3, #:upper16:1073761795
 2276 030a 4FF00702 		mov	r2, #7
 2277 030e 1A70     		strb	r2, [r3, #0]
1191:.\Generated_Source\PSoC5/adc.c ****             adc_DEC_DR2_REG     = adc_CFG2_DEC_DR2;     
 2278              		.loc 1 1191 0
 2279 0310 44F60463 		movw	r3, #:lower16:1073761796
 2280 0314 C4F20003 		movt	r3, #:upper16:1073761796
 2281 0318 4FF00002 		mov	r2, #0
 2282 031c 1A70     		strb	r2, [r3, #0]
ARM GAS  C:\Users\arh\AppData\Local\Temp\ccpMsX4j.s 			page 62


1192:.\Generated_Source\PSoC5/adc.c ****             adc_DEC_DR2H_REG    = adc_CFG2_DEC_DR2H;    
 2283              		.loc 1 1192 0
 2284 031e 44F60563 		movw	r3, #:lower16:1073761797
 2285 0322 C4F20003 		movt	r3, #:upper16:1073761797
 2286 0326 4FF00002 		mov	r2, #0
 2287 032a 1A70     		strb	r2, [r3, #0]
1193:.\Generated_Source\PSoC5/adc.c ****             adc_DEC_DR1_REG     = adc_CFG2_DEC_DR1;     
 2288              		.loc 1 1193 0
 2289 032c 44F60663 		movw	r3, #:lower16:1073761798
 2290 0330 C4F20003 		movt	r3, #:upper16:1073761798
 2291 0334 4FF03F02 		mov	r2, #63
 2292 0338 1A70     		strb	r2, [r3, #0]
1194:.\Generated_Source\PSoC5/adc.c ****             adc_DEC_OCOR_REG    = adc_CFG2_DEC_OCOR;    
 2293              		.loc 1 1194 0
 2294 033a 44F60863 		movw	r3, #:lower16:1073761800
 2295 033e C4F20003 		movt	r3, #:upper16:1073761800
 2296 0342 4FF00002 		mov	r2, #0
 2297 0346 1A70     		strb	r2, [r3, #0]
1195:.\Generated_Source\PSoC5/adc.c ****             adc_DEC_OCORM_REG   = adc_CFG2_DEC_OCORM;   
 2298              		.loc 1 1195 0
 2299 0348 44F60963 		movw	r3, #:lower16:1073761801
 2300 034c C4F20003 		movt	r3, #:upper16:1073761801
 2301 0350 4FF00002 		mov	r2, #0
 2302 0354 1A70     		strb	r2, [r3, #0]
1196:.\Generated_Source\PSoC5/adc.c ****             adc_DEC_OCORH_REG   = adc_CFG2_DEC_OCORH;   
 2303              		.loc 1 1196 0
 2304 0356 44F60A63 		movw	r3, #:lower16:1073761802
 2305 035a C4F20003 		movt	r3, #:upper16:1073761802
 2306 035e 4FF00002 		mov	r2, #0
 2307 0362 1A70     		strb	r2, [r3, #0]
1197:.\Generated_Source\PSoC5/adc.c ****         
1198:.\Generated_Source\PSoC5/adc.c ****             adc_DSM_CR4_REG     = adc_CFG2_DSM_CR4;     
 2308              		.loc 1 1198 0
 2309 0364 45F68403 		movw	r3, #:lower16:1073764484
 2310 0368 C4F20003 		movt	r3, #:upper16:1073764484
 2311 036c 4FF05002 		mov	r2, #80
 2312 0370 1A70     		strb	r2, [r3, #0]
1199:.\Generated_Source\PSoC5/adc.c ****             adc_DSM_CR5_REG     = adc_CFG2_DSM_CR5;     
 2313              		.loc 1 1199 0
 2314 0372 45F68503 		movw	r3, #:lower16:1073764485
 2315 0376 C4F20003 		movt	r3, #:upper16:1073764485
 2316 037a 4FF02702 		mov	r2, #39
 2317 037e 1A70     		strb	r2, [r3, #0]
1200:.\Generated_Source\PSoC5/adc.c ****             adc_DSM_CR6_REG     = adc_CFG2_DSM_CR6;     
 2318              		.loc 1 1200 0
 2319 0380 45F68603 		movw	r3, #:lower16:1073764486
 2320 0384 C4F20003 		movt	r3, #:upper16:1073764486
 2321 0388 4FF02C02 		mov	r2, #44
 2322 038c 1A70     		strb	r2, [r3, #0]
1201:.\Generated_Source\PSoC5/adc.c ****             adc_DSM_CR7_REG     = adc_CFG2_DSM_CR7;     
 2323              		.loc 1 1201 0
 2324 038e 45F68703 		movw	r3, #:lower16:1073764487
 2325 0392 C4F20003 		movt	r3, #:upper16:1073764487
 2326 0396 4FF00002 		mov	r2, #0
 2327 039a 1A70     		strb	r2, [r3, #0]
1202:.\Generated_Source\PSoC5/adc.c ****             adc_DSM_CR8_REG     = adc_CFG2_DSM_CR8;     
 2328              		.loc 1 1202 0
ARM GAS  C:\Users\arh\AppData\Local\Temp\ccpMsX4j.s 			page 63


 2329 039c 45F68803 		movw	r3, #:lower16:1073764488
 2330 03a0 C4F20003 		movt	r3, #:upper16:1073764488
 2331 03a4 4FF01202 		mov	r2, #18
 2332 03a8 1A70     		strb	r2, [r3, #0]
1203:.\Generated_Source\PSoC5/adc.c ****             adc_DSM_CR9_REG     = adc_CFG2_DSM_CR9;     
 2333              		.loc 1 1203 0
 2334 03aa 45F68903 		movw	r3, #:lower16:1073764489
 2335 03ae C4F20003 		movt	r3, #:upper16:1073764489
 2336 03b2 4FF01302 		mov	r2, #19
 2337 03b6 1A70     		strb	r2, [r3, #0]
1204:.\Generated_Source\PSoC5/adc.c ****             adc_DSM_CR10_REG    = adc_CFG2_DSM_CR10;    
 2338              		.loc 1 1204 0
 2339 03b8 45F68A03 		movw	r3, #:lower16:1073764490
 2340 03bc C4F20003 		movt	r3, #:upper16:1073764490
 2341 03c0 4FF05502 		mov	r2, #85
 2342 03c4 1A70     		strb	r2, [r3, #0]
1205:.\Generated_Source\PSoC5/adc.c ****             adc_DSM_CR11_REG    = adc_CFG2_DSM_CR11;    
 2343              		.loc 1 1205 0
 2344 03c6 45F68B03 		movw	r3, #:lower16:1073764491
 2345 03ca C4F20003 		movt	r3, #:upper16:1073764491
 2346 03ce 4FF05A02 		mov	r2, #90
 2347 03d2 1A70     		strb	r2, [r3, #0]
1206:.\Generated_Source\PSoC5/adc.c ****             adc_DSM_CR12_REG    = adc_CFG2_DSM_CR12;    
 2348              		.loc 1 1206 0
 2349 03d4 45F68C03 		movw	r3, #:lower16:1073764492
 2350 03d8 C4F20003 		movt	r3, #:upper16:1073764492
 2351 03dc 4FF00502 		mov	r2, #5
 2352 03e0 1A70     		strb	r2, [r3, #0]
1207:.\Generated_Source\PSoC5/adc.c ****             adc_DSM_CR14_REG    = adc_CFG2_DSM_CR14;    
 2353              		.loc 1 1207 0
 2354 03e2 45F68E03 		movw	r3, #:lower16:1073764494
 2355 03e6 C4F20003 		movt	r3, #:upper16:1073764494
 2356 03ea 4FF00102 		mov	r2, #1
 2357 03ee 1A70     		strb	r2, [r3, #0]
1208:.\Generated_Source\PSoC5/adc.c ****             adc_DSM_CR15_REG    = adc_CFG2_DSM_CR15;    
 2358              		.loc 1 1208 0
 2359 03f0 45F68F03 		movw	r3, #:lower16:1073764495
 2360 03f4 C4F20003 		movt	r3, #:upper16:1073764495
 2361 03f8 4FF01102 		mov	r2, #17
 2362 03fc 1A70     		strb	r2, [r3, #0]
1209:.\Generated_Source\PSoC5/adc.c ****             adc_DSM_CR16_REG    = adc_CFG2_DSM_CR16;    
 2363              		.loc 1 1209 0
 2364 03fe 45F69003 		movw	r3, #:lower16:1073764496
 2365 0402 C4F20003 		movt	r3, #:upper16:1073764496
 2366 0406 4FF01902 		mov	r2, #25
 2367 040a 1A70     		strb	r2, [r3, #0]
1210:.\Generated_Source\PSoC5/adc.c ****             adc_DSM_CR17_REG    = adc_CFG2_DSM_CR17;    
 2368              		.loc 1 1210 0
 2369 040c 45F69103 		movw	r3, #:lower16:1073764497
 2370 0410 C4F20003 		movt	r3, #:upper16:1073764497
 2371 0414 6FF06802 		mvn	r2, #104
 2372 0418 1A70     		strb	r2, [r3, #0]
1211:.\Generated_Source\PSoC5/adc.c **** 			/* Set DSM_REF0_REG by disabling and enabling the PRESS cirucit */
1212:.\Generated_Source\PSoC5/adc.c **** 			adc_SetDSMRef0Reg(adc_CFG2_DSM_REF0);
 2373              		.loc 1 1212 0
 2374 041a 4FF04400 		mov	r0, #68
 2375 041e FFF7FEFF 		bl	adc_SetDSMRef0Reg
ARM GAS  C:\Users\arh\AppData\Local\Temp\ccpMsX4j.s 			page 64


1213:.\Generated_Source\PSoC5/adc.c ****             adc_DSM_REF2_REG    = adc_CFG2_DSM_REF2;    
 2376              		.loc 1 1213 0
 2377 0422 45F69403 		movw	r3, #:lower16:1073764500
 2378 0426 C4F20003 		movt	r3, #:upper16:1073764500
 2379 042a 4FF05802 		mov	r2, #88
 2380 042e 1A70     		strb	r2, [r3, #0]
1214:.\Generated_Source\PSoC5/adc.c ****             adc_DSM_REF3_REG    = adc_CFG2_DSM_REF3;    
 2381              		.loc 1 1214 0
 2382 0430 45F69503 		movw	r3, #:lower16:1073764501
 2383 0434 C4F20003 		movt	r3, #:upper16:1073764501
 2384 0438 4FF00002 		mov	r2, #0
 2385 043c 1A70     		strb	r2, [r3, #0]
1215:.\Generated_Source\PSoC5/adc.c ****         
1216:.\Generated_Source\PSoC5/adc.c ****             adc_DSM_BUF0_REG    = adc_CFG2_DSM_BUF0;    
 2386              		.loc 1 1216 0
 2387 043e 45F69A03 		movw	r3, #:lower16:1073764506
 2388 0442 C4F20003 		movt	r3, #:upper16:1073764506
 2389 0446 4FF00502 		mov	r2, #5
 2390 044a 1A70     		strb	r2, [r3, #0]
1217:.\Generated_Source\PSoC5/adc.c ****             adc_DSM_BUF1_REG    = adc_CFG2_DSM_BUF1;    
 2391              		.loc 1 1217 0
 2392 044c 45F69B03 		movw	r3, #:lower16:1073764507
 2393 0450 C4F20003 		movt	r3, #:upper16:1073764507
 2394 0454 4FF00102 		mov	r2, #1
 2395 0458 1A70     		strb	r2, [r3, #0]
1218:.\Generated_Source\PSoC5/adc.c ****             adc_DSM_BUF2_REG    = adc_CFG2_DSM_BUF2;    
 2396              		.loc 1 1218 0
 2397 045a 45F69C03 		movw	r3, #:lower16:1073764508
 2398 045e C4F20003 		movt	r3, #:upper16:1073764508
 2399 0462 4FF00102 		mov	r2, #1
 2400 0466 1A70     		strb	r2, [r3, #0]
1219:.\Generated_Source\PSoC5/adc.c ****             adc_DSM_BUF3_REG    = adc_CFG2_DSM_BUF3; 
 2401              		.loc 1 1219 0
 2402 0468 45F69D03 		movw	r3, #:lower16:1073764509
 2403 046c C4F20003 		movt	r3, #:upper16:1073764509
 2404 0470 4FF00A02 		mov	r2, #10
 2405 0474 1A70     		strb	r2, [r3, #0]
1220:.\Generated_Source\PSoC5/adc.c ****             #if (CY_PSOC5A)
1221:.\Generated_Source\PSoC5/adc.c ****                 adc_DSM_CLK_REG    |= adc_CFG1_DSM_CLK; 
 2406              		.loc 1 1221 0
 2407 0476 45F60733 		movw	r3, #:lower16:1073765127
 2408 047a C4F20003 		movt	r3, #:upper16:1073765127
 2409 047e 45F60732 		movw	r2, #:lower16:1073765127
 2410 0482 C4F20002 		movt	r2, #:upper16:1073765127
 2411 0486 1278     		ldrb	r2, [r2, #0]
 2412 0488 D2B2     		uxtb	r2, r2
 2413 048a 42F01802 		orr	r2, r2, #24
 2414 048e D2B2     		uxtb	r2, r2
 2415 0490 1A70     		strb	r2, [r3, #0]
1222:.\Generated_Source\PSoC5/adc.c ****             #endif /* CY_PSOC5A */
1223:.\Generated_Source\PSoC5/adc.c ****             
1224:.\Generated_Source\PSoC5/adc.c ****             /* To select either Vssa or Vref to -ve input of DSM depending on 
1225:.\Generated_Source\PSoC5/adc.c ****                the input range selected.
1226:.\Generated_Source\PSoC5/adc.c ****             */
1227:.\Generated_Source\PSoC5/adc.c ****             
1228:.\Generated_Source\PSoC5/adc.c ****             #if(adc_DEFAULT_INPUT_MODE)
1229:.\Generated_Source\PSoC5/adc.c ****                 #if (CY_PSOC3 || CY_PSOC5LP)
ARM GAS  C:\Users\arh\AppData\Local\Temp\ccpMsX4j.s 			page 65


1230:.\Generated_Source\PSoC5/adc.c ****                     #if (adc_CFG2_INPUT_RANGE == adc_IR_VSSA_TO_2VREF)
1231:.\Generated_Source\PSoC5/adc.c ****                         adc_AMux_Select(1);
1232:.\Generated_Source\PSoC5/adc.c ****                     #else
1233:.\Generated_Source\PSoC5/adc.c ****                         adc_AMux_Select(0);
1234:.\Generated_Source\PSoC5/adc.c ****                     #endif /* adc_IR_VSSA_TO_2VREF) */
1235:.\Generated_Source\PSoC5/adc.c ****                 #elif (CY_PSOC5A)
1236:.\Generated_Source\PSoC5/adc.c ****                     adc_AMux_Select(0);
1237:.\Generated_Source\PSoC5/adc.c ****                 #endif /* CY_PSOC3 || CY_PSOC5LP */
1238:.\Generated_Source\PSoC5/adc.c ****             #endif /* adc_DEFAULT_INPUT_MODE */
1239:.\Generated_Source\PSoC5/adc.c ****             
1240:.\Generated_Source\PSoC5/adc.c ****             /* Set the Conversion stop if resolution is above 16 bit and 
1241:.\Generated_Source\PSoC5/adc.c ****                conversion mode is Single sample */
1242:.\Generated_Source\PSoC5/adc.c ****             #if(adc_CFG2_RESOLUTION > 16 && \
1243:.\Generated_Source\PSoC5/adc.c ****                 adc_CFG2_CONVMODE == adc_MODE_SINGLE_SAMPLE) 
1244:.\Generated_Source\PSoC5/adc.c ****                 adc_stopConversion = 1;
1245:.\Generated_Source\PSoC5/adc.c ****             #endif /* Single sample with resolution above 16 bits. */
1246:.\Generated_Source\PSoC5/adc.c ****             
1247:.\Generated_Source\PSoC5/adc.c ****             adc_CountsPerVolt = (uint32)adc_CFG2_COUNTS_PER_VOLT;
 2416              		.loc 1 1247 0
 2417 0492 40F20003 		movw	r3, #:lower16:adc_CountsPerVolt
 2418 0496 C0F20003 		movt	r3, #:upper16:adc_CountsPerVolt
 2419 049a 4FF4FA42 		mov	r2, #32000
 2420 049e 1A60     		str	r2, [r3, #0]
1248:.\Generated_Source\PSoC5/adc.c ****             
1249:.\Generated_Source\PSoC5/adc.c ****             /* Start and set interrupt vector */
1250:.\Generated_Source\PSoC5/adc.c ****             CyIntSetPriority(adc_IRQ__INTC_NUMBER, adc_IRQ_INTC_PRIOR_NUMBER);
 2421              		.loc 1 1250 0
 2422 04a0 4FF01D00 		mov	r0, #29
 2423 04a4 4FF00701 		mov	r1, #7
 2424 04a8 FFF7FEFF 		bl	CyIntSetPriority
1251:.\Generated_Source\PSoC5/adc.c ****             CyIntSetVector(adc_IRQ__INTC_NUMBER, adc_ISR2 );
 2425              		.loc 1 1251 0
 2426 04ac 4FF01D00 		mov	r0, #29
 2427 04b0 40F20001 		movw	r1, #:lower16:adc_ISR2
 2428 04b4 C0F20001 		movt	r1, #:upper16:adc_ISR2
 2429 04b8 FFF7FEFF 		bl	CyIntSetVector
1252:.\Generated_Source\PSoC5/adc.c ****             CyIntEnable(adc_IRQ__INTC_NUMBER);
 2430              		.loc 1 1252 0
 2431 04bc 4FF01D00 		mov	r0, #29
 2432 04c0 FFF7FEFF 		bl	CyIntEnable
 2433              	.L93:
1253:.\Generated_Source\PSoC5/adc.c ****         }
1254:.\Generated_Source\PSoC5/adc.c ****     #endif /* adc_DEFAULT_NUM_CONFIGS > 1 */
1255:.\Generated_Source\PSoC5/adc.c **** 
1256:.\Generated_Source\PSoC5/adc.c ****     #if(adc_DEFAULT_NUM_CONFIGS > 2)
1257:.\Generated_Source\PSoC5/adc.c ****         if(config == 3u)
 2434              		.loc 1 1257 0
 2435 04c4 FB79     		ldrb	r3, [r7, #7]	@ zero_extendqisi2
 2436 04c6 032B     		cmp	r3, #3
 2437 04c8 40F0EF80 		bne	.L94
1258:.\Generated_Source\PSoC5/adc.c ****         {
1259:.\Generated_Source\PSoC5/adc.c ****             /* Third Config */
1260:.\Generated_Source\PSoC5/adc.c ****             adc_DEC_CR_REG      = adc_CFG3_DEC_CR;      
 2438              		.loc 1 1260 0
 2439 04cc 44F60063 		movw	r3, #:lower16:1073761792
 2440 04d0 C4F20003 		movt	r3, #:upper16:1073761792
 2441 04d4 4FF03802 		mov	r2, #56
ARM GAS  C:\Users\arh\AppData\Local\Temp\ccpMsX4j.s 			page 66


 2442 04d8 1A70     		strb	r2, [r3, #0]
1261:.\Generated_Source\PSoC5/adc.c ****             adc_DEC_SHIFT1_REG  = adc_CFG3_DEC_SHIFT1;  
 2443              		.loc 1 1261 0
 2444 04da 44F60263 		movw	r3, #:lower16:1073761794
 2445 04de C4F20003 		movt	r3, #:upper16:1073761794
 2446 04e2 4FF00402 		mov	r2, #4
 2447 04e6 1A70     		strb	r2, [r3, #0]
1262:.\Generated_Source\PSoC5/adc.c ****             adc_DEC_SHIFT2_REG  = adc_CFG3_DEC_SHIFT2;  
 2448              		.loc 1 1262 0
 2449 04e8 44F60363 		movw	r3, #:lower16:1073761795
 2450 04ec C4F20003 		movt	r3, #:upper16:1073761795
 2451 04f0 4FF00702 		mov	r2, #7
 2452 04f4 1A70     		strb	r2, [r3, #0]
1263:.\Generated_Source\PSoC5/adc.c ****             adc_DEC_DR2_REG     = adc_CFG3_DEC_DR2;     
 2453              		.loc 1 1263 0
 2454 04f6 44F60463 		movw	r3, #:lower16:1073761796
 2455 04fa C4F20003 		movt	r3, #:upper16:1073761796
 2456 04fe 4FF00002 		mov	r2, #0
 2457 0502 1A70     		strb	r2, [r3, #0]
1264:.\Generated_Source\PSoC5/adc.c ****             adc_DEC_DR2H_REG    = adc_CFG3_DEC_DR2H;    
 2458              		.loc 1 1264 0
 2459 0504 44F60563 		movw	r3, #:lower16:1073761797
 2460 0508 C4F20003 		movt	r3, #:upper16:1073761797
 2461 050c 4FF00002 		mov	r2, #0
 2462 0510 1A70     		strb	r2, [r3, #0]
1265:.\Generated_Source\PSoC5/adc.c ****             adc_DEC_DR1_REG     = adc_CFG3_DEC_DR1;     
 2463              		.loc 1 1265 0
 2464 0512 44F60663 		movw	r3, #:lower16:1073761798
 2465 0516 C4F20003 		movt	r3, #:upper16:1073761798
 2466 051a 4FF03F02 		mov	r2, #63
 2467 051e 1A70     		strb	r2, [r3, #0]
1266:.\Generated_Source\PSoC5/adc.c ****             adc_DEC_OCOR_REG    = adc_CFG3_DEC_OCOR;    
 2468              		.loc 1 1266 0
 2469 0520 44F60863 		movw	r3, #:lower16:1073761800
 2470 0524 C4F20003 		movt	r3, #:upper16:1073761800
 2471 0528 4FF00002 		mov	r2, #0
 2472 052c 1A70     		strb	r2, [r3, #0]
1267:.\Generated_Source\PSoC5/adc.c ****             adc_DEC_OCORM_REG   = adc_CFG3_DEC_OCORM;   
 2473              		.loc 1 1267 0
 2474 052e 44F60963 		movw	r3, #:lower16:1073761801
 2475 0532 C4F20003 		movt	r3, #:upper16:1073761801
 2476 0536 4FF00002 		mov	r2, #0
 2477 053a 1A70     		strb	r2, [r3, #0]
1268:.\Generated_Source\PSoC5/adc.c ****             adc_DEC_OCORH_REG   = adc_CFG3_DEC_OCORH;   
 2478              		.loc 1 1268 0
 2479 053c 44F60A63 		movw	r3, #:lower16:1073761802
 2480 0540 C4F20003 		movt	r3, #:upper16:1073761802
 2481 0544 4FF00002 		mov	r2, #0
 2482 0548 1A70     		strb	r2, [r3, #0]
1269:.\Generated_Source\PSoC5/adc.c ****          
1270:.\Generated_Source\PSoC5/adc.c ****             adc_DSM_CR4_REG     = adc_CFG3_DSM_CR4;     
 2483              		.loc 1 1270 0
 2484 054a 45F68403 		movw	r3, #:lower16:1073764484
 2485 054e C4F20003 		movt	r3, #:upper16:1073764484
 2486 0552 4FF05002 		mov	r2, #80
 2487 0556 1A70     		strb	r2, [r3, #0]
1271:.\Generated_Source\PSoC5/adc.c ****             adc_DSM_CR5_REG     = adc_CFG3_DSM_CR5;     
ARM GAS  C:\Users\arh\AppData\Local\Temp\ccpMsX4j.s 			page 67


 2488              		.loc 1 1271 0
 2489 0558 45F68503 		movw	r3, #:lower16:1073764485
 2490 055c C4F20003 		movt	r3, #:upper16:1073764485
 2491 0560 4FF02702 		mov	r2, #39
 2492 0564 1A70     		strb	r2, [r3, #0]
1272:.\Generated_Source\PSoC5/adc.c ****             adc_DSM_CR6_REG     = adc_CFG3_DSM_CR6;     
 2493              		.loc 1 1272 0
 2494 0566 45F68603 		movw	r3, #:lower16:1073764486
 2495 056a C4F20003 		movt	r3, #:upper16:1073764486
 2496 056e 4FF02C02 		mov	r2, #44
 2497 0572 1A70     		strb	r2, [r3, #0]
1273:.\Generated_Source\PSoC5/adc.c ****             adc_DSM_CR7_REG     = adc_CFG3_DSM_CR7;     
 2498              		.loc 1 1273 0
 2499 0574 45F68703 		movw	r3, #:lower16:1073764487
 2500 0578 C4F20003 		movt	r3, #:upper16:1073764487
 2501 057c 4FF00002 		mov	r2, #0
 2502 0580 1A70     		strb	r2, [r3, #0]
1274:.\Generated_Source\PSoC5/adc.c ****             adc_DSM_CR8_REG     = adc_CFG3_DSM_CR8;     
 2503              		.loc 1 1274 0
 2504 0582 45F68803 		movw	r3, #:lower16:1073764488
 2505 0586 C4F20003 		movt	r3, #:upper16:1073764488
 2506 058a 4FF01202 		mov	r2, #18
 2507 058e 1A70     		strb	r2, [r3, #0]
1275:.\Generated_Source\PSoC5/adc.c ****             adc_DSM_CR9_REG     = adc_CFG3_DSM_CR9;     
 2508              		.loc 1 1275 0
 2509 0590 45F68903 		movw	r3, #:lower16:1073764489
 2510 0594 C4F20003 		movt	r3, #:upper16:1073764489
 2511 0598 4FF01302 		mov	r2, #19
 2512 059c 1A70     		strb	r2, [r3, #0]
1276:.\Generated_Source\PSoC5/adc.c ****             adc_DSM_CR10_REG    = adc_CFG3_DSM_CR10;    
 2513              		.loc 1 1276 0
 2514 059e 45F68A03 		movw	r3, #:lower16:1073764490
 2515 05a2 C4F20003 		movt	r3, #:upper16:1073764490
 2516 05a6 4FF05502 		mov	r2, #85
 2517 05aa 1A70     		strb	r2, [r3, #0]
1277:.\Generated_Source\PSoC5/adc.c ****             adc_DSM_CR11_REG    = adc_CFG3_DSM_CR11;    
 2518              		.loc 1 1277 0
 2519 05ac 45F68B03 		movw	r3, #:lower16:1073764491
 2520 05b0 C4F20003 		movt	r3, #:upper16:1073764491
 2521 05b4 4FF05A02 		mov	r2, #90
 2522 05b8 1A70     		strb	r2, [r3, #0]
1278:.\Generated_Source\PSoC5/adc.c ****             adc_DSM_CR12_REG    = adc_CFG3_DSM_CR12;    
 2523              		.loc 1 1278 0
 2524 05ba 45F68C03 		movw	r3, #:lower16:1073764492
 2525 05be C4F20003 		movt	r3, #:upper16:1073764492
 2526 05c2 4FF00502 		mov	r2, #5
 2527 05c6 1A70     		strb	r2, [r3, #0]
1279:.\Generated_Source\PSoC5/adc.c ****             adc_DSM_CR14_REG    = adc_CFG3_DSM_CR14;    
 2528              		.loc 1 1279 0
 2529 05c8 45F68E03 		movw	r3, #:lower16:1073764494
 2530 05cc C4F20003 		movt	r3, #:upper16:1073764494
 2531 05d0 4FF00102 		mov	r2, #1
 2532 05d4 1A70     		strb	r2, [r3, #0]
1280:.\Generated_Source\PSoC5/adc.c ****             adc_DSM_CR15_REG    = adc_CFG3_DSM_CR15;    
 2533              		.loc 1 1280 0
 2534 05d6 45F68F03 		movw	r3, #:lower16:1073764495
 2535 05da C4F20003 		movt	r3, #:upper16:1073764495
ARM GAS  C:\Users\arh\AppData\Local\Temp\ccpMsX4j.s 			page 68


 2536 05de 4FF01102 		mov	r2, #17
 2537 05e2 1A70     		strb	r2, [r3, #0]
1281:.\Generated_Source\PSoC5/adc.c ****             adc_DSM_CR16_REG    = adc_CFG3_DSM_CR16;    
 2538              		.loc 1 1281 0
 2539 05e4 45F69003 		movw	r3, #:lower16:1073764496
 2540 05e8 C4F20003 		movt	r3, #:upper16:1073764496
 2541 05ec 4FF01902 		mov	r2, #25
 2542 05f0 1A70     		strb	r2, [r3, #0]
1282:.\Generated_Source\PSoC5/adc.c ****             adc_DSM_CR17_REG    = adc_CFG3_DSM_CR17;    
 2543              		.loc 1 1282 0
 2544 05f2 45F69103 		movw	r3, #:lower16:1073764497
 2545 05f6 C4F20003 		movt	r3, #:upper16:1073764497
 2546 05fa 6FF06802 		mvn	r2, #104
 2547 05fe 1A70     		strb	r2, [r3, #0]
1283:.\Generated_Source\PSoC5/adc.c **** 			/* Set DSM_REF0_REG by disabling and enabling the PRESS cirucit */
1284:.\Generated_Source\PSoC5/adc.c **** 			adc_SetDSMRef0Reg(adc_CFG3_DSM_REF0);
 2548              		.loc 1 1284 0
 2549 0600 4FF04400 		mov	r0, #68
 2550 0604 FFF7FEFF 		bl	adc_SetDSMRef0Reg
1285:.\Generated_Source\PSoC5/adc.c ****             adc_DSM_REF2_REG    = adc_CFG3_DSM_REF2;    
 2551              		.loc 1 1285 0
 2552 0608 45F69403 		movw	r3, #:lower16:1073764500
 2553 060c C4F20003 		movt	r3, #:upper16:1073764500
 2554 0610 4FF05802 		mov	r2, #88
 2555 0614 1A70     		strb	r2, [r3, #0]
1286:.\Generated_Source\PSoC5/adc.c ****             adc_DSM_REF3_REG    = adc_CFG3_DSM_REF3;    
 2556              		.loc 1 1286 0
 2557 0616 45F69503 		movw	r3, #:lower16:1073764501
 2558 061a C4F20003 		movt	r3, #:upper16:1073764501
 2559 061e 4FF00002 		mov	r2, #0
 2560 0622 1A70     		strb	r2, [r3, #0]
1287:.\Generated_Source\PSoC5/adc.c ****         
1288:.\Generated_Source\PSoC5/adc.c ****             adc_DSM_BUF0_REG    = adc_CFG3_DSM_BUF0;    
 2561              		.loc 1 1288 0
 2562 0624 45F69A03 		movw	r3, #:lower16:1073764506
 2563 0628 C4F20003 		movt	r3, #:upper16:1073764506
 2564 062c 4FF00502 		mov	r2, #5
 2565 0630 1A70     		strb	r2, [r3, #0]
1289:.\Generated_Source\PSoC5/adc.c ****             adc_DSM_BUF1_REG    = adc_CFG3_DSM_BUF1;    
 2566              		.loc 1 1289 0
 2567 0632 45F69B03 		movw	r3, #:lower16:1073764507
 2568 0636 C4F20003 		movt	r3, #:upper16:1073764507
 2569 063a 4FF00102 		mov	r2, #1
 2570 063e 1A70     		strb	r2, [r3, #0]
1290:.\Generated_Source\PSoC5/adc.c ****             adc_DSM_BUF2_REG    = adc_CFG3_DSM_BUF2;
 2571              		.loc 1 1290 0
 2572 0640 45F69C03 		movw	r3, #:lower16:1073764508
 2573 0644 C4F20003 		movt	r3, #:upper16:1073764508
 2574 0648 4FF00102 		mov	r2, #1
 2575 064c 1A70     		strb	r2, [r3, #0]
1291:.\Generated_Source\PSoC5/adc.c ****             adc_DSM_BUF3_REG    = adc_CFG3_DSM_BUF3;
 2576              		.loc 1 1291 0
 2577 064e 45F69D03 		movw	r3, #:lower16:1073764509
 2578 0652 C4F20003 		movt	r3, #:upper16:1073764509
 2579 0656 4FF00A02 		mov	r2, #10
 2580 065a 1A70     		strb	r2, [r3, #0]
1292:.\Generated_Source\PSoC5/adc.c ****             #if (CY_PSOC5A)
ARM GAS  C:\Users\arh\AppData\Local\Temp\ccpMsX4j.s 			page 69


1293:.\Generated_Source\PSoC5/adc.c ****                 adc_DSM_CLK_REG    |= adc_CFG1_DSM_CLK; 
 2581              		.loc 1 1293 0
 2582 065c 45F60733 		movw	r3, #:lower16:1073765127
 2583 0660 C4F20003 		movt	r3, #:upper16:1073765127
 2584 0664 45F60732 		movw	r2, #:lower16:1073765127
 2585 0668 C4F20002 		movt	r2, #:upper16:1073765127
 2586 066c 1278     		ldrb	r2, [r2, #0]
 2587 066e D2B2     		uxtb	r2, r2
 2588 0670 42F01802 		orr	r2, r2, #24
 2589 0674 D2B2     		uxtb	r2, r2
 2590 0676 1A70     		strb	r2, [r3, #0]
1294:.\Generated_Source\PSoC5/adc.c ****             #endif /* CY_PSOC5A */
1295:.\Generated_Source\PSoC5/adc.c ****             
1296:.\Generated_Source\PSoC5/adc.c ****             /* To select either Vssa or Vref to -ve input of DSM depending on 
1297:.\Generated_Source\PSoC5/adc.c ****                the input range selected.
1298:.\Generated_Source\PSoC5/adc.c ****             */
1299:.\Generated_Source\PSoC5/adc.c ****             
1300:.\Generated_Source\PSoC5/adc.c ****             #if(adc_DEFAULT_INPUT_MODE)
1301:.\Generated_Source\PSoC5/adc.c ****                 #if (CY_PSOC3 || CY_PSOC5LP)
1302:.\Generated_Source\PSoC5/adc.c ****                     #if (adc_CFG3_INPUT_RANGE == adc_IR_VSSA_TO_2VREF)
1303:.\Generated_Source\PSoC5/adc.c ****                         adc_AMux_Select(1);
1304:.\Generated_Source\PSoC5/adc.c ****                     #else
1305:.\Generated_Source\PSoC5/adc.c ****                         adc_AMux_Select(0);
1306:.\Generated_Source\PSoC5/adc.c ****                     #endif /* adc_IR_VSSA_TO_2VREF) */
1307:.\Generated_Source\PSoC5/adc.c ****                 #elif (CY_PSOC5A)
1308:.\Generated_Source\PSoC5/adc.c ****                     adc_AMux_Select(0);
1309:.\Generated_Source\PSoC5/adc.c ****                 #endif /* CY_PSOC3 || CY_PSOC5LP */
1310:.\Generated_Source\PSoC5/adc.c ****             #endif /* adc_DEFAULT_INPUT_MODE */
1311:.\Generated_Source\PSoC5/adc.c ****                        
1312:.\Generated_Source\PSoC5/adc.c ****             /* Set the Conversion stop if resolution is above 16 bit and 
1313:.\Generated_Source\PSoC5/adc.c ****                conversion  mode is Single sample */
1314:.\Generated_Source\PSoC5/adc.c ****             #if(adc_CFG3_RESOLUTION > 16 && \
1315:.\Generated_Source\PSoC5/adc.c ****                 adc_CFG3_CONVMODE == adc_MODE_SINGLE_SAMPLE) 
1316:.\Generated_Source\PSoC5/adc.c ****                 adc_stopConversion = 1;
1317:.\Generated_Source\PSoC5/adc.c ****             #endif /* Single sample with resolution above 16 bits */
1318:.\Generated_Source\PSoC5/adc.c ****             
1319:.\Generated_Source\PSoC5/adc.c ****             adc_CountsPerVolt = (uint32)adc_CFG3_COUNTS_PER_VOLT;
 2591              		.loc 1 1319 0
 2592 0678 40F20003 		movw	r3, #:lower16:adc_CountsPerVolt
 2593 067c C0F20003 		movt	r3, #:upper16:adc_CountsPerVolt
 2594 0680 4FF4FA42 		mov	r2, #32000
 2595 0684 1A60     		str	r2, [r3, #0]
1320:.\Generated_Source\PSoC5/adc.c ****             
1321:.\Generated_Source\PSoC5/adc.c ****             /* Start and set interrupt vector */
1322:.\Generated_Source\PSoC5/adc.c ****             CyIntSetPriority(adc_IRQ__INTC_NUMBER, adc_IRQ_INTC_PRIOR_NUMBER);
 2596              		.loc 1 1322 0
 2597 0686 4FF01D00 		mov	r0, #29
 2598 068a 4FF00701 		mov	r1, #7
 2599 068e FFF7FEFF 		bl	CyIntSetPriority
1323:.\Generated_Source\PSoC5/adc.c ****             CyIntSetVector(adc_IRQ__INTC_NUMBER, adc_ISR3 );
 2600              		.loc 1 1323 0
 2601 0692 4FF01D00 		mov	r0, #29
 2602 0696 40F20001 		movw	r1, #:lower16:adc_ISR3
 2603 069a C0F20001 		movt	r1, #:upper16:adc_ISR3
 2604 069e FFF7FEFF 		bl	CyIntSetVector
1324:.\Generated_Source\PSoC5/adc.c ****             CyIntEnable(adc_IRQ__INTC_NUMBER);
 2605              		.loc 1 1324 0
ARM GAS  C:\Users\arh\AppData\Local\Temp\ccpMsX4j.s 			page 70


 2606 06a2 4FF01D00 		mov	r0, #29
 2607 06a6 FFF7FEFF 		bl	CyIntEnable
 2608              	.L94:
1325:.\Generated_Source\PSoC5/adc.c ****         }
1326:.\Generated_Source\PSoC5/adc.c ****     #endif /* adc_DEFAULT_NUM_CONFIGS > 3 */
1327:.\Generated_Source\PSoC5/adc.c **** 
1328:.\Generated_Source\PSoC5/adc.c ****     #if(adc_DEFAULT_NUM_CONFIGS == 4)
1329:.\Generated_Source\PSoC5/adc.c ****         if (config == 4u)
 2609              		.loc 1 1329 0
 2610 06aa FB79     		ldrb	r3, [r7, #7]	@ zero_extendqisi2
 2611 06ac 042B     		cmp	r3, #4
 2612 06ae 40F0EF80 		bne	.L96
1330:.\Generated_Source\PSoC5/adc.c ****         {
1331:.\Generated_Source\PSoC5/adc.c ****             /* Fourth Config */
1332:.\Generated_Source\PSoC5/adc.c ****             adc_DEC_CR_REG      = adc_CFG4_DEC_CR;      
 2613              		.loc 1 1332 0
 2614 06b2 44F60063 		movw	r3, #:lower16:1073761792
 2615 06b6 C4F20003 		movt	r3, #:upper16:1073761792
 2616 06ba 4FF03802 		mov	r2, #56
 2617 06be 1A70     		strb	r2, [r3, #0]
1333:.\Generated_Source\PSoC5/adc.c ****             adc_DEC_SHIFT1_REG  = adc_CFG4_DEC_SHIFT1;  
 2618              		.loc 1 1333 0
 2619 06c0 44F60263 		movw	r3, #:lower16:1073761794
 2620 06c4 C4F20003 		movt	r3, #:upper16:1073761794
 2621 06c8 4FF00402 		mov	r2, #4
 2622 06cc 1A70     		strb	r2, [r3, #0]
1334:.\Generated_Source\PSoC5/adc.c ****             adc_DEC_SHIFT2_REG  = adc_CFG4_DEC_SHIFT2;  
 2623              		.loc 1 1334 0
 2624 06ce 44F60363 		movw	r3, #:lower16:1073761795
 2625 06d2 C4F20003 		movt	r3, #:upper16:1073761795
 2626 06d6 4FF00702 		mov	r2, #7
 2627 06da 1A70     		strb	r2, [r3, #0]
1335:.\Generated_Source\PSoC5/adc.c ****             adc_DEC_DR2_REG     = adc_CFG4_DEC_DR2;     
 2628              		.loc 1 1335 0
 2629 06dc 44F60463 		movw	r3, #:lower16:1073761796
 2630 06e0 C4F20003 		movt	r3, #:upper16:1073761796
 2631 06e4 4FF00002 		mov	r2, #0
 2632 06e8 1A70     		strb	r2, [r3, #0]
1336:.\Generated_Source\PSoC5/adc.c ****             adc_DEC_DR2H_REG    = adc_CFG4_DEC_DR2H;    
 2633              		.loc 1 1336 0
 2634 06ea 44F60563 		movw	r3, #:lower16:1073761797
 2635 06ee C4F20003 		movt	r3, #:upper16:1073761797
 2636 06f2 4FF00002 		mov	r2, #0
 2637 06f6 1A70     		strb	r2, [r3, #0]
1337:.\Generated_Source\PSoC5/adc.c ****             adc_DEC_DR1_REG     = adc_CFG4_DEC_DR1;     
 2638              		.loc 1 1337 0
 2639 06f8 44F60663 		movw	r3, #:lower16:1073761798
 2640 06fc C4F20003 		movt	r3, #:upper16:1073761798
 2641 0700 4FF03F02 		mov	r2, #63
 2642 0704 1A70     		strb	r2, [r3, #0]
1338:.\Generated_Source\PSoC5/adc.c ****             adc_DEC_OCOR_REG    = adc_CFG4_DEC_OCOR;    
 2643              		.loc 1 1338 0
 2644 0706 44F60863 		movw	r3, #:lower16:1073761800
 2645 070a C4F20003 		movt	r3, #:upper16:1073761800
 2646 070e 4FF00002 		mov	r2, #0
 2647 0712 1A70     		strb	r2, [r3, #0]
1339:.\Generated_Source\PSoC5/adc.c ****             adc_DEC_OCORM_REG   = adc_CFG4_DEC_OCORM;   
ARM GAS  C:\Users\arh\AppData\Local\Temp\ccpMsX4j.s 			page 71


 2648              		.loc 1 1339 0
 2649 0714 44F60963 		movw	r3, #:lower16:1073761801
 2650 0718 C4F20003 		movt	r3, #:upper16:1073761801
 2651 071c 4FF00002 		mov	r2, #0
 2652 0720 1A70     		strb	r2, [r3, #0]
1340:.\Generated_Source\PSoC5/adc.c ****             adc_DEC_OCORH_REG   = adc_CFG4_DEC_OCORH;   
 2653              		.loc 1 1340 0
 2654 0722 44F60A63 		movw	r3, #:lower16:1073761802
 2655 0726 C4F20003 		movt	r3, #:upper16:1073761802
 2656 072a 4FF00002 		mov	r2, #0
 2657 072e 1A70     		strb	r2, [r3, #0]
1341:.\Generated_Source\PSoC5/adc.c **** 
1342:.\Generated_Source\PSoC5/adc.c ****             adc_DSM_CR4_REG     = adc_CFG4_DSM_CR4;     
 2658              		.loc 1 1342 0
 2659 0730 45F68403 		movw	r3, #:lower16:1073764484
 2660 0734 C4F20003 		movt	r3, #:upper16:1073764484
 2661 0738 4FF05002 		mov	r2, #80
 2662 073c 1A70     		strb	r2, [r3, #0]
1343:.\Generated_Source\PSoC5/adc.c ****             adc_DSM_CR5_REG     = adc_CFG4_DSM_CR5;     
 2663              		.loc 1 1343 0
 2664 073e 45F68503 		movw	r3, #:lower16:1073764485
 2665 0742 C4F20003 		movt	r3, #:upper16:1073764485
 2666 0746 4FF02702 		mov	r2, #39
 2667 074a 1A70     		strb	r2, [r3, #0]
1344:.\Generated_Source\PSoC5/adc.c ****             adc_DSM_CR6_REG     = adc_CFG4_DSM_CR6;     
 2668              		.loc 1 1344 0
 2669 074c 45F68603 		movw	r3, #:lower16:1073764486
 2670 0750 C4F20003 		movt	r3, #:upper16:1073764486
 2671 0754 4FF02C02 		mov	r2, #44
 2672 0758 1A70     		strb	r2, [r3, #0]
1345:.\Generated_Source\PSoC5/adc.c ****             adc_DSM_CR7_REG     = adc_CFG4_DSM_CR7;     
 2673              		.loc 1 1345 0
 2674 075a 45F68703 		movw	r3, #:lower16:1073764487
 2675 075e C4F20003 		movt	r3, #:upper16:1073764487
 2676 0762 4FF00002 		mov	r2, #0
 2677 0766 1A70     		strb	r2, [r3, #0]
1346:.\Generated_Source\PSoC5/adc.c ****             adc_DSM_CR8_REG     = adc_CFG4_DSM_CR8;     
 2678              		.loc 1 1346 0
 2679 0768 45F68803 		movw	r3, #:lower16:1073764488
 2680 076c C4F20003 		movt	r3, #:upper16:1073764488
 2681 0770 4FF01202 		mov	r2, #18
 2682 0774 1A70     		strb	r2, [r3, #0]
1347:.\Generated_Source\PSoC5/adc.c ****             adc_DSM_CR9_REG     = adc_CFG4_DSM_CR9;     
 2683              		.loc 1 1347 0
 2684 0776 45F68903 		movw	r3, #:lower16:1073764489
 2685 077a C4F20003 		movt	r3, #:upper16:1073764489
 2686 077e 4FF01302 		mov	r2, #19
 2687 0782 1A70     		strb	r2, [r3, #0]
1348:.\Generated_Source\PSoC5/adc.c ****             adc_DSM_CR10_REG    = adc_CFG4_DSM_CR10;    
 2688              		.loc 1 1348 0
 2689 0784 45F68A03 		movw	r3, #:lower16:1073764490
 2690 0788 C4F20003 		movt	r3, #:upper16:1073764490
 2691 078c 4FF05502 		mov	r2, #85
 2692 0790 1A70     		strb	r2, [r3, #0]
1349:.\Generated_Source\PSoC5/adc.c ****             adc_DSM_CR11_REG    = adc_CFG4_DSM_CR11;    
 2693              		.loc 1 1349 0
 2694 0792 45F68B03 		movw	r3, #:lower16:1073764491
ARM GAS  C:\Users\arh\AppData\Local\Temp\ccpMsX4j.s 			page 72


 2695 0796 C4F20003 		movt	r3, #:upper16:1073764491
 2696 079a 4FF05A02 		mov	r2, #90
 2697 079e 1A70     		strb	r2, [r3, #0]
1350:.\Generated_Source\PSoC5/adc.c ****             adc_DSM_CR12_REG    = adc_CFG4_DSM_CR12;    
 2698              		.loc 1 1350 0
 2699 07a0 45F68C03 		movw	r3, #:lower16:1073764492
 2700 07a4 C4F20003 		movt	r3, #:upper16:1073764492
 2701 07a8 4FF00502 		mov	r2, #5
 2702 07ac 1A70     		strb	r2, [r3, #0]
1351:.\Generated_Source\PSoC5/adc.c ****             adc_DSM_CR14_REG    = adc_CFG4_DSM_CR14;    
 2703              		.loc 1 1351 0
 2704 07ae 45F68E03 		movw	r3, #:lower16:1073764494
 2705 07b2 C4F20003 		movt	r3, #:upper16:1073764494
 2706 07b6 4FF00102 		mov	r2, #1
 2707 07ba 1A70     		strb	r2, [r3, #0]
1352:.\Generated_Source\PSoC5/adc.c ****             adc_DSM_CR15_REG    = adc_CFG4_DSM_CR15;    
 2708              		.loc 1 1352 0
 2709 07bc 45F68F03 		movw	r3, #:lower16:1073764495
 2710 07c0 C4F20003 		movt	r3, #:upper16:1073764495
 2711 07c4 4FF01102 		mov	r2, #17
 2712 07c8 1A70     		strb	r2, [r3, #0]
1353:.\Generated_Source\PSoC5/adc.c ****             adc_DSM_CR16_REG    = adc_CFG4_DSM_CR16;    
 2713              		.loc 1 1353 0
 2714 07ca 45F69003 		movw	r3, #:lower16:1073764496
 2715 07ce C4F20003 		movt	r3, #:upper16:1073764496
 2716 07d2 4FF01902 		mov	r2, #25
 2717 07d6 1A70     		strb	r2, [r3, #0]
1354:.\Generated_Source\PSoC5/adc.c ****             adc_DSM_CR17_REG    = adc_CFG4_DSM_CR17;
 2718              		.loc 1 1354 0
 2719 07d8 45F69103 		movw	r3, #:lower16:1073764497
 2720 07dc C4F20003 		movt	r3, #:upper16:1073764497
 2721 07e0 6FF06802 		mvn	r2, #104
 2722 07e4 1A70     		strb	r2, [r3, #0]
1355:.\Generated_Source\PSoC5/adc.c **** 			/* Set DSM_REF0_REG by disabling and enabling the PRESS cirucit */
1356:.\Generated_Source\PSoC5/adc.c **** 			adc_SetDSMRef0Reg(adc_CFG4_DSM_REF0);
 2723              		.loc 1 1356 0
 2724 07e6 4FF04400 		mov	r0, #68
 2725 07ea FFF7FEFF 		bl	adc_SetDSMRef0Reg
1357:.\Generated_Source\PSoC5/adc.c ****             adc_DSM_REF2_REG    = adc_CFG4_DSM_REF2;    
 2726              		.loc 1 1357 0
 2727 07ee 45F69403 		movw	r3, #:lower16:1073764500
 2728 07f2 C4F20003 		movt	r3, #:upper16:1073764500
 2729 07f6 4FF05802 		mov	r2, #88
 2730 07fa 1A70     		strb	r2, [r3, #0]
1358:.\Generated_Source\PSoC5/adc.c ****             adc_DSM_REF3_REG    = adc_CFG4_DSM_REF3;    
 2731              		.loc 1 1358 0
 2732 07fc 45F69503 		movw	r3, #:lower16:1073764501
 2733 0800 C4F20003 		movt	r3, #:upper16:1073764501
 2734 0804 4FF00002 		mov	r2, #0
 2735 0808 1A70     		strb	r2, [r3, #0]
1359:.\Generated_Source\PSoC5/adc.c ****         
1360:.\Generated_Source\PSoC5/adc.c ****             adc_DSM_BUF0_REG    = adc_CFG4_DSM_BUF0;    
 2736              		.loc 1 1360 0
 2737 080a 45F69A03 		movw	r3, #:lower16:1073764506
 2738 080e C4F20003 		movt	r3, #:upper16:1073764506
 2739 0812 4FF00502 		mov	r2, #5
 2740 0816 1A70     		strb	r2, [r3, #0]
ARM GAS  C:\Users\arh\AppData\Local\Temp\ccpMsX4j.s 			page 73


1361:.\Generated_Source\PSoC5/adc.c ****             adc_DSM_BUF1_REG    = adc_CFG4_DSM_BUF1;    
 2741              		.loc 1 1361 0
 2742 0818 45F69B03 		movw	r3, #:lower16:1073764507
 2743 081c C4F20003 		movt	r3, #:upper16:1073764507
 2744 0820 4FF00102 		mov	r2, #1
 2745 0824 1A70     		strb	r2, [r3, #0]
1362:.\Generated_Source\PSoC5/adc.c ****             adc_DSM_BUF2_REG    = adc_CFG4_DSM_BUF2;
 2746              		.loc 1 1362 0
 2747 0826 45F69C03 		movw	r3, #:lower16:1073764508
 2748 082a C4F20003 		movt	r3, #:upper16:1073764508
 2749 082e 4FF00102 		mov	r2, #1
 2750 0832 1A70     		strb	r2, [r3, #0]
1363:.\Generated_Source\PSoC5/adc.c ****             adc_DSM_BUF3_REG    = adc_CFG4_DSM_BUF3;
 2751              		.loc 1 1363 0
 2752 0834 45F69D03 		movw	r3, #:lower16:1073764509
 2753 0838 C4F20003 		movt	r3, #:upper16:1073764509
 2754 083c 4FF00A02 		mov	r2, #10
 2755 0840 1A70     		strb	r2, [r3, #0]
1364:.\Generated_Source\PSoC5/adc.c ****             #if (CY_PSOC5A)
1365:.\Generated_Source\PSoC5/adc.c ****                 adc_DSM_CLK_REG    |= adc_CFG1_DSM_CLK; 
 2756              		.loc 1 1365 0
 2757 0842 45F60733 		movw	r3, #:lower16:1073765127
 2758 0846 C4F20003 		movt	r3, #:upper16:1073765127
 2759 084a 45F60732 		movw	r2, #:lower16:1073765127
 2760 084e C4F20002 		movt	r2, #:upper16:1073765127
 2761 0852 1278     		ldrb	r2, [r2, #0]
 2762 0854 D2B2     		uxtb	r2, r2
 2763 0856 42F01802 		orr	r2, r2, #24
 2764 085a D2B2     		uxtb	r2, r2
 2765 085c 1A70     		strb	r2, [r3, #0]
1366:.\Generated_Source\PSoC5/adc.c ****             #endif /* CY_PSOC5A */
1367:.\Generated_Source\PSoC5/adc.c ****             
1368:.\Generated_Source\PSoC5/adc.c ****             /* To select either Vssa or Vref to -ve input of DSM depending on 
1369:.\Generated_Source\PSoC5/adc.c ****                the input range selected.
1370:.\Generated_Source\PSoC5/adc.c ****             */
1371:.\Generated_Source\PSoC5/adc.c ****             
1372:.\Generated_Source\PSoC5/adc.c ****             #if(adc_DEFAULT_INPUT_MODE)
1373:.\Generated_Source\PSoC5/adc.c ****                 #if (CY_PSOC3 || CY_PSOC5LP)
1374:.\Generated_Source\PSoC5/adc.c ****                     #if (adc_CFG4_INPUT_RANGE == adc_IR_VSSA_TO_2VREF)
1375:.\Generated_Source\PSoC5/adc.c ****                         adc_AMux_Select(1);
1376:.\Generated_Source\PSoC5/adc.c ****                     #else
1377:.\Generated_Source\PSoC5/adc.c ****                         adc_AMux_Select(0);
1378:.\Generated_Source\PSoC5/adc.c ****                     #endif /* adc_IR_VSSA_TO_2VREF) */
1379:.\Generated_Source\PSoC5/adc.c ****                 #elif (CY_PSOC5A)
1380:.\Generated_Source\PSoC5/adc.c ****                     adc_AMux_Select(0);
1381:.\Generated_Source\PSoC5/adc.c ****                 #endif /* CY_PSOC3 || CY_PSOC5LP */
1382:.\Generated_Source\PSoC5/adc.c ****             #endif /* adc_DEFAULT_INPUT_MODE */
1383:.\Generated_Source\PSoC5/adc.c ****                        
1384:.\Generated_Source\PSoC5/adc.c ****             /* Set the Conversion stop if resolution is above 16 bit and 
1385:.\Generated_Source\PSoC5/adc.c ****                conversion mode is Single sample */
1386:.\Generated_Source\PSoC5/adc.c ****             #if(adc_CFG4_RESOLUTION > 16 && \
1387:.\Generated_Source\PSoC5/adc.c ****                 adc_CFG4_CONVMODE == adc_MODE_SINGLE_SAMPLE) 
1388:.\Generated_Source\PSoC5/adc.c ****                 adc_stopConversion = 1;
1389:.\Generated_Source\PSoC5/adc.c ****             #endif /* Single sample with resolution above 16 bits */
1390:.\Generated_Source\PSoC5/adc.c ****             
1391:.\Generated_Source\PSoC5/adc.c ****             adc_CountsPerVolt = (uint32)adc_CFG4_COUNTS_PER_VOLT;
 2766              		.loc 1 1391 0
ARM GAS  C:\Users\arh\AppData\Local\Temp\ccpMsX4j.s 			page 74


 2767 085e 40F20003 		movw	r3, #:lower16:adc_CountsPerVolt
 2768 0862 C0F20003 		movt	r3, #:upper16:adc_CountsPerVolt
 2769 0866 4FF4FA42 		mov	r2, #32000
 2770 086a 1A60     		str	r2, [r3, #0]
1392:.\Generated_Source\PSoC5/adc.c **** 
1393:.\Generated_Source\PSoC5/adc.c ****             /* Start and set interrupt vector */
1394:.\Generated_Source\PSoC5/adc.c ****             CyIntSetPriority(adc_IRQ__INTC_NUMBER, adc_IRQ_INTC_PRIOR_NUMBER);
 2771              		.loc 1 1394 0
 2772 086c 4FF01D00 		mov	r0, #29
 2773 0870 4FF00701 		mov	r1, #7
 2774 0874 FFF7FEFF 		bl	CyIntSetPriority
1395:.\Generated_Source\PSoC5/adc.c ****             CyIntSetVector(adc_IRQ__INTC_NUMBER, adc_ISR4 );
 2775              		.loc 1 1395 0
 2776 0878 4FF01D00 		mov	r0, #29
 2777 087c 40F20001 		movw	r1, #:lower16:adc_ISR4
 2778 0880 C0F20001 		movt	r1, #:upper16:adc_ISR4
 2779 0884 FFF7FEFF 		bl	CyIntSetVector
1396:.\Generated_Source\PSoC5/adc.c ****             CyIntEnable(adc_IRQ__INTC_NUMBER);
 2780              		.loc 1 1396 0
 2781 0888 4FF01D00 		mov	r0, #29
 2782 088c FFF7FEFF 		bl	CyIntEnable
 2783              	.L96:
1397:.\Generated_Source\PSoC5/adc.c ****         }
1398:.\Generated_Source\PSoC5/adc.c ****     #endif /* adc_DEFAULT_NUM_CONFIGS > 4 */
1399:.\Generated_Source\PSoC5/adc.c **** }
 2784              		.loc 1 1399 0
 2785 0890 07F10807 		add	r7, r7, #8
 2786 0894 BD46     		mov	sp, r7
 2787 0896 80BD     		pop	{r7, pc}
 2788              		.cfi_endproc
 2789              	.LFE24:
 2790              		.size	adc_InitConfig, .-adc_InitConfig
 2791              		.section	.text.adc_RoundValue,"ax",%progbits
 2792              		.align	2
 2793              		.global	adc_RoundValue
 2794              		.thumb
 2795              		.thumb_func
 2796              		.type	adc_RoundValue, %function
 2797              	adc_RoundValue:
 2798              	.LFB25:
1400:.\Generated_Source\PSoC5/adc.c **** 
1401:.\Generated_Source\PSoC5/adc.c **** 
1402:.\Generated_Source\PSoC5/adc.c **** /*******************************************************************************
1403:.\Generated_Source\PSoC5/adc.c **** * Function Name: adc_RoundValue(uint32 busClockFreq, 
1404:.\Generated_Source\PSoC5/adc.c **** *                                            uint32 clockFreq)
1405:.\Generated_Source\PSoC5/adc.c **** ********************************************************************************
1406:.\Generated_Source\PSoC5/adc.c **** *
1407:.\Generated_Source\PSoC5/adc.c **** * Summary:
1408:.\Generated_Source\PSoC5/adc.c **** *  Function to round an integer value.
1409:.\Generated_Source\PSoC5/adc.c **** *
1410:.\Generated_Source\PSoC5/adc.c **** * Parameters:  
1411:.\Generated_Source\PSoC5/adc.c **** *  busClockFreq:  Frequency of the bus clock.
1412:.\Generated_Source\PSoC5/adc.c **** *  clockFreq:  Frequency of the component clock.
1413:.\Generated_Source\PSoC5/adc.c **** *
1414:.\Generated_Source\PSoC5/adc.c **** * Return: 
1415:.\Generated_Source\PSoC5/adc.c **** *  uint16: rounded integer value.
1416:.\Generated_Source\PSoC5/adc.c **** *
ARM GAS  C:\Users\arh\AppData\Local\Temp\ccpMsX4j.s 			page 75


1417:.\Generated_Source\PSoC5/adc.c **** *******************************************************************************/
1418:.\Generated_Source\PSoC5/adc.c **** uint16 adc_RoundValue(uint32 busClockFreq, uint32 clockFreq) \
1419:.\Generated_Source\PSoC5/adc.c ****                                   
1420:.\Generated_Source\PSoC5/adc.c **** {
 2799              		.loc 1 1420 0
 2800              		.cfi_startproc
 2801              		@ args = 0, pretend = 0, frame = 16
 2802              		@ frame_needed = 1, uses_anonymous_args = 0
 2803              		@ link register save eliminated.
 2804 0000 80B4     		push	{r7}
 2805              	.LCFI64:
 2806              		.cfi_def_cfa_offset 4
 2807 0002 85B0     		sub	sp, sp, #20
 2808              	.LCFI65:
 2809              		.cfi_def_cfa_offset 24
 2810 0004 00AF     		add	r7, sp, #0
 2811              		.cfi_offset 7, -4
 2812              	.LCFI66:
 2813              		.cfi_def_cfa_register 7
 2814 0006 7860     		str	r0, [r7, #4]
 2815 0008 3960     		str	r1, [r7, #0]
1421:.\Generated_Source\PSoC5/adc.c ****     uint16 divider1, divider2;
1422:.\Generated_Source\PSoC5/adc.c ****     
1423:.\Generated_Source\PSoC5/adc.c ****     divider1 = ((busClockFreq * 10) / clockFreq);
 2816              		.loc 1 1423 0
 2817 000a 7A68     		ldr	r2, [r7, #4]
 2818 000c 1346     		mov	r3, r2
 2819 000e 4FEA8303 		lsl	r3, r3, #2
 2820 0012 1344     		add	r3, r3, r2
 2821 0014 4FEA4303 		lsl	r3, r3, #1
 2822 0018 1A46     		mov	r2, r3
 2823 001a 3B68     		ldr	r3, [r7, #0]
 2824 001c B2FBF3F3 		udiv	r3, r2, r3
 2825 0020 BB81     		strh	r3, [r7, #12]	@ movhi
1424:.\Generated_Source\PSoC5/adc.c ****     divider2 = (busClockFreq / clockFreq);
 2826              		.loc 1 1424 0
 2827 0022 7A68     		ldr	r2, [r7, #4]
 2828 0024 3B68     		ldr	r3, [r7, #0]
 2829 0026 B2FBF3F3 		udiv	r3, r2, r3
 2830 002a FB81     		strh	r3, [r7, #14]	@ movhi
1425:.\Generated_Source\PSoC5/adc.c ****     if ( divider1 - (divider2 * 10) >= 5)
 2831              		.loc 1 1425 0
 2832 002c BA89     		ldrh	r2, [r7, #12]
 2833 002e FB89     		ldrh	r3, [r7, #14]
 2834 0030 6FF00901 		mvn	r1, #9
 2835 0034 01FB03F3 		mul	r3, r1, r3
 2836 0038 1344     		add	r3, r2, r3
 2837 003a 042B     		cmp	r3, #4
 2838 003c 03DD     		ble	.L98
1426:.\Generated_Source\PSoC5/adc.c ****     {
1427:.\Generated_Source\PSoC5/adc.c ****         divider2 += 1;
 2839              		.loc 1 1427 0
 2840 003e FB89     		ldrh	r3, [r7, #14]	@ movhi
 2841 0040 03F10103 		add	r3, r3, #1
 2842 0044 FB81     		strh	r3, [r7, #14]	@ movhi
 2843              	.L98:
1428:.\Generated_Source\PSoC5/adc.c ****     }
ARM GAS  C:\Users\arh\AppData\Local\Temp\ccpMsX4j.s 			page 76


1429:.\Generated_Source\PSoC5/adc.c ****     return divider2;
 2844              		.loc 1 1429 0
 2845 0046 FB89     		ldrh	r3, [r7, #14]
1430:.\Generated_Source\PSoC5/adc.c **** }
 2846              		.loc 1 1430 0
 2847 0048 1846     		mov	r0, r3
 2848 004a 07F11407 		add	r7, r7, #20
 2849 004e BD46     		mov	sp, r7
 2850 0050 80BC     		pop	{r7}
 2851 0052 7047     		bx	lr
 2852              		.cfi_endproc
 2853              	.LFE25:
 2854              		.size	adc_RoundValue, .-adc_RoundValue
 2855              		.section	.text.adc_SelectConfiguration,"ax",%progbits
 2856              		.align	2
 2857              		.global	adc_SelectConfiguration
 2858              		.thumb
 2859              		.thumb_func
 2860              		.type	adc_SelectConfiguration, %function
 2861              	adc_SelectConfiguration:
 2862              	.LFB26:
1431:.\Generated_Source\PSoC5/adc.c ****          
1432:.\Generated_Source\PSoC5/adc.c **** 
1433:.\Generated_Source\PSoC5/adc.c **** /*******************************************************************************
1434:.\Generated_Source\PSoC5/adc.c **** * Function Name: adc_SelectCofiguration(uint8 config, 
1435:.\Generated_Source\PSoC5/adc.c **** *                                                    uint8 restart)
1436:.\Generated_Source\PSoC5/adc.c **** ********************************************************************************
1437:.\Generated_Source\PSoC5/adc.c **** *
1438:.\Generated_Source\PSoC5/adc.c **** * Summary:
1439:.\Generated_Source\PSoC5/adc.c **** *  Selects the user defined configuration. This API first stops the current ADC
1440:.\Generated_Source\PSoC5/adc.c **** *  and then initializes the registers with the default values for that config. 
1441:.\Generated_Source\PSoC5/adc.c **** *  This also performs calibration by writing GCOR registers with trim values 
1442:.\Generated_Source\PSoC5/adc.c **** *  stored in the flash.
1443:.\Generated_Source\PSoC5/adc.c **** *
1444:.\Generated_Source\PSoC5/adc.c **** * Parameters:  
1445:.\Generated_Source\PSoC5/adc.c **** *  config:  configuration user wants to select.
1446:.\Generated_Source\PSoC5/adc.c **** *
1447:.\Generated_Source\PSoC5/adc.c **** * Return: 
1448:.\Generated_Source\PSoC5/adc.c **** *  void
1449:.\Generated_Source\PSoC5/adc.c **** *
1450:.\Generated_Source\PSoC5/adc.c **** *******************************************************************************/
1451:.\Generated_Source\PSoC5/adc.c **** void adc_SelectConfiguration(uint8 config, uint8 restart) \
1452:.\Generated_Source\PSoC5/adc.c ****                                               
1453:.\Generated_Source\PSoC5/adc.c **** {
 2863              		.loc 1 1453 0
 2864              		.cfi_startproc
 2865              		@ args = 0, pretend = 0, frame = 24
 2866              		@ frame_needed = 1, uses_anonymous_args = 0
 2867 0000 80B5     		push	{r7, lr}
 2868              	.LCFI67:
 2869              		.cfi_def_cfa_offset 8
 2870 0002 86B0     		sub	sp, sp, #24
 2871              	.LCFI68:
 2872              		.cfi_def_cfa_offset 32
 2873 0004 00AF     		add	r7, sp, #0
 2874              		.cfi_offset 14, -4
 2875              		.cfi_offset 7, -8
ARM GAS  C:\Users\arh\AppData\Local\Temp\ccpMsX4j.s 			page 77


 2876              	.LCFI69:
 2877              		.cfi_def_cfa_register 7
 2878 0006 0246     		mov	r2, r0
 2879 0008 0B46     		mov	r3, r1
 2880 000a FA71     		strb	r2, [r7, #7]
 2881 000c BB71     		strb	r3, [r7, #6]
1454:.\Generated_Source\PSoC5/adc.c ****     uint8 inputRange = 0, resolution = 16;
 2882              		.loc 1 1454 0
 2883 000e 4FF00003 		mov	r3, #0
 2884 0012 BB73     		strb	r3, [r7, #14]
 2885 0014 4FF01003 		mov	r3, #16
 2886 0018 FB73     		strb	r3, [r7, #15]
1455:.\Generated_Source\PSoC5/adc.c ****     uint16 idealGain = 0, adcClockDivider = 1;    
 2887              		.loc 1 1455 0
 2888 001a 4FF00003 		mov	r3, #0
 2889 001e 3B82     		strh	r3, [r7, #16]	@ movhi
 2890 0020 4FF00103 		mov	r3, #1
 2891 0024 7B82     		strh	r3, [r7, #18]	@ movhi
1456:.\Generated_Source\PSoC5/adc.c ****     uint16 cpClockDivider = 1;
 2892              		.loc 1 1456 0
 2893 0026 4FF00103 		mov	r3, #1
 2894 002a BB82     		strh	r3, [r7, #20]	@ movhi
1457:.\Generated_Source\PSoC5/adc.c ****     uint16 idealOddGain = 0;
 2895              		.loc 1 1457 0
 2896 002c 4FF00003 		mov	r3, #0
 2897 0030 FB82     		strh	r3, [r7, #22]	@ movhi
1458:.\Generated_Source\PSoC5/adc.c ****     
1459:.\Generated_Source\PSoC5/adc.c ****     /* Check whether the config is valid or not */
1460:.\Generated_Source\PSoC5/adc.c ****     if( config <= adc_DEFAULT_NUM_CONFIGS)
 2898              		.loc 1 1460 0
 2899 0032 FB79     		ldrb	r3, [r7, #7]	@ zero_extendqisi2
 2900 0034 042B     		cmp	r3, #4
 2901 0036 00F2DE80 		bhi	.L107
1461:.\Generated_Source\PSoC5/adc.c ****     {   
1462:.\Generated_Source\PSoC5/adc.c ****        /* Set the flag to ensure start() API dont override the config
1463:.\Generated_Source\PSoC5/adc.c ****            selected if ADC is not already started */
1464:.\Generated_Source\PSoC5/adc.c ****         if(adc_initVar == 0u)
 2902              		.loc 1 1464 0
 2903 003a 40F20003 		movw	r3, #:lower16:adc_initVar
 2904 003e C0F20003 		movt	r3, #:upper16:adc_initVar
 2905 0042 1B78     		ldrb	r3, [r3, #0]	@ zero_extendqisi2
 2906 0044 002B     		cmp	r3, #0
 2907 0046 06D1     		bne	.L102
1465:.\Generated_Source\PSoC5/adc.c ****         {
1466:.\Generated_Source\PSoC5/adc.c ****             adc_started = 1u;
 2908              		.loc 1 1466 0
 2909 0048 40F20003 		movw	r3, #:lower16:adc_started
 2910 004c C0F20003 		movt	r3, #:upper16:adc_started
 2911 0050 4FF00102 		mov	r2, #1
 2912 0054 1A70     		strb	r2, [r3, #0]
 2913              	.L102:
1467:.\Generated_Source\PSoC5/adc.c ****         }
1468:.\Generated_Source\PSoC5/adc.c **** 		
1469:.\Generated_Source\PSoC5/adc.c **** 		/* Update the config flag */
1470:.\Generated_Source\PSoC5/adc.c **** 		adc_Config = config;
 2914              		.loc 1 1470 0
 2915 0056 40F20003 		movw	r3, #:lower16:adc_Config
ARM GAS  C:\Users\arh\AppData\Local\Temp\ccpMsX4j.s 			page 78


 2916 005a C0F20003 		movt	r3, #:upper16:adc_Config
 2917 005e FA79     		ldrb	r2, [r7, #7]
 2918 0060 1A70     		strb	r2, [r3, #0]
1471:.\Generated_Source\PSoC5/adc.c ****        
1472:.\Generated_Source\PSoC5/adc.c ****         /* Stop the ADC  */
1473:.\Generated_Source\PSoC5/adc.c ****         adc_Stop();
 2919              		.loc 1 1473 0
 2920 0062 FFF7FEFF 		bl	adc_Stop
1474:.\Generated_Source\PSoC5/adc.c ****         
1475:.\Generated_Source\PSoC5/adc.c ****         #if (CY_PSOC5A)
1476:.\Generated_Source\PSoC5/adc.c ****             /* Set the structure field which checks whether or not to
1477:.\Generated_Source\PSoC5/adc.c ****                restore the power registers */
1478:.\Generated_Source\PSoC5/adc.c ****             adc_powerModeBackup.bypassRestore = adc_BYPASS_ENABLED;
 2921              		.loc 1 1478 0
 2922 0066 40F20003 		movw	r3, #:lower16:adc_powerModeBackup
 2923 006a C0F20003 		movt	r3, #:upper16:adc_powerModeBackup
 2924 006e 4FF00102 		mov	r2, #1
 2925 0072 1A72     		strb	r2, [r3, #8]
1479:.\Generated_Source\PSoC5/adc.c ****         #endif /* CY_PSOC5A */
1480:.\Generated_Source\PSoC5/adc.c ****         
1481:.\Generated_Source\PSoC5/adc.c ****         /* Set the  ADC registers based on the configuration */
1482:.\Generated_Source\PSoC5/adc.c ****         adc_InitConfig(config);
 2926              		.loc 1 1482 0
 2927 0074 FB79     		ldrb	r3, [r7, #7]	@ zero_extendqisi2
 2928 0076 1846     		mov	r0, r3
 2929 0078 FFF7FEFF 		bl	adc_InitConfig
1483:.\Generated_Source\PSoC5/adc.c ****         
1484:.\Generated_Source\PSoC5/adc.c ****         /* Trim value calculation */
1485:.\Generated_Source\PSoC5/adc.c ****         if(config == 1u)
 2930              		.loc 1 1485 0
 2931 007c FB79     		ldrb	r3, [r7, #7]	@ zero_extendqisi2
 2932 007e 012B     		cmp	r3, #1
 2933 0080 23D1     		bne	.L103
1486:.\Generated_Source\PSoC5/adc.c ****         {
1487:.\Generated_Source\PSoC5/adc.c ****             inputRange = adc_CFG1_RANGE;
 2934              		.loc 1 1487 0
 2935 0082 4FF00403 		mov	r3, #4
 2936 0086 BB73     		strb	r3, [r7, #14]
1488:.\Generated_Source\PSoC5/adc.c ****             resolution = adc_CFG1_RESOLUTION;
 2937              		.loc 1 1488 0
 2938 0088 4FF01003 		mov	r3, #16
 2939 008c FB73     		strb	r3, [r7, #15]
1489:.\Generated_Source\PSoC5/adc.c ****             idealGain = adc_CFG1_IDEAL_DEC_GAIN;
 2940              		.loc 1 1489 0
 2941 008e 49F2DB03 		movw	r3, #37083
 2942 0092 3B82     		strh	r3, [r7, #16]	@ movhi
1490:.\Generated_Source\PSoC5/adc.c ****             idealOddGain = adc_CFG1_IDEAL_ODDDEC_GAIN;
 2943              		.loc 1 1490 0
 2944 0094 4FF40043 		mov	r3, #32768
 2945 0098 FB82     		strh	r3, [r7, #22]	@ movhi
1491:.\Generated_Source\PSoC5/adc.c ****             adcClockDivider = adc_RoundValue((uint32)BCLK__BUS_CLK__HZ,
 2946              		.loc 1 1491 0
 2947 009a 43F20060 		movw	r0, #:lower16:24000000
 2948 009e C0F26E10 		movt	r0, #:upper16:24000000
 2949 00a2 48F23051 		movw	r1, #:lower16:2590000
 2950 00a6 C0F22701 		movt	r1, #:upper16:2590000
 2951 00aa FFF7FEFF 		bl	adc_RoundValue
ARM GAS  C:\Users\arh\AppData\Local\Temp\ccpMsX4j.s 			page 79


 2952 00ae 0346     		mov	r3, r0
 2953 00b0 7B82     		strh	r3, [r7, #18]	@ movhi
1492:.\Generated_Source\PSoC5/adc.c ****                                                        (uint32)adc_CFG1_CLOCK_FREQ);
1493:.\Generated_Source\PSoC5/adc.c ****             cpClockDivider = adc_RoundValue((uint32)BCLK__BUS_CLK__HZ,
 2954              		.loc 1 1493 0
 2955 00b2 43F20060 		movw	r0, #:lower16:24000000
 2956 00b6 C0F26E10 		movt	r0, #:upper16:24000000
 2957 00ba 41F2C041 		movw	r1, #:lower16:10360000
 2958 00be C0F29E01 		movt	r1, #:upper16:10360000
 2959 00c2 FFF7FEFF 		bl	adc_RoundValue
 2960 00c6 0346     		mov	r3, r0
 2961 00c8 BB82     		strh	r3, [r7, #20]	@ movhi
 2962              	.L103:
1494:.\Generated_Source\PSoC5/adc.c ****                                                        (uint32)adc_CFG1_CP_CLOCK_FREQ);
1495:.\Generated_Source\PSoC5/adc.c ****         }
1496:.\Generated_Source\PSoC5/adc.c **** 
1497:.\Generated_Source\PSoC5/adc.c ****         #if (adc_DEFAULT_NUM_CONFIGS > 1)
1498:.\Generated_Source\PSoC5/adc.c ****             if(config == 2u)
 2963              		.loc 1 1498 0
 2964 00ca FB79     		ldrb	r3, [r7, #7]	@ zero_extendqisi2
 2965 00cc 022B     		cmp	r3, #2
 2966 00ce 23D1     		bne	.L104
1499:.\Generated_Source\PSoC5/adc.c ****             {
1500:.\Generated_Source\PSoC5/adc.c ****                 inputRange = adc_CFG2_INPUT_RANGE;
 2967              		.loc 1 1500 0
 2968 00d0 4FF00403 		mov	r3, #4
 2969 00d4 BB73     		strb	r3, [r7, #14]
1501:.\Generated_Source\PSoC5/adc.c ****                 resolution = adc_CFG2_RESOLUTION;
 2970              		.loc 1 1501 0
 2971 00d6 4FF01003 		mov	r3, #16
 2972 00da FB73     		strb	r3, [r7, #15]
1502:.\Generated_Source\PSoC5/adc.c ****                 idealGain = adc_CFG2_IDEAL_DEC_GAIN;
 2973              		.loc 1 1502 0
 2974 00dc 49F2DB03 		movw	r3, #37083
 2975 00e0 3B82     		strh	r3, [r7, #16]	@ movhi
1503:.\Generated_Source\PSoC5/adc.c ****                 idealOddGain = adc_CFG2_IDEAL_ODDDEC_GAIN;
 2976              		.loc 1 1503 0
 2977 00e2 4FF40043 		mov	r3, #32768
 2978 00e6 FB82     		strh	r3, [r7, #22]	@ movhi
1504:.\Generated_Source\PSoC5/adc.c ****                 adcClockDivider = adc_RoundValue((uint32)BCLK__BUS_CLK__HZ,
 2979              		.loc 1 1504 0
 2980 00e8 43F20060 		movw	r0, #:lower16:24000000
 2981 00ec C0F26E10 		movt	r0, #:upper16:24000000
 2982 00f0 4CF20041 		movw	r1, #:lower16:640000
 2983 00f4 C0F20901 		movt	r1, #:upper16:640000
 2984 00f8 FFF7FEFF 		bl	adc_RoundValue
 2985 00fc 0346     		mov	r3, r0
 2986 00fe 7B82     		strh	r3, [r7, #18]	@ movhi
1505:.\Generated_Source\PSoC5/adc.c ****                                                             (uint32)adc_CFG2_CLOCK_FREQ);
1506:.\Generated_Source\PSoC5/adc.c ****                 cpClockDivider = adc_RoundValue((uint32)BCLK__BUS_CLK__HZ,
 2987              		.loc 1 1506 0
 2988 0100 43F20060 		movw	r0, #:lower16:24000000
 2989 0104 C0F26E10 		movt	r0, #:upper16:24000000
 2990 0108 41F20001 		movw	r1, #:lower16:2560000
 2991 010c C0F22701 		movt	r1, #:upper16:2560000
 2992 0110 FFF7FEFF 		bl	adc_RoundValue
 2993 0114 0346     		mov	r3, r0
ARM GAS  C:\Users\arh\AppData\Local\Temp\ccpMsX4j.s 			page 80


 2994 0116 BB82     		strh	r3, [r7, #20]	@ movhi
 2995              	.L104:
1507:.\Generated_Source\PSoC5/adc.c ****                                                        (uint32)adc_CFG2_CP_CLOCK_FREQ);
1508:.\Generated_Source\PSoC5/adc.c ****             }
1509:.\Generated_Source\PSoC5/adc.c ****         #endif /* adc_DEFAULT_NUM_CONFIGS > 1 */
1510:.\Generated_Source\PSoC5/adc.c **** 
1511:.\Generated_Source\PSoC5/adc.c ****         #if(adc_DEFAULT_NUM_CONFIGS > 2)
1512:.\Generated_Source\PSoC5/adc.c ****             if(config == 3u)
 2996              		.loc 1 1512 0
 2997 0118 FB79     		ldrb	r3, [r7, #7]	@ zero_extendqisi2
 2998 011a 032B     		cmp	r3, #3
 2999 011c 23D1     		bne	.L105
1513:.\Generated_Source\PSoC5/adc.c ****             {
1514:.\Generated_Source\PSoC5/adc.c ****                 inputRange = adc_CFG3_INPUT_RANGE;
 3000              		.loc 1 1514 0
 3001 011e 4FF00403 		mov	r3, #4
 3002 0122 BB73     		strb	r3, [r7, #14]
1515:.\Generated_Source\PSoC5/adc.c ****                 resolution = adc_CFG3_RESOLUTION;
 3003              		.loc 1 1515 0
 3004 0124 4FF01003 		mov	r3, #16
 3005 0128 FB73     		strb	r3, [r7, #15]
1516:.\Generated_Source\PSoC5/adc.c ****                 idealGain = adc_CFG3_IDEAL_DEC_GAIN;
 3006              		.loc 1 1516 0
 3007 012a 49F2DB03 		movw	r3, #37083
 3008 012e 3B82     		strh	r3, [r7, #16]	@ movhi
1517:.\Generated_Source\PSoC5/adc.c ****                 idealOddGain = adc_CFG3_IDEAL_ODDDEC_GAIN;
 3009              		.loc 1 1517 0
 3010 0130 4FF40043 		mov	r3, #32768
 3011 0134 FB82     		strh	r3, [r7, #22]	@ movhi
1518:.\Generated_Source\PSoC5/adc.c ****                 adcClockDivider = adc_RoundValue((uint32)BCLK__BUS_CLK__HZ,
 3012              		.loc 1 1518 0
 3013 0136 43F20060 		movw	r0, #:lower16:24000000
 3014 013a C0F26E10 		movt	r0, #:upper16:24000000
 3015 013e 4CF20041 		movw	r1, #:lower16:640000
 3016 0142 C0F20901 		movt	r1, #:upper16:640000
 3017 0146 FFF7FEFF 		bl	adc_RoundValue
 3018 014a 0346     		mov	r3, r0
 3019 014c 7B82     		strh	r3, [r7, #18]	@ movhi
1519:.\Generated_Source\PSoC5/adc.c ****                                                             (uint32)adc_CFG3_CLOCK_FREQ);
1520:.\Generated_Source\PSoC5/adc.c ****                 cpClockDivider = adc_RoundValue((uint32)BCLK__BUS_CLK__HZ,
 3020              		.loc 1 1520 0
 3021 014e 43F20060 		movw	r0, #:lower16:24000000
 3022 0152 C0F26E10 		movt	r0, #:upper16:24000000
 3023 0156 41F20001 		movw	r1, #:lower16:2560000
 3024 015a C0F22701 		movt	r1, #:upper16:2560000
 3025 015e FFF7FEFF 		bl	adc_RoundValue
 3026 0162 0346     		mov	r3, r0
 3027 0164 BB82     		strh	r3, [r7, #20]	@ movhi
 3028              	.L105:
1521:.\Generated_Source\PSoC5/adc.c ****                                                        (uint32)adc_CFG3_CP_CLOCK_FREQ);
1522:.\Generated_Source\PSoC5/adc.c ****             }
1523:.\Generated_Source\PSoC5/adc.c ****         #endif /* adc_DEFAULT_NUM_CONFIGS > 2 */
1524:.\Generated_Source\PSoC5/adc.c **** 
1525:.\Generated_Source\PSoC5/adc.c ****         #if (adc_DEFAULT_NUM_CONFIGS > 3)
1526:.\Generated_Source\PSoC5/adc.c ****             if(config == 4u)
 3029              		.loc 1 1526 0
 3030 0166 FB79     		ldrb	r3, [r7, #7]	@ zero_extendqisi2
ARM GAS  C:\Users\arh\AppData\Local\Temp\ccpMsX4j.s 			page 81


 3031 0168 042B     		cmp	r3, #4
 3032 016a 23D1     		bne	.L106
1527:.\Generated_Source\PSoC5/adc.c ****             {
1528:.\Generated_Source\PSoC5/adc.c ****                 inputRange = adc_CFG4_INPUT_RANGE;
 3033              		.loc 1 1528 0
 3034 016c 4FF00403 		mov	r3, #4
 3035 0170 BB73     		strb	r3, [r7, #14]
1529:.\Generated_Source\PSoC5/adc.c ****                 resolution = adc_CFG4_RESOLUTION;
 3036              		.loc 1 1529 0
 3037 0172 4FF01003 		mov	r3, #16
 3038 0176 FB73     		strb	r3, [r7, #15]
1530:.\Generated_Source\PSoC5/adc.c ****                 idealGain = adc_CFG4_IDEAL_DEC_GAIN;
 3039              		.loc 1 1530 0
 3040 0178 49F2DB03 		movw	r3, #37083
 3041 017c 3B82     		strh	r3, [r7, #16]	@ movhi
1531:.\Generated_Source\PSoC5/adc.c ****                 idealOddGain = adc_CFG4_IDEAL_ODDDEC_GAIN;
 3042              		.loc 1 1531 0
 3043 017e 4FF40043 		mov	r3, #32768
 3044 0182 FB82     		strh	r3, [r7, #22]	@ movhi
1532:.\Generated_Source\PSoC5/adc.c ****                 adcClockDivider = adc_RoundValue((uint32)BCLK__BUS_CLK__HZ,  
 3045              		.loc 1 1532 0
 3046 0184 43F20060 		movw	r0, #:lower16:24000000
 3047 0188 C0F26E10 		movt	r0, #:upper16:24000000
 3048 018c 4CF20041 		movw	r1, #:lower16:640000
 3049 0190 C0F20901 		movt	r1, #:upper16:640000
 3050 0194 FFF7FEFF 		bl	adc_RoundValue
 3051 0198 0346     		mov	r3, r0
 3052 019a 7B82     		strh	r3, [r7, #18]	@ movhi
1533:.\Generated_Source\PSoC5/adc.c ****                                                             (uint32)adc_CFG4_CLOCK_FREQ);
1534:.\Generated_Source\PSoC5/adc.c ****                 cpClockDivider = adc_RoundValue((uint32)BCLK__BUS_CLK__HZ,
 3053              		.loc 1 1534 0
 3054 019c 43F20060 		movw	r0, #:lower16:24000000
 3055 01a0 C0F26E10 		movt	r0, #:upper16:24000000
 3056 01a4 41F20001 		movw	r1, #:lower16:2560000
 3057 01a8 C0F22701 		movt	r1, #:upper16:2560000
 3058 01ac FFF7FEFF 		bl	adc_RoundValue
 3059 01b0 0346     		mov	r3, r0
 3060 01b2 BB82     		strh	r3, [r7, #20]	@ movhi
 3061              	.L106:
1535:.\Generated_Source\PSoC5/adc.c ****                                                        (uint32)adc_CFG4_CP_CLOCK_FREQ);
1536:.\Generated_Source\PSoC5/adc.c ****             }
1537:.\Generated_Source\PSoC5/adc.c ****         #endif /* adc_DEFAULT_NUM_CONFIGS > 3 */
1538:.\Generated_Source\PSoC5/adc.c ****         
1539:.\Generated_Source\PSoC5/adc.c ****         adcClockDivider = adcClockDivider - 1;
 3062              		.loc 1 1539 0
 3063 01b4 7B8A     		ldrh	r3, [r7, #18]	@ movhi
 3064 01b6 03F1FF33 		add	r3, r3, #-1
 3065 01ba 7B82     		strh	r3, [r7, #18]	@ movhi
1540:.\Generated_Source\PSoC5/adc.c ****         /* Set the proper divider for the internal clock */
1541:.\Generated_Source\PSoC5/adc.c ****         #if(adc_DEFAULT_INTERNAL_CLK)
1542:.\Generated_Source\PSoC5/adc.c ****             adc_theACLK_SetDividerRegister(adcClockDivider, 1);
 3066              		.loc 1 1542 0
 3067 01bc 7B8A     		ldrh	r3, [r7, #18]
 3068 01be 1846     		mov	r0, r3
 3069 01c0 4FF00101 		mov	r1, #1
 3070 01c4 FFF7FEFF 		bl	adc_theACLK_SetDividerRegister
1543:.\Generated_Source\PSoC5/adc.c ****         #endif /* adc_DEFAULT_INTERNAL_CLK */
ARM GAS  C:\Users\arh\AppData\Local\Temp\ccpMsX4j.s 			page 82


1544:.\Generated_Source\PSoC5/adc.c ****         
1545:.\Generated_Source\PSoC5/adc.c ****         cpClockDivider = cpClockDivider - 1;
 3071              		.loc 1 1545 0
 3072 01c8 BB8A     		ldrh	r3, [r7, #20]	@ movhi
 3073 01ca 03F1FF33 		add	r3, r3, #-1
 3074 01ce BB82     		strh	r3, [r7, #20]	@ movhi
1546:.\Generated_Source\PSoC5/adc.c ****         /* Set the proper divider for the Charge pump clock */
1547:.\Generated_Source\PSoC5/adc.c ****         adc_Ext_CP_Clk_SetDividerRegister(cpClockDivider, 1);
 3075              		.loc 1 1547 0
 3076 01d0 BB8A     		ldrh	r3, [r7, #20]
 3077 01d2 1846     		mov	r0, r3
 3078 01d4 4FF00101 		mov	r1, #1
 3079 01d8 FFF7FEFF 		bl	adc_Ext_CP_Clk_SetDividerRegister
1548:.\Generated_Source\PSoC5/adc.c ****         
1549:.\Generated_Source\PSoC5/adc.c ****         /* Compensate the gain */
1550:.\Generated_Source\PSoC5/adc.c ****         adc_GainCompensation(inputRange, idealGain, idealOddGain, resolution);
 3080              		.loc 1 1550 0
 3081 01dc B87B     		ldrb	r0, [r7, #14]	@ zero_extendqisi2
 3082 01de 398A     		ldrh	r1, [r7, #16]
 3083 01e0 FA8A     		ldrh	r2, [r7, #22]
 3084 01e2 FB7B     		ldrb	r3, [r7, #15]	@ zero_extendqisi2
 3085 01e4 FFF7FEFF 		bl	adc_GainCompensation
1551:.\Generated_Source\PSoC5/adc.c ****         
1552:.\Generated_Source\PSoC5/adc.c ****         if(restart == 1u)
 3086              		.loc 1 1552 0
 3087 01e8 BB79     		ldrb	r3, [r7, #6]	@ zero_extendqisi2
 3088 01ea 012B     		cmp	r3, #1
 3089 01ec 03D1     		bne	.L107
1553:.\Generated_Source\PSoC5/adc.c ****         {        
1554:.\Generated_Source\PSoC5/adc.c ****             /* Restart the ADC */
1555:.\Generated_Source\PSoC5/adc.c ****             adc_Start();
 3090              		.loc 1 1555 0
 3091 01ee FFF7FEFF 		bl	adc_Start
1556:.\Generated_Source\PSoC5/adc.c ****             
1557:.\Generated_Source\PSoC5/adc.c ****             /* Code to disable the REFBUF0 if reference chosen is External ref */
1558:.\Generated_Source\PSoC5/adc.c ****             #if (((adc_CFG2_REFERENCE == adc_EXT_REF_ON_P03) || \
1559:.\Generated_Source\PSoC5/adc.c ****                  (adc_CFG2_REFERENCE == adc_EXT_REF_ON_P32)) || \
1560:.\Generated_Source\PSoC5/adc.c ****                  ((adc_CFG3_REFERENCE == adc_EXT_REF_ON_P03) || \
1561:.\Generated_Source\PSoC5/adc.c ****                  (adc_CFG3_REFERENCE == adc_EXT_REF_ON_P32)) || \
1562:.\Generated_Source\PSoC5/adc.c ****                  ((adc_CFG4_REFERENCE == adc_EXT_REF_ON_P03) || \
1563:.\Generated_Source\PSoC5/adc.c ****                  (adc_CFG4_REFERENCE == adc_EXT_REF_ON_P32)))
1564:.\Generated_Source\PSoC5/adc.c ****                 if (((config == 2) && 
1565:.\Generated_Source\PSoC5/adc.c ****                     ((adc_CFG2_REFERENCE == adc_EXT_REF_ON_P03) ||
1566:.\Generated_Source\PSoC5/adc.c ****                     (adc_CFG2_REFERENCE == adc_EXT_REF_ON_P32))) ||
1567:.\Generated_Source\PSoC5/adc.c ****                     ((config == 3) && 
1568:.\Generated_Source\PSoC5/adc.c ****                     ((adc_CFG3_REFERENCE == adc_EXT_REF_ON_P03) ||
1569:.\Generated_Source\PSoC5/adc.c ****                     (adc_CFG3_REFERENCE == adc_EXT_REF_ON_P32))) ||
1570:.\Generated_Source\PSoC5/adc.c ****                     ((config == 4) && 
1571:.\Generated_Source\PSoC5/adc.c ****                     ((adc_CFG4_REFERENCE == adc_EXT_REF_ON_P03) ||
1572:.\Generated_Source\PSoC5/adc.c ****                     (adc_CFG4_REFERENCE == adc_EXT_REF_ON_P32))))
1573:.\Generated_Source\PSoC5/adc.c ****                 {
1574:.\Generated_Source\PSoC5/adc.c ****                     /* Disable PRES, Enable power to VCMBUF0, REFBUF0 and 
1575:.\Generated_Source\PSoC5/adc.c ****                        REFBUF1, enable PRES */
1576:.\Generated_Source\PSoC5/adc.c ****                     #if (CY_PSOC3 || CY_PSOC5LP)
1577:.\Generated_Source\PSoC5/adc.c ****                         adc_RESET_CR4_REG |= adc_IGNORE_PRESA1;
1578:.\Generated_Source\PSoC5/adc.c ****                         adc_RESET_CR5_REG |= adc_IGNORE_PRESA2;
1579:.\Generated_Source\PSoC5/adc.c ****                     #elif (CY_PSOC5A)
ARM GAS  C:\Users\arh\AppData\Local\Temp\ccpMsX4j.s 			page 83


1580:.\Generated_Source\PSoC5/adc.c ****                         adc_RESET_CR1_REG |= adc_DIS_PRES1;
1581:.\Generated_Source\PSoC5/adc.c ****                         adc_RESET_CR3_REG |= adc_DIS_PRES2;
1582:.\Generated_Source\PSoC5/adc.c ****                     #endif /* CY_PSOC5A */
1583:.\Generated_Source\PSoC5/adc.c ****         
1584:.\Generated_Source\PSoC5/adc.c ****                     /* Disable the REFBUF0 */
1585:.\Generated_Source\PSoC5/adc.c ****                     adc_DSM_CR17_REG &= ~adc_DSM_EN_BUF_VREF;
1586:.\Generated_Source\PSoC5/adc.c ****                     
1587:.\Generated_Source\PSoC5/adc.c ****                     /* Wait for 3 microseconds */
1588:.\Generated_Source\PSoC5/adc.c ****                     CyDelayUs(3);
1589:.\Generated_Source\PSoC5/adc.c ****                     /* Enable the press circuit */
1590:.\Generated_Source\PSoC5/adc.c ****                     #if (CY_PSOC3 || CY_PSOC5LP)
1591:.\Generated_Source\PSoC5/adc.c ****                         adc_RESET_CR4_REG &= ~adc_IGNORE_PRESA1;
1592:.\Generated_Source\PSoC5/adc.c ****                         adc_RESET_CR5_REG &= ~adc_IGNORE_PRESA2;
1593:.\Generated_Source\PSoC5/adc.c ****                     #elif (CY_PSOC5A)
1594:.\Generated_Source\PSoC5/adc.c ****                         adc_RESET_CR1_REG &= ~adc_DIS_PRES1;
1595:.\Generated_Source\PSoC5/adc.c ****                         adc_RESET_CR3_REG &= ~adc_DIS_PRES2;
1596:.\Generated_Source\PSoC5/adc.c ****                     #endif /* CY_PSOC5A */
1597:.\Generated_Source\PSoC5/adc.c ****                 }
1598:.\Generated_Source\PSoC5/adc.c ****             #endif /* */
1599:.\Generated_Source\PSoC5/adc.c ****             
1600:.\Generated_Source\PSoC5/adc.c ****             #if ((CY_PSOC3 || CY_PSOC5LP) && \
1601:.\Generated_Source\PSoC5/adc.c ****                  ((adc_CFG2_INPUT_RANGE == adc_IR_VSSA_TO_2VREF) || \
1602:.\Generated_Source\PSoC5/adc.c ****                   (adc_CFG3_INPUT_RANGE == adc_IR_VSSA_TO_2VREF) || \
1603:.\Generated_Source\PSoC5/adc.c ****                   (adc_CFG4_INPUT_RANGE == adc_IR_VSSA_TO_2VREF)))
1604:.\Generated_Source\PSoC5/adc.c ****                 if(((config == 2) && 
1605:.\Generated_Source\PSoC5/adc.c ****                     (adc_CFG2_INPUT_RANGE == adc_IR_VSSA_TO_2VREF) && 
1606:.\Generated_Source\PSoC5/adc.c ****                     ((adc_CFG2_REFERENCE != adc_EXT_REF_ON_P03) && 
1607:.\Generated_Source\PSoC5/adc.c ****                      (adc_CFG2_REFERENCE != adc_EXT_REF_ON_P32))) ||
1608:.\Generated_Source\PSoC5/adc.c ****                      ((config == 3) && 
1609:.\Generated_Source\PSoC5/adc.c ****                       (adc_CFG3_INPUT_RANGE == adc_IR_VSSA_TO_2VREF) && 
1610:.\Generated_Source\PSoC5/adc.c ****                      ((adc_CFG3_REFERENCE != adc_EXT_REF_ON_P03) && 
1611:.\Generated_Source\PSoC5/adc.c ****                      (adc_CFG3_REFERENCE != adc_EXT_REF_ON_P32))) ||
1612:.\Generated_Source\PSoC5/adc.c ****                      ((config == 4) && 
1613:.\Generated_Source\PSoC5/adc.c ****                       (adc_CFG4_INPUT_RANGE == adc_IR_VSSA_TO_2VREF) && 
1614:.\Generated_Source\PSoC5/adc.c ****                      ((adc_CFG4_REFERENCE != adc_EXT_REF_ON_P03) && 
1615:.\Generated_Source\PSoC5/adc.c ****                      (adc_CFG4_REFERENCE != adc_EXT_REF_ON_P32))))
1616:.\Generated_Source\PSoC5/adc.c ****                 {
1617:.\Generated_Source\PSoC5/adc.c ****                     /* Disable PRES, Enable power to VCMBUF0, REFBUF0 and 
1618:.\Generated_Source\PSoC5/adc.c ****                        REFBUF1, enable PRES */
1619:.\Generated_Source\PSoC5/adc.c ****                     #if (CY_PSOC3 || CY_PSOC5LP)
1620:.\Generated_Source\PSoC5/adc.c ****                         adc_RESET_CR4_REG |= adc_IGNORE_PRESA1;
1621:.\Generated_Source\PSoC5/adc.c ****                         adc_RESET_CR5_REG |= adc_IGNORE_PRESA2;
1622:.\Generated_Source\PSoC5/adc.c ****                     #elif (CY_PSOC5A)
1623:.\Generated_Source\PSoC5/adc.c ****                         adc_RESET_CR1_REG |= adc_DIS_PRES1;
1624:.\Generated_Source\PSoC5/adc.c ****                         adc_RESET_CR3_REG |= adc_DIS_PRES2;
1625:.\Generated_Source\PSoC5/adc.c ****                     #endif /* CY_PSOC5A */
1626:.\Generated_Source\PSoC5/adc.c ****         
1627:.\Generated_Source\PSoC5/adc.c ****                     /* Enable the REFBUF1 */
1628:.\Generated_Source\PSoC5/adc.c ****                     adc_DSM_REF0_REG |= adc_DSM_EN_BUF_VREF_INN;
1629:.\Generated_Source\PSoC5/adc.c ****                     
1630:.\Generated_Source\PSoC5/adc.c ****                     /* Wait for 3 microseconds */
1631:.\Generated_Source\PSoC5/adc.c ****                     CyDelayUs(3);
1632:.\Generated_Source\PSoC5/adc.c ****                     /* Enable the press circuit */
1633:.\Generated_Source\PSoC5/adc.c ****                     #if (CY_PSOC3 || CY_PSOC5LP)
1634:.\Generated_Source\PSoC5/adc.c ****                         adc_RESET_CR4_REG &= ~adc_IGNORE_PRESA1;
1635:.\Generated_Source\PSoC5/adc.c ****                         adc_RESET_CR5_REG &= ~adc_IGNORE_PRESA2;
1636:.\Generated_Source\PSoC5/adc.c ****                     #elif (CY_PSOC5A)
ARM GAS  C:\Users\arh\AppData\Local\Temp\ccpMsX4j.s 			page 84


1637:.\Generated_Source\PSoC5/adc.c ****                         adc_RESET_CR1_REG &= ~adc_DIS_PRES1;
1638:.\Generated_Source\PSoC5/adc.c ****                         adc_RESET_CR3_REG &= ~adc_DIS_PRES2;
1639:.\Generated_Source\PSoC5/adc.c ****                     #endif /* CY_PSOC5A */
1640:.\Generated_Source\PSoC5/adc.c ****                 }
1641:.\Generated_Source\PSoC5/adc.c ****             #endif /* (CY_PSOC3 || CY_PSOC5LP) */
1642:.\Generated_Source\PSoC5/adc.c ****         
1643:.\Generated_Source\PSoC5/adc.c ****             /* Restart the ADC conversion */
1644:.\Generated_Source\PSoC5/adc.c ****             adc_StartConvert();
 3092              		.loc 1 1644 0
 3093 01f2 FFF7FEFF 		bl	adc_StartConvert
 3094              	.L107:
1645:.\Generated_Source\PSoC5/adc.c ****         }
1646:.\Generated_Source\PSoC5/adc.c ****     }
1647:.\Generated_Source\PSoC5/adc.c **** }     
 3095              		.loc 1 1647 0
 3096 01f6 07F11807 		add	r7, r7, #24
 3097 01fa BD46     		mov	sp, r7
 3098 01fc 80BD     		pop	{r7, pc}
 3099              		.cfi_endproc
 3100              	.LFE26:
 3101              		.size	adc_SelectConfiguration, .-adc_SelectConfiguration
 3102 01fe 00BF     		.section	.text.adc_GainCompensation,"ax",%progbits
 3103              		.align	2
 3104              		.global	adc_GainCompensation
 3105              		.thumb
 3106              		.thumb_func
 3107              		.type	adc_GainCompensation, %function
 3108              	adc_GainCompensation:
 3109              	.LFB27:
1648:.\Generated_Source\PSoC5/adc.c **** 
1649:.\Generated_Source\PSoC5/adc.c **** 
1650:.\Generated_Source\PSoC5/adc.c **** /*******************************************************************************
1651:.\Generated_Source\PSoC5/adc.c **** * Function Name: adc_GainCompensation(uint8, uint16, uint16, uint8)
1652:.\Generated_Source\PSoC5/adc.c **** ********************************************************************************
1653:.\Generated_Source\PSoC5/adc.c **** *
1654:.\Generated_Source\PSoC5/adc.c **** * Summary:
1655:.\Generated_Source\PSoC5/adc.c **** *  This API calculates the trim value and then loads this to GCOR register.
1656:.\Generated_Source\PSoC5/adc.c **** *
1657:.\Generated_Source\PSoC5/adc.c **** * Parameters:  
1658:.\Generated_Source\PSoC5/adc.c **** *  inputRange:  input range for which trim value is to be calculated.
1659:.\Generated_Source\PSoC5/adc.c **** *  IdealDecGain:  Ideal Decimator gain for the selected resolution and 
1660:.\Generated_Source\PSoC5/adc.c **** *                 conversion  mode.
1661:.\Generated_Source\PSoC5/adc.c **** *  IdealOddDecGain:  Ideal odd decimation gain for the selected resolution and 
1662:.\Generated_Source\PSoC5/adc.c ****                      conversion mode.
1663:.\Generated_Source\PSoC5/adc.c **** *  resolution:  Resolution to select the proper flash location for trim value.
1664:.\Generated_Source\PSoC5/adc.c **** *
1665:.\Generated_Source\PSoC5/adc.c **** * Return: 
1666:.\Generated_Source\PSoC5/adc.c **** *  void
1667:.\Generated_Source\PSoC5/adc.c **** *
1668:.\Generated_Source\PSoC5/adc.c **** *******************************************************************************/
1669:.\Generated_Source\PSoC5/adc.c **** void adc_GainCompensation(uint8 inputRange, uint16 IdealDecGain, uint16 IdealOddDecGain,  \
1670:.\Generated_Source\PSoC5/adc.c ****                                        uint8 resolution) 
1671:.\Generated_Source\PSoC5/adc.c **** {
 3110              		.loc 1 1671 0
 3111              		.cfi_startproc
 3112              		@ args = 0, pretend = 0, frame = 24
 3113              		@ frame_needed = 1, uses_anonymous_args = 0
ARM GAS  C:\Users\arh\AppData\Local\Temp\ccpMsX4j.s 			page 85


 3114              		@ link register save eliminated.
 3115 0000 80B4     		push	{r7}
 3116              	.LCFI70:
 3117              		.cfi_def_cfa_offset 4
 3118 0002 87B0     		sub	sp, sp, #28
 3119              	.LCFI71:
 3120              		.cfi_def_cfa_offset 32
 3121 0004 00AF     		add	r7, sp, #0
 3122              		.cfi_offset 7, -4
 3123              	.LCFI72:
 3124              		.cfi_def_cfa_register 7
 3125 0006 F871     		strb	r0, [r7, #7]
 3126 0008 B980     		strh	r1, [r7, #4]	@ movhi
 3127 000a 7A80     		strh	r2, [r7, #2]	@ movhi
 3128 000c 7B70     		strb	r3, [r7, #1]
1672:.\Generated_Source\PSoC5/adc.c ****     int8 flash;
1673:.\Generated_Source\PSoC5/adc.c ****     int16 Normalised;
1674:.\Generated_Source\PSoC5/adc.c ****     uint16 GcorValue;
1675:.\Generated_Source\PSoC5/adc.c ****     uint32 GcorTmp;
1676:.\Generated_Source\PSoC5/adc.c ****     
1677:.\Generated_Source\PSoC5/adc.c ****     switch(inputRange)
 3129              		.loc 1 1677 0
 3130 000e FB79     		ldrb	r3, [r7, #7]	@ zero_extendqisi2
 3131 0010 A3F10403 		sub	r3, r3, #4
 3132 0014 062B     		cmp	r3, #6
 3133 0016 5DD8     		bhi	.L109
 3134 0018 01A2     		adr	r2, .L114
 3135 001a 52F823F0 		ldr	pc, [r2, r3, lsl #2]
 3136 001e 00BF     		.align	2
 3137              	.L114:
 3138 0020 3D000000 		.word	.L110+1
 3139 0024 D5000000 		.word	.L109+1
 3140 0028 D5000000 		.word	.L109+1
 3141 002c 63000000 		.word	.L111+1
 3142 0030 89000000 		.word	.L112+1
 3143 0034 D5000000 		.word	.L109+1
 3144 0038 AF000000 		.word	.L113+1
 3145              	.L110:
1678:.\Generated_Source\PSoC5/adc.c ****     {         
1679:.\Generated_Source\PSoC5/adc.c ****         case adc_IR_VNEG_VREF_DIFF:
1680:.\Generated_Source\PSoC5/adc.c ****         
1681:.\Generated_Source\PSoC5/adc.c ****         /* Normalize the flash Value */
1682:.\Generated_Source\PSoC5/adc.c ****         if(resolution > 15)
 3146              		.loc 1 1682 0
 3147 003c 7B78     		ldrb	r3, [r7, #1]	@ zero_extendqisi2
 3148 003e 0F2B     		cmp	r3, #15
 3149 0040 07D9     		bls	.L115
1683:.\Generated_Source\PSoC5/adc.c ****         {
1684:.\Generated_Source\PSoC5/adc.c ****             flash = adc_DEC_TRIM_VREF_DIFF_16_20; 
 3150              		.loc 1 1684 0
 3151 0042 40F21413 		movw	r3, #:lower16:1224737044
 3152 0046 C4F60013 		movt	r3, #:upper16:1224737044
 3153 004a 1B78     		ldrb	r3, [r3, #0]
 3154 004c DBB2     		uxtb	r3, r3
 3155 004e FB73     		strb	r3, [r7, #15]
1685:.\Generated_Source\PSoC5/adc.c ****         }    
1686:.\Generated_Source\PSoC5/adc.c ****         else
ARM GAS  C:\Users\arh\AppData\Local\Temp\ccpMsX4j.s 			page 86


1687:.\Generated_Source\PSoC5/adc.c ****         {
1688:.\Generated_Source\PSoC5/adc.c ****             flash = adc_DEC_TRIM_VREF_DIFF_8_15;
1689:.\Generated_Source\PSoC5/adc.c ****         }        
1690:.\Generated_Source\PSoC5/adc.c ****         break;
 3156              		.loc 1 1690 0
 3157 0050 43E0     		b	.L117
 3158              	.L115:
 3159              		.loc 1 1688 0
 3160 0052 40F21813 		movw	r3, #:lower16:1224737048
 3161 0056 C4F60013 		movt	r3, #:upper16:1224737048
 3162 005a 1B78     		ldrb	r3, [r3, #0]
 3163 005c DBB2     		uxtb	r3, r3
 3164 005e FB73     		strb	r3, [r7, #15]
 3165              		.loc 1 1690 0
 3166 0060 3BE0     		b	.L117
 3167              	.L111:
1691:.\Generated_Source\PSoC5/adc.c ****         
1692:.\Generated_Source\PSoC5/adc.c ****         case adc_IR_VNEG_VREF_2_DIFF:
1693:.\Generated_Source\PSoC5/adc.c ****         
1694:.\Generated_Source\PSoC5/adc.c ****         /* Normalize the flash Value */
1695:.\Generated_Source\PSoC5/adc.c ****         if(resolution > 15)
 3168              		.loc 1 1695 0
 3169 0062 7B78     		ldrb	r3, [r7, #1]	@ zero_extendqisi2
 3170 0064 0F2B     		cmp	r3, #15
 3171 0066 07D9     		bls	.L118
1696:.\Generated_Source\PSoC5/adc.c ****         {
1697:.\Generated_Source\PSoC5/adc.c ****             flash = adc_DEC_TRIM_VREF_2_DIFF_16_20;
 3172              		.loc 1 1697 0
 3173 0068 40F21513 		movw	r3, #:lower16:1224737045
 3174 006c C4F60013 		movt	r3, #:upper16:1224737045
 3175 0070 1B78     		ldrb	r3, [r3, #0]
 3176 0072 DBB2     		uxtb	r3, r3
 3177 0074 FB73     		strb	r3, [r7, #15]
1698:.\Generated_Source\PSoC5/adc.c ****         }    
1699:.\Generated_Source\PSoC5/adc.c ****         else
1700:.\Generated_Source\PSoC5/adc.c ****         {
1701:.\Generated_Source\PSoC5/adc.c ****             flash = adc_DEC_TRIM_VREF_2_DIFF_8_15;
1702:.\Generated_Source\PSoC5/adc.c ****         }    
1703:.\Generated_Source\PSoC5/adc.c ****         break;
 3178              		.loc 1 1703 0
 3179 0076 30E0     		b	.L117
 3180              	.L118:
 3181              		.loc 1 1701 0
 3182 0078 40F21913 		movw	r3, #:lower16:1224737049
 3183 007c C4F60013 		movt	r3, #:upper16:1224737049
 3184 0080 1B78     		ldrb	r3, [r3, #0]
 3185 0082 DBB2     		uxtb	r3, r3
 3186 0084 FB73     		strb	r3, [r7, #15]
 3187              		.loc 1 1703 0
 3188 0086 28E0     		b	.L117
 3189              	.L112:
1704:.\Generated_Source\PSoC5/adc.c ****         
1705:.\Generated_Source\PSoC5/adc.c ****         case adc_IR_VNEG_VREF_4_DIFF:
1706:.\Generated_Source\PSoC5/adc.c ****         
1707:.\Generated_Source\PSoC5/adc.c ****         /* Normalize the flash Value */
1708:.\Generated_Source\PSoC5/adc.c ****         if(resolution > 15)
 3190              		.loc 1 1708 0
ARM GAS  C:\Users\arh\AppData\Local\Temp\ccpMsX4j.s 			page 87


 3191 0088 7B78     		ldrb	r3, [r7, #1]	@ zero_extendqisi2
 3192 008a 0F2B     		cmp	r3, #15
 3193 008c 07D9     		bls	.L120
1709:.\Generated_Source\PSoC5/adc.c ****         {
1710:.\Generated_Source\PSoC5/adc.c ****             flash = adc_DEC_TRIM_VREF_4_DIFF_16_20;
 3194              		.loc 1 1710 0
 3195 008e 40F21613 		movw	r3, #:lower16:1224737046
 3196 0092 C4F60013 		movt	r3, #:upper16:1224737046
 3197 0096 1B78     		ldrb	r3, [r3, #0]
 3198 0098 DBB2     		uxtb	r3, r3
 3199 009a FB73     		strb	r3, [r7, #15]
1711:.\Generated_Source\PSoC5/adc.c ****         }    
1712:.\Generated_Source\PSoC5/adc.c ****         else
1713:.\Generated_Source\PSoC5/adc.c ****         {
1714:.\Generated_Source\PSoC5/adc.c ****             flash = adc_DEC_TRIM_VREF_4_DIFF_8_15;
1715:.\Generated_Source\PSoC5/adc.c ****         }    
1716:.\Generated_Source\PSoC5/adc.c ****         break;
 3200              		.loc 1 1716 0
 3201 009c 1DE0     		b	.L117
 3202              	.L120:
 3203              		.loc 1 1714 0
 3204 009e 40F21A13 		movw	r3, #:lower16:1224737050
 3205 00a2 C4F60013 		movt	r3, #:upper16:1224737050
 3206 00a6 1B78     		ldrb	r3, [r3, #0]
 3207 00a8 DBB2     		uxtb	r3, r3
 3208 00aa FB73     		strb	r3, [r7, #15]
 3209              		.loc 1 1716 0
 3210 00ac 15E0     		b	.L117
 3211              	.L113:
1717:.\Generated_Source\PSoC5/adc.c ****         
1718:.\Generated_Source\PSoC5/adc.c ****         case adc_IR_VNEG_VREF_16_DIFF:
1719:.\Generated_Source\PSoC5/adc.c ****         
1720:.\Generated_Source\PSoC5/adc.c ****         /* Normalize the flash Value */
1721:.\Generated_Source\PSoC5/adc.c ****         if(resolution > 15)
 3212              		.loc 1 1721 0
 3213 00ae 7B78     		ldrb	r3, [r7, #1]	@ zero_extendqisi2
 3214 00b0 0F2B     		cmp	r3, #15
 3215 00b2 07D9     		bls	.L122
1722:.\Generated_Source\PSoC5/adc.c ****         {
1723:.\Generated_Source\PSoC5/adc.c ****             flash = adc_DEC_TRIM_VREF_16_DIFF_16_20;
 3216              		.loc 1 1723 0
 3217 00b4 40F21713 		movw	r3, #:lower16:1224737047
 3218 00b8 C4F60013 		movt	r3, #:upper16:1224737047
 3219 00bc 1B78     		ldrb	r3, [r3, #0]
 3220 00be DBB2     		uxtb	r3, r3
 3221 00c0 FB73     		strb	r3, [r7, #15]
1724:.\Generated_Source\PSoC5/adc.c ****         }    
1725:.\Generated_Source\PSoC5/adc.c ****         else
1726:.\Generated_Source\PSoC5/adc.c ****         {
1727:.\Generated_Source\PSoC5/adc.c ****             flash = adc_DEC_TRIM_VREF_16_DIFF_8_15;
1728:.\Generated_Source\PSoC5/adc.c ****         }    
1729:.\Generated_Source\PSoC5/adc.c ****         break;
 3222              		.loc 1 1729 0
 3223 00c2 0AE0     		b	.L117
 3224              	.L122:
 3225              		.loc 1 1727 0
 3226 00c4 40F21B13 		movw	r3, #:lower16:1224737051
ARM GAS  C:\Users\arh\AppData\Local\Temp\ccpMsX4j.s 			page 88


 3227 00c8 C4F60013 		movt	r3, #:upper16:1224737051
 3228 00cc 1B78     		ldrb	r3, [r3, #0]
 3229 00ce DBB2     		uxtb	r3, r3
 3230 00d0 FB73     		strb	r3, [r7, #15]
 3231              		.loc 1 1729 0
 3232 00d2 02E0     		b	.L117
 3233              	.L109:
1730:.\Generated_Source\PSoC5/adc.c ****         
1731:.\Generated_Source\PSoC5/adc.c ****         default:
1732:.\Generated_Source\PSoC5/adc.c ****             flash = 0;
 3234              		.loc 1 1732 0
 3235 00d4 4FF00003 		mov	r3, #0
 3236 00d8 FB73     		strb	r3, [r7, #15]
 3237              	.L117:
1733:.\Generated_Source\PSoC5/adc.c ****         break;
1734:.\Generated_Source\PSoC5/adc.c ****     }    
1735:.\Generated_Source\PSoC5/adc.c ****     if(inputRange == adc_IR_VSSA_TO_VREF || inputRange == adc_IR_VSSA_TO_2VREF || 
 3238              		.loc 1 1735 0
 3239 00da FB79     		ldrb	r3, [r7, #7]	@ zero_extendqisi2
 3240 00dc 002B     		cmp	r3, #0
 3241 00de 11D0     		beq	.L124
 3242 00e0 FB79     		ldrb	r3, [r7, #7]	@ zero_extendqisi2
 3243 00e2 012B     		cmp	r3, #1
 3244 00e4 0ED0     		beq	.L124
 3245 00e6 FB79     		ldrb	r3, [r7, #7]	@ zero_extendqisi2
 3246 00e8 022B     		cmp	r3, #2
 3247 00ea 0BD0     		beq	.L124
 3248 00ec FB79     		ldrb	r3, [r7, #7]	@ zero_extendqisi2
 3249 00ee 032B     		cmp	r3, #3
 3250 00f0 08D0     		beq	.L124
 3251 00f2 FB79     		ldrb	r3, [r7, #7]	@ zero_extendqisi2
 3252 00f4 052B     		cmp	r3, #5
 3253 00f6 05D0     		beq	.L124
 3254 00f8 FB79     		ldrb	r3, [r7, #7]	@ zero_extendqisi2
 3255 00fa 062B     		cmp	r3, #6
 3256 00fc 02D0     		beq	.L124
 3257 00fe FB79     		ldrb	r3, [r7, #7]	@ zero_extendqisi2
 3258 0100 092B     		cmp	r3, #9
 3259 0102 03D1     		bne	.L125
 3260              	.L124:
1736:.\Generated_Source\PSoC5/adc.c ****        inputRange == adc_IR_VSSA_TO_VDDA || inputRange == adc_IR_VSSA_TO_6VREF || 
1737:.\Generated_Source\PSoC5/adc.c ****        inputRange == adc_IR_VNEG_2VREF_DIFF || inputRange == adc_IR_VNEG_6VREF_DIFF ||
1738:.\Generated_Source\PSoC5/adc.c ****        inputRange == adc_IR_VNEG_VREF_8_DIFF)
1739:.\Generated_Source\PSoC5/adc.c ****     {
1740:.\Generated_Source\PSoC5/adc.c ****         Normalised  = 0;
 3261              		.loc 1 1740 0
 3262 0104 4FF00003 		mov	r3, #0
 3263 0108 3B82     		strh	r3, [r7, #16]	@ movhi
 3264              		.loc 1 1735 0
 3265 010a 06E0     		b	.L126
 3266              	.L125:
1741:.\Generated_Source\PSoC5/adc.c ****     }
1742:.\Generated_Source\PSoC5/adc.c ****     else
1743:.\Generated_Source\PSoC5/adc.c ****     {
1744:.\Generated_Source\PSoC5/adc.c ****         Normalised  = ((int16)flash) * 32;
 3267              		.loc 1 1744 0
 3268 010c 97F90F30 		ldrsb	r3, [r7, #15]
ARM GAS  C:\Users\arh\AppData\Local\Temp\ccpMsX4j.s 			page 89


 3269 0110 9BB2     		uxth	r3, r3
 3270 0112 4FEA4313 		lsl	r3, r3, #5
 3271 0116 9BB2     		uxth	r3, r3
 3272 0118 3B82     		strh	r3, [r7, #16]	@ movhi
 3273              	.L126:
1745:.\Generated_Source\PSoC5/adc.c ****     }
1746:.\Generated_Source\PSoC5/adc.c ****                     
1747:.\Generated_Source\PSoC5/adc.c ****     /* Add two values */
1748:.\Generated_Source\PSoC5/adc.c ****     GcorValue = IdealDecGain + Normalised;  
 3274              		.loc 1 1748 0
 3275 011a 3A8A     		ldrh	r2, [r7, #16]
 3276 011c BB88     		ldrh	r3, [r7, #4]	@ movhi
 3277 011e 1344     		add	r3, r2, r3
 3278 0120 7B82     		strh	r3, [r7, #18]	@ movhi
1749:.\Generated_Source\PSoC5/adc.c ****     GcorTmp = (uint32)GcorValue * (uint32)IdealOddDecGain;
 3279              		.loc 1 1749 0
 3280 0122 7B8A     		ldrh	r3, [r7, #18]
 3281 0124 7A88     		ldrh	r2, [r7, #2]
 3282 0126 02FB03F3 		mul	r3, r2, r3
 3283 012a 7B61     		str	r3, [r7, #20]
1750:.\Generated_Source\PSoC5/adc.c ****     GcorValue = (uint16)(GcorTmp / adc_IDEAL_GAIN_CONST);
 3284              		.loc 1 1750 0
 3285 012c 7B69     		ldr	r3, [r7, #20]
 3286 012e 4FEAD333 		lsr	r3, r3, #15
 3287 0132 7B82     		strh	r3, [r7, #18]	@ movhi
1751:.\Generated_Source\PSoC5/adc.c ****         
1752:.\Generated_Source\PSoC5/adc.c ****     if (resolution < 14)
 3288              		.loc 1 1752 0
 3289 0134 7B78     		ldrb	r3, [r7, #1]	@ zero_extendqisi2
 3290 0136 0D2B     		cmp	r3, #13
 3291 0138 12D8     		bhi	.L127
1753:.\Generated_Source\PSoC5/adc.c ****     {
1754:.\Generated_Source\PSoC5/adc.c ****         GcorValue = (GcorValue >> (15 - (resolution + 1)));
 3292              		.loc 1 1754 0
 3293 013a 7A8A     		ldrh	r2, [r7, #18]
 3294 013c 7B78     		ldrb	r3, [r7, #1]	@ zero_extendqisi2
 3295 013e 6FEA0303 		mvn	r3, r3
 3296 0142 03F10F03 		add	r3, r3, #15
 3297 0146 42FA03F3 		asr	r3, r2, r3
 3298 014a 7B82     		strh	r3, [r7, #18]	@ movhi
1755:.\Generated_Source\PSoC5/adc.c ****         adc_DEC_GVAL_REG = (resolution + 1);
 3299              		.loc 1 1755 0
 3300 014c 44F60E63 		movw	r3, #:lower16:1073761806
 3301 0150 C4F20003 		movt	r3, #:upper16:1073761806
 3302 0154 7A78     		ldrb	r2, [r7, #1]
 3303 0156 02F10102 		add	r2, r2, #1
 3304 015a D2B2     		uxtb	r2, r2
 3305 015c 1A70     		strb	r2, [r3, #0]
 3306 015e 06E0     		b	.L128
 3307              	.L127:
1756:.\Generated_Source\PSoC5/adc.c ****     }
1757:.\Generated_Source\PSoC5/adc.c ****     else
1758:.\Generated_Source\PSoC5/adc.c ****     {
1759:.\Generated_Source\PSoC5/adc.c ****         /* Use all 16 bits */
1760:.\Generated_Source\PSoC5/adc.c ****         adc_DEC_GVAL_REG = 15u;  
 3308              		.loc 1 1760 0
 3309 0160 44F60E63 		movw	r3, #:lower16:1073761806
ARM GAS  C:\Users\arh\AppData\Local\Temp\ccpMsX4j.s 			page 90


 3310 0164 C4F20003 		movt	r3, #:upper16:1073761806
 3311 0168 4FF00F02 		mov	r2, #15
 3312 016c 1A70     		strb	r2, [r3, #0]
 3313              	.L128:
1761:.\Generated_Source\PSoC5/adc.c ****     }
1762:.\Generated_Source\PSoC5/adc.c ****       
1763:.\Generated_Source\PSoC5/adc.c ****     /* Load the gain correction register */    
1764:.\Generated_Source\PSoC5/adc.c ****     adc_DEC_GCOR_REG  = (uint8)GcorValue;
 3314              		.loc 1 1764 0
 3315 016e 44F60C63 		movw	r3, #:lower16:1073761804
 3316 0172 C4F20003 		movt	r3, #:upper16:1073761804
 3317 0176 7A8A     		ldrh	r2, [r7, #18]	@ movhi
 3318 0178 D2B2     		uxtb	r2, r2
 3319 017a 1A70     		strb	r2, [r3, #0]
1765:.\Generated_Source\PSoC5/adc.c ****     adc_DEC_GCORH_REG = (uint8)(GcorValue >> 8);    
 3320              		.loc 1 1765 0
 3321 017c 44F60D63 		movw	r3, #:lower16:1073761805
 3322 0180 C4F20003 		movt	r3, #:upper16:1073761805
 3323 0184 7A8A     		ldrh	r2, [r7, #18]
 3324 0186 4FEA1222 		lsr	r2, r2, #8
 3325 018a 92B2     		uxth	r2, r2
 3326 018c D2B2     		uxtb	r2, r2
 3327 018e 1A70     		strb	r2, [r3, #0]
1766:.\Generated_Source\PSoC5/adc.c ****     
1767:.\Generated_Source\PSoC5/adc.c ****     /* Workaround for 0 to 2*Vref mode with PSoC5A siliocn */
1768:.\Generated_Source\PSoC5/adc.c ****     #if( CY_PSOC5A) 
1769:.\Generated_Source\PSoC5/adc.c ****         if( inputRange == adc_IR_VSSA_TO_2VREF)
 3328              		.loc 1 1769 0
 3329 0190 FB79     		ldrb	r3, [r7, #7]	@ zero_extendqisi2
 3330 0192 012B     		cmp	r3, #1
 3331 0194 14D1     		bne	.L130
1770:.\Generated_Source\PSoC5/adc.c ****         {
1771:.\Generated_Source\PSoC5/adc.c ****             adc_DEC_GCOR_REG = 0x00u;
 3332              		.loc 1 1771 0
 3333 0196 44F60C63 		movw	r3, #:lower16:1073761804
 3334 019a C4F20003 		movt	r3, #:upper16:1073761804
 3335 019e 4FF00002 		mov	r2, #0
 3336 01a2 1A70     		strb	r2, [r3, #0]
1772:.\Generated_Source\PSoC5/adc.c ****             adc_DEC_GCORH_REG = 0x00u;
 3337              		.loc 1 1772 0
 3338 01a4 44F60D63 		movw	r3, #:lower16:1073761805
 3339 01a8 C4F20003 		movt	r3, #:upper16:1073761805
 3340 01ac 4FF00002 		mov	r2, #0
 3341 01b0 1A70     		strb	r2, [r3, #0]
1773:.\Generated_Source\PSoC5/adc.c ****             adc_DEC_GVAL_REG = 0x00u;
 3342              		.loc 1 1773 0
 3343 01b2 44F60E63 		movw	r3, #:lower16:1073761806
 3344 01b6 C4F20003 		movt	r3, #:upper16:1073761806
 3345 01ba 4FF00002 		mov	r2, #0
 3346 01be 1A70     		strb	r2, [r3, #0]
 3347              	.L130:
1774:.\Generated_Source\PSoC5/adc.c ****         }
1775:.\Generated_Source\PSoC5/adc.c ****     #endif /* CY_PSOC5A */
1776:.\Generated_Source\PSoC5/adc.c **** }
 3348              		.loc 1 1776 0
 3349 01c0 07F11C07 		add	r7, r7, #28
 3350 01c4 BD46     		mov	sp, r7
ARM GAS  C:\Users\arh\AppData\Local\Temp\ccpMsX4j.s 			page 91


 3351 01c6 80BC     		pop	{r7}
 3352 01c8 7047     		bx	lr
 3353              		.cfi_endproc
 3354              	.LFE27:
 3355              		.size	adc_GainCompensation, .-adc_GainCompensation
 3356 01ca 00BF     		.section	.text.adc_SetDSMRef0Reg,"ax",%progbits
 3357              		.align	2
 3358              		.global	adc_SetDSMRef0Reg
 3359              		.thumb
 3360              		.thumb_func
 3361              		.type	adc_SetDSMRef0Reg, %function
 3362              	adc_SetDSMRef0Reg:
 3363              	.LFB28:
1777:.\Generated_Source\PSoC5/adc.c **** 
1778:.\Generated_Source\PSoC5/adc.c **** 
1779:.\Generated_Source\PSoC5/adc.c **** /******************************************************************************
1780:.\Generated_Source\PSoC5/adc.c **** * Function Name: adc_SetDSMRef0Reg(uint8)
1781:.\Generated_Source\PSoC5/adc.c **** ******************************************************************************
1782:.\Generated_Source\PSoC5/adc.c **** *
1783:.\Generated_Source\PSoC5/adc.c **** * Summary:
1784:.\Generated_Source\PSoC5/adc.c **** *  This API sets the DSM_REF0 register. This is written for internal use.
1785:.\Generated_Source\PSoC5/adc.c **** *
1786:.\Generated_Source\PSoC5/adc.c **** * Parameters:  
1787:.\Generated_Source\PSoC5/adc.c **** *  value:  Value to be written to DSM_REF0 register.
1788:.\Generated_Source\PSoC5/adc.c **** *
1789:.\Generated_Source\PSoC5/adc.c **** * Return: 
1790:.\Generated_Source\PSoC5/adc.c **** *  void
1791:.\Generated_Source\PSoC5/adc.c **** *
1792:.\Generated_Source\PSoC5/adc.c **** ******************************************************************************/
1793:.\Generated_Source\PSoC5/adc.c **** void adc_SetDSMRef0Reg(uint8 value) 
1794:.\Generated_Source\PSoC5/adc.c **** {
 3364              		.loc 1 1794 0
 3365              		.cfi_startproc
 3366              		@ args = 0, pretend = 0, frame = 8
 3367              		@ frame_needed = 1, uses_anonymous_args = 0
 3368 0000 80B5     		push	{r7, lr}
 3369              	.LCFI73:
 3370              		.cfi_def_cfa_offset 8
 3371 0002 82B0     		sub	sp, sp, #8
 3372              	.LCFI74:
 3373              		.cfi_def_cfa_offset 16
 3374 0004 00AF     		add	r7, sp, #0
 3375              		.cfi_offset 14, -4
 3376              		.cfi_offset 7, -8
 3377              	.LCFI75:
 3378              		.cfi_def_cfa_register 7
 3379 0006 0346     		mov	r3, r0
 3380 0008 FB71     		strb	r3, [r7, #7]
1795:.\Generated_Source\PSoC5/adc.c ****     /* Disable PRES, Enable power to VCMBUF0, REFBUF0 and REFBUF1, enable 
1796:.\Generated_Source\PSoC5/adc.c ****        PRES */
1797:.\Generated_Source\PSoC5/adc.c ****     #if (CY_PSOC3 || CY_PSOC5LP)
1798:.\Generated_Source\PSoC5/adc.c ****         adc_RESET_CR4_REG |= (adc_IGNORE_PRESA1 | adc_IGNORE_PRESD1);
1799:.\Generated_Source\PSoC5/adc.c ****         adc_RESET_CR5_REG |= (adc_IGNORE_PRESA2 | adc_IGNORE_PRESD2);
1800:.\Generated_Source\PSoC5/adc.c ****     #elif (CY_PSOC5A)
1801:.\Generated_Source\PSoC5/adc.c ****         adc_RESET_CR1_REG |= adc_DIS_PRES1;
 3381              		.loc 1 1801 0
 3382 000a 44F2F563 		movw	r3, #:lower16:1073759989
ARM GAS  C:\Users\arh\AppData\Local\Temp\ccpMsX4j.s 			page 92


 3383 000e C4F20003 		movt	r3, #:upper16:1073759989
 3384 0012 44F2F562 		movw	r2, #:lower16:1073759989
 3385 0016 C4F20002 		movt	r2, #:upper16:1073759989
 3386 001a 1278     		ldrb	r2, [r2, #0]
 3387 001c D2B2     		uxtb	r2, r2
 3388 001e 42F01002 		orr	r2, r2, #16
 3389 0022 D2B2     		uxtb	r2, r2
 3390 0024 1A70     		strb	r2, [r3, #0]
1802:.\Generated_Source\PSoC5/adc.c ****         adc_RESET_CR3_REG |= adc_DIS_PRES2;
 3391              		.loc 1 1802 0
 3392 0026 44F2F763 		movw	r3, #:lower16:1073759991
 3393 002a C4F20003 		movt	r3, #:upper16:1073759991
 3394 002e 44F2F762 		movw	r2, #:lower16:1073759991
 3395 0032 C4F20002 		movt	r2, #:upper16:1073759991
 3396 0036 1278     		ldrb	r2, [r2, #0]
 3397 0038 D2B2     		uxtb	r2, r2
 3398 003a 42F00802 		orr	r2, r2, #8
 3399 003e D2B2     		uxtb	r2, r2
 3400 0040 1A70     		strb	r2, [r3, #0]
1803:.\Generated_Source\PSoC5/adc.c ****     #endif /* CY_PSOC5A */
1804:.\Generated_Source\PSoC5/adc.c ****         adc_DSM_REF0_REG = value;   
 3401              		.loc 1 1804 0
 3402 0042 45F69203 		movw	r3, #:lower16:1073764498
 3403 0046 C4F20003 		movt	r3, #:upper16:1073764498
 3404 004a FA79     		ldrb	r2, [r7, #7]
 3405 004c 1A70     		strb	r2, [r3, #0]
1805:.\Generated_Source\PSoC5/adc.c **** 		
1806:.\Generated_Source\PSoC5/adc.c **** 	/* Wait for 3 microseconds */
1807:.\Generated_Source\PSoC5/adc.c ****     CyDelayUs(3);
 3406              		.loc 1 1807 0
 3407 004e 4FF00300 		mov	r0, #3
 3408 0052 FFF7FEFF 		bl	CyDelayUs
1808:.\Generated_Source\PSoC5/adc.c ****     /* Enable the press circuit */
1809:.\Generated_Source\PSoC5/adc.c ****     #if (CY_PSOC3 || CY_PSOC5LP)
1810:.\Generated_Source\PSoC5/adc.c ****         adc_RESET_CR4_REG &= ~(adc_IGNORE_PRESA1 | adc_IGNORE_PRESD1);
1811:.\Generated_Source\PSoC5/adc.c ****         adc_RESET_CR5_REG &= ~(adc_IGNORE_PRESA2 | adc_IGNORE_PRESD2);
1812:.\Generated_Source\PSoC5/adc.c ****     #elif (CY_PSOC5A)
1813:.\Generated_Source\PSoC5/adc.c ****         adc_RESET_CR1_REG &= ~adc_DIS_PRES1;
 3409              		.loc 1 1813 0
 3410 0056 44F2F563 		movw	r3, #:lower16:1073759989
 3411 005a C4F20003 		movt	r3, #:upper16:1073759989
 3412 005e 44F2F562 		movw	r2, #:lower16:1073759989
 3413 0062 C4F20002 		movt	r2, #:upper16:1073759989
 3414 0066 1278     		ldrb	r2, [r2, #0]
 3415 0068 D2B2     		uxtb	r2, r2
 3416 006a 02F0EF02 		and	r2, r2, #239
 3417 006e 1A70     		strb	r2, [r3, #0]
1814:.\Generated_Source\PSoC5/adc.c ****         adc_RESET_CR3_REG &= ~adc_DIS_PRES2;
 3418              		.loc 1 1814 0
 3419 0070 44F2F763 		movw	r3, #:lower16:1073759991
 3420 0074 C4F20003 		movt	r3, #:upper16:1073759991
 3421 0078 44F2F762 		movw	r2, #:lower16:1073759991
 3422 007c C4F20002 		movt	r2, #:upper16:1073759991
 3423 0080 1278     		ldrb	r2, [r2, #0]
 3424 0082 D2B2     		uxtb	r2, r2
 3425 0084 02F0F702 		and	r2, r2, #247
 3426 0088 1A70     		strb	r2, [r3, #0]
ARM GAS  C:\Users\arh\AppData\Local\Temp\ccpMsX4j.s 			page 93


1815:.\Generated_Source\PSoC5/adc.c ****     #endif /* CY_PSOC5A */
1816:.\Generated_Source\PSoC5/adc.c **** }
 3427              		.loc 1 1816 0
 3428 008a 07F10807 		add	r7, r7, #8
 3429 008e BD46     		mov	sp, r7
 3430 0090 80BD     		pop	{r7, pc}
 3431              		.cfi_endproc
 3432              	.LFE28:
 3433              		.size	adc_SetDSMRef0Reg, .-adc_SetDSMRef0Reg
 3434 0092 00BF     		.text
 3435              	.Letext0:
 3436              		.section	.debug_loc,"",%progbits
 3437              	.Ldebug_loc0:
 3438              	.LLST0:
 3439 0000 00000000 		.4byte	.LFB0
 3440 0004 02000000 		.4byte	.LCFI0
 3441 0008 0100     		.2byte	0x1
 3442 000a 5D       		.byte	0x5d
 3443 000b 02000000 		.4byte	.LCFI0
 3444 000f 04000000 		.4byte	.LCFI1
 3445 0013 0200     		.2byte	0x2
 3446 0015 7D       		.byte	0x7d
 3447 0016 08       		.sleb128 8
 3448 0017 04000000 		.4byte	.LCFI1
 3449 001b 32000000 		.4byte	.LFE0
 3450 001f 0200     		.2byte	0x2
 3451 0021 77       		.byte	0x77
 3452 0022 08       		.sleb128 8
 3453 0023 00000000 		.4byte	0x0
 3454 0027 00000000 		.4byte	0x0
 3455              	.LLST1:
 3456 002b 00000000 		.4byte	.LFB1
 3457 002f 02000000 		.4byte	.LCFI2
 3458 0033 0100     		.2byte	0x1
 3459 0035 5D       		.byte	0x5d
 3460 0036 02000000 		.4byte	.LCFI2
 3461 003a 04000000 		.4byte	.LCFI3
 3462 003e 0200     		.2byte	0x2
 3463 0040 7D       		.byte	0x7d
 3464 0041 08       		.sleb128 8
 3465 0042 04000000 		.4byte	.LCFI3
 3466 0046 C2010000 		.4byte	.LFE1
 3467 004a 0200     		.2byte	0x2
 3468 004c 77       		.byte	0x77
 3469 004d 08       		.sleb128 8
 3470 004e 00000000 		.4byte	0x0
 3471 0052 00000000 		.4byte	0x0
 3472              	.LLST2:
 3473 0056 00000000 		.4byte	.LFB2
 3474 005a 02000000 		.4byte	.LCFI4
 3475 005e 0100     		.2byte	0x1
 3476 0060 5D       		.byte	0x5d
 3477 0061 02000000 		.4byte	.LCFI4
 3478 0065 04000000 		.4byte	.LCFI5
 3479 0069 0200     		.2byte	0x2
 3480 006b 7D       		.byte	0x7d
 3481 006c 04       		.sleb128 4
ARM GAS  C:\Users\arh\AppData\Local\Temp\ccpMsX4j.s 			page 94


 3482 006d 04000000 		.4byte	.LCFI5
 3483 0071 AA000000 		.4byte	.LFE2
 3484 0075 0200     		.2byte	0x2
 3485 0077 77       		.byte	0x77
 3486 0078 04       		.sleb128 4
 3487 0079 00000000 		.4byte	0x0
 3488 007d 00000000 		.4byte	0x0
 3489              	.LLST3:
 3490 0081 00000000 		.4byte	.LFB3
 3491 0085 02000000 		.4byte	.LCFI6
 3492 0089 0100     		.2byte	0x1
 3493 008b 5D       		.byte	0x5d
 3494 008c 02000000 		.4byte	.LCFI6
 3495 0090 04000000 		.4byte	.LCFI7
 3496 0094 0200     		.2byte	0x2
 3497 0096 7D       		.byte	0x7d
 3498 0097 04       		.sleb128 4
 3499 0098 04000000 		.4byte	.LCFI7
 3500 009c BA000000 		.4byte	.LFE3
 3501 00a0 0200     		.2byte	0x2
 3502 00a2 77       		.byte	0x77
 3503 00a3 04       		.sleb128 4
 3504 00a4 00000000 		.4byte	0x0
 3505 00a8 00000000 		.4byte	0x0
 3506              	.LLST4:
 3507 00ac 00000000 		.4byte	.LFB4
 3508 00b0 02000000 		.4byte	.LCFI8
 3509 00b4 0100     		.2byte	0x1
 3510 00b6 5D       		.byte	0x5d
 3511 00b7 02000000 		.4byte	.LCFI8
 3512 00bb 04000000 		.4byte	.LCFI9
 3513 00bf 0200     		.2byte	0x2
 3514 00c1 7D       		.byte	0x7d
 3515 00c2 04       		.sleb128 4
 3516 00c3 04000000 		.4byte	.LCFI9
 3517 00c7 36010000 		.4byte	.LFE4
 3518 00cb 0200     		.2byte	0x2
 3519 00cd 77       		.byte	0x77
 3520 00ce 04       		.sleb128 4
 3521 00cf 00000000 		.4byte	0x0
 3522 00d3 00000000 		.4byte	0x0
 3523              	.LLST5:
 3524 00d7 00000000 		.4byte	.LFB5
 3525 00db 02000000 		.4byte	.LCFI10
 3526 00df 0100     		.2byte	0x1
 3527 00e1 5D       		.byte	0x5d
 3528 00e2 02000000 		.4byte	.LCFI10
 3529 00e6 04000000 		.4byte	.LCFI11
 3530 00ea 0200     		.2byte	0x2
 3531 00ec 7D       		.byte	0x7d
 3532 00ed 08       		.sleb128 8
 3533 00ee 04000000 		.4byte	.LCFI11
 3534 00f2 3A000000 		.4byte	.LFE5
 3535 00f6 0200     		.2byte	0x2
 3536 00f8 77       		.byte	0x77
 3537 00f9 08       		.sleb128 8
 3538 00fa 00000000 		.4byte	0x0
ARM GAS  C:\Users\arh\AppData\Local\Temp\ccpMsX4j.s 			page 95


 3539 00fe 00000000 		.4byte	0x0
 3540              	.LLST6:
 3541 0102 00000000 		.4byte	.LFB6
 3542 0106 02000000 		.4byte	.LCFI12
 3543 010a 0100     		.2byte	0x1
 3544 010c 5D       		.byte	0x5d
 3545 010d 02000000 		.4byte	.LCFI12
 3546 0111 04000000 		.4byte	.LCFI13
 3547 0115 0200     		.2byte	0x2
 3548 0117 7D       		.byte	0x7d
 3549 0118 08       		.sleb128 8
 3550 0119 04000000 		.4byte	.LCFI13
 3551 011d B0010000 		.4byte	.LFE6
 3552 0121 0200     		.2byte	0x2
 3553 0123 77       		.byte	0x77
 3554 0124 08       		.sleb128 8
 3555 0125 00000000 		.4byte	0x0
 3556 0129 00000000 		.4byte	0x0
 3557              	.LLST7:
 3558 012d 00000000 		.4byte	.LFB7
 3559 0131 02000000 		.4byte	.LCFI14
 3560 0135 0100     		.2byte	0x1
 3561 0137 5D       		.byte	0x5d
 3562 0138 02000000 		.4byte	.LCFI14
 3563 013c 04000000 		.4byte	.LCFI15
 3564 0140 0200     		.2byte	0x2
 3565 0142 7D       		.byte	0x7d
 3566 0143 04       		.sleb128 4
 3567 0144 04000000 		.4byte	.LCFI15
 3568 0148 06000000 		.4byte	.LCFI16
 3569 014c 0200     		.2byte	0x2
 3570 014e 7D       		.byte	0x7d
 3571 014f 18       		.sleb128 24
 3572 0150 06000000 		.4byte	.LCFI16
 3573 0154 44000000 		.4byte	.LFE7
 3574 0158 0200     		.2byte	0x2
 3575 015a 77       		.byte	0x77
 3576 015b 18       		.sleb128 24
 3577 015c 00000000 		.4byte	0x0
 3578 0160 00000000 		.4byte	0x0
 3579              	.LLST8:
 3580 0164 00000000 		.4byte	.LFB8
 3581 0168 02000000 		.4byte	.LCFI17
 3582 016c 0100     		.2byte	0x1
 3583 016e 5D       		.byte	0x5d
 3584 016f 02000000 		.4byte	.LCFI17
 3585 0173 04000000 		.4byte	.LCFI18
 3586 0177 0200     		.2byte	0x2
 3587 0179 7D       		.byte	0x7d
 3588 017a 04       		.sleb128 4
 3589 017b 04000000 		.4byte	.LCFI18
 3590 017f 06000000 		.4byte	.LCFI19
 3591 0183 0200     		.2byte	0x2
 3592 0185 7D       		.byte	0x7d
 3593 0186 18       		.sleb128 24
 3594 0187 06000000 		.4byte	.LCFI19
 3595 018b 3C000000 		.4byte	.LFE8
ARM GAS  C:\Users\arh\AppData\Local\Temp\ccpMsX4j.s 			page 96


 3596 018f 0200     		.2byte	0x2
 3597 0191 77       		.byte	0x77
 3598 0192 18       		.sleb128 24
 3599 0193 00000000 		.4byte	0x0
 3600 0197 00000000 		.4byte	0x0
 3601              	.LLST9:
 3602 019b 00000000 		.4byte	.LFB9
 3603 019f 02000000 		.4byte	.LCFI20
 3604 01a3 0100     		.2byte	0x1
 3605 01a5 5D       		.byte	0x5d
 3606 01a6 02000000 		.4byte	.LCFI20
 3607 01aa 04000000 		.4byte	.LCFI21
 3608 01ae 0200     		.2byte	0x2
 3609 01b0 7D       		.byte	0x7d
 3610 01b1 0C       		.sleb128 12
 3611 01b2 04000000 		.4byte	.LCFI21
 3612 01b6 06000000 		.4byte	.LCFI22
 3613 01ba 0200     		.2byte	0x2
 3614 01bc 7D       		.byte	0x7d
 3615 01bd 20       		.sleb128 32
 3616 01be 06000000 		.4byte	.LCFI22
 3617 01c2 E4000000 		.4byte	.LFE9
 3618 01c6 0200     		.2byte	0x2
 3619 01c8 77       		.byte	0x77
 3620 01c9 20       		.sleb128 32
 3621 01ca 00000000 		.4byte	0x0
 3622 01ce 00000000 		.4byte	0x0
 3623              	.LLST10:
 3624 01d2 00000000 		.4byte	.LFB10
 3625 01d6 02000000 		.4byte	.LCFI23
 3626 01da 0100     		.2byte	0x1
 3627 01dc 5D       		.byte	0x5d
 3628 01dd 02000000 		.4byte	.LCFI23
 3629 01e1 04000000 		.4byte	.LCFI24
 3630 01e5 0200     		.2byte	0x2
 3631 01e7 7D       		.byte	0x7d
 3632 01e8 04       		.sleb128 4
 3633 01e9 04000000 		.4byte	.LCFI24
 3634 01ed 06000000 		.4byte	.LCFI25
 3635 01f1 0200     		.2byte	0x2
 3636 01f3 7D       		.byte	0x7d
 3637 01f4 10       		.sleb128 16
 3638 01f5 06000000 		.4byte	.LCFI25
 3639 01f9 BA000000 		.4byte	.LFE10
 3640 01fd 0200     		.2byte	0x2
 3641 01ff 77       		.byte	0x77
 3642 0200 10       		.sleb128 16
 3643 0201 00000000 		.4byte	0x0
 3644 0205 00000000 		.4byte	0x0
 3645              	.LLST11:
 3646 0209 00000000 		.4byte	.LFB11
 3647 020d 02000000 		.4byte	.LCFI26
 3648 0211 0100     		.2byte	0x1
 3649 0213 5D       		.byte	0x5d
 3650 0214 02000000 		.4byte	.LCFI26
 3651 0218 04000000 		.4byte	.LCFI27
 3652 021c 0200     		.2byte	0x2
ARM GAS  C:\Users\arh\AppData\Local\Temp\ccpMsX4j.s 			page 97


 3653 021e 7D       		.byte	0x7d
 3654 021f 04       		.sleb128 4
 3655 0220 04000000 		.4byte	.LCFI27
 3656 0224 06000000 		.4byte	.LCFI28
 3657 0228 0200     		.2byte	0x2
 3658 022a 7D       		.byte	0x7d
 3659 022b 10       		.sleb128 16
 3660 022c 06000000 		.4byte	.LCFI28
 3661 0230 44000000 		.4byte	.LFE11
 3662 0234 0200     		.2byte	0x2
 3663 0236 77       		.byte	0x77
 3664 0237 10       		.sleb128 16
 3665 0238 00000000 		.4byte	0x0
 3666 023c 00000000 		.4byte	0x0
 3667              	.LLST12:
 3668 0240 00000000 		.4byte	.LFB12
 3669 0244 02000000 		.4byte	.LCFI29
 3670 0248 0100     		.2byte	0x1
 3671 024a 5D       		.byte	0x5d
 3672 024b 02000000 		.4byte	.LCFI29
 3673 024f 04000000 		.4byte	.LCFI30
 3674 0253 0200     		.2byte	0x2
 3675 0255 7D       		.byte	0x7d
 3676 0256 04       		.sleb128 4
 3677 0257 04000000 		.4byte	.LCFI30
 3678 025b 26000000 		.4byte	.LFE12
 3679 025f 0200     		.2byte	0x2
 3680 0261 77       		.byte	0x77
 3681 0262 04       		.sleb128 4
 3682 0263 00000000 		.4byte	0x0
 3683 0267 00000000 		.4byte	0x0
 3684              	.LLST13:
 3685 026b 00000000 		.4byte	.LFB13
 3686 026f 02000000 		.4byte	.LCFI31
 3687 0273 0100     		.2byte	0x1
 3688 0275 5D       		.byte	0x5d
 3689 0276 02000000 		.4byte	.LCFI31
 3690 027a 04000000 		.4byte	.LCFI32
 3691 027e 0200     		.2byte	0x2
 3692 0280 7D       		.byte	0x7d
 3693 0281 04       		.sleb128 4
 3694 0282 04000000 		.4byte	.LCFI32
 3695 0286 32000000 		.4byte	.LFE13
 3696 028a 0200     		.2byte	0x2
 3697 028c 77       		.byte	0x77
 3698 028d 04       		.sleb128 4
 3699 028e 00000000 		.4byte	0x0
 3700 0292 00000000 		.4byte	0x0
 3701              	.LLST14:
 3702 0296 00000000 		.4byte	.LFB14
 3703 029a 02000000 		.4byte	.LCFI33
 3704 029e 0100     		.2byte	0x1
 3705 02a0 5D       		.byte	0x5d
 3706 02a1 02000000 		.4byte	.LCFI33
 3707 02a5 04000000 		.4byte	.LCFI34
 3708 02a9 0200     		.2byte	0x2
 3709 02ab 7D       		.byte	0x7d
ARM GAS  C:\Users\arh\AppData\Local\Temp\ccpMsX4j.s 			page 98


 3710 02ac 04       		.sleb128 4
 3711 02ad 04000000 		.4byte	.LCFI34
 3712 02b1 06000000 		.4byte	.LCFI35
 3713 02b5 0200     		.2byte	0x2
 3714 02b7 7D       		.byte	0x7d
 3715 02b8 18       		.sleb128 24
 3716 02b9 06000000 		.4byte	.LCFI35
 3717 02bd 60000000 		.4byte	.LFE14
 3718 02c1 0200     		.2byte	0x2
 3719 02c3 77       		.byte	0x77
 3720 02c4 18       		.sleb128 24
 3721 02c5 00000000 		.4byte	0x0
 3722 02c9 00000000 		.4byte	0x0
 3723              	.LLST15:
 3724 02cd 00000000 		.4byte	.LFB15
 3725 02d1 02000000 		.4byte	.LCFI36
 3726 02d5 0100     		.2byte	0x1
 3727 02d7 5D       		.byte	0x5d
 3728 02d8 02000000 		.4byte	.LCFI36
 3729 02dc 04000000 		.4byte	.LCFI37
 3730 02e0 0200     		.2byte	0x2
 3731 02e2 7D       		.byte	0x7d
 3732 02e3 04       		.sleb128 4
 3733 02e4 04000000 		.4byte	.LCFI37
 3734 02e8 1A000000 		.4byte	.LFE15
 3735 02ec 0200     		.2byte	0x2
 3736 02ee 77       		.byte	0x77
 3737 02ef 04       		.sleb128 4
 3738 02f0 00000000 		.4byte	0x0
 3739 02f4 00000000 		.4byte	0x0
 3740              	.LLST16:
 3741 02f8 00000000 		.4byte	.LFB16
 3742 02fc 02000000 		.4byte	.LCFI38
 3743 0300 0100     		.2byte	0x1
 3744 0302 5D       		.byte	0x5d
 3745 0303 02000000 		.4byte	.LCFI38
 3746 0307 04000000 		.4byte	.LCFI39
 3747 030b 0200     		.2byte	0x2
 3748 030d 7D       		.byte	0x7d
 3749 030e 04       		.sleb128 4
 3750 030f 04000000 		.4byte	.LCFI39
 3751 0313 06000000 		.4byte	.LCFI40
 3752 0317 0200     		.2byte	0x2
 3753 0319 7D       		.byte	0x7d
 3754 031a 10       		.sleb128 16
 3755 031b 06000000 		.4byte	.LCFI40
 3756 031f 22000000 		.4byte	.LFE16
 3757 0323 0200     		.2byte	0x2
 3758 0325 77       		.byte	0x77
 3759 0326 10       		.sleb128 16
 3760 0327 00000000 		.4byte	0x0
 3761 032b 00000000 		.4byte	0x0
 3762              	.LLST17:
 3763 032f 00000000 		.4byte	.LFB17
 3764 0333 02000000 		.4byte	.LCFI41
 3765 0337 0100     		.2byte	0x1
 3766 0339 5D       		.byte	0x5d
ARM GAS  C:\Users\arh\AppData\Local\Temp\ccpMsX4j.s 			page 99


 3767 033a 02000000 		.4byte	.LCFI41
 3768 033e 04000000 		.4byte	.LCFI42
 3769 0342 0200     		.2byte	0x2
 3770 0344 7D       		.byte	0x7d
 3771 0345 04       		.sleb128 4
 3772 0346 04000000 		.4byte	.LCFI42
 3773 034a 06000000 		.4byte	.LCFI43
 3774 034e 0200     		.2byte	0x2
 3775 0350 7D       		.byte	0x7d
 3776 0351 10       		.sleb128 16
 3777 0352 06000000 		.4byte	.LCFI43
 3778 0356 3A000000 		.4byte	.LFE17
 3779 035a 0200     		.2byte	0x2
 3780 035c 77       		.byte	0x77
 3781 035d 10       		.sleb128 16
 3782 035e 00000000 		.4byte	0x0
 3783 0362 00000000 		.4byte	0x0
 3784              	.LLST18:
 3785 0366 00000000 		.4byte	.LFB18
 3786 036a 02000000 		.4byte	.LCFI44
 3787 036e 0100     		.2byte	0x1
 3788 0370 5D       		.byte	0x5d
 3789 0371 02000000 		.4byte	.LCFI44
 3790 0375 04000000 		.4byte	.LCFI45
 3791 0379 0200     		.2byte	0x2
 3792 037b 7D       		.byte	0x7d
 3793 037c 04       		.sleb128 4
 3794 037d 04000000 		.4byte	.LCFI45
 3795 0381 06000000 		.4byte	.LCFI46
 3796 0385 0200     		.2byte	0x2
 3797 0387 7D       		.byte	0x7d
 3798 0388 10       		.sleb128 16
 3799 0389 06000000 		.4byte	.LCFI46
 3800 038d 1E000000 		.4byte	.LFE18
 3801 0391 0200     		.2byte	0x2
 3802 0393 77       		.byte	0x77
 3803 0394 10       		.sleb128 16
 3804 0395 00000000 		.4byte	0x0
 3805 0399 00000000 		.4byte	0x0
 3806              	.LLST19:
 3807 039d 00000000 		.4byte	.LFB19
 3808 03a1 02000000 		.4byte	.LCFI47
 3809 03a5 0100     		.2byte	0x1
 3810 03a7 5D       		.byte	0x5d
 3811 03a8 02000000 		.4byte	.LCFI47
 3812 03ac 04000000 		.4byte	.LCFI48
 3813 03b0 0200     		.2byte	0x2
 3814 03b2 7D       		.byte	0x7d
 3815 03b3 04       		.sleb128 4
 3816 03b4 04000000 		.4byte	.LCFI48
 3817 03b8 06000000 		.4byte	.LCFI49
 3818 03bc 0200     		.2byte	0x2
 3819 03be 7D       		.byte	0x7d
 3820 03bf 10       		.sleb128 16
 3821 03c0 06000000 		.4byte	.LCFI49
 3822 03c4 1E000000 		.4byte	.LFE19
 3823 03c8 0200     		.2byte	0x2
ARM GAS  C:\Users\arh\AppData\Local\Temp\ccpMsX4j.s 			page 100


 3824 03ca 77       		.byte	0x77
 3825 03cb 10       		.sleb128 16
 3826 03cc 00000000 		.4byte	0x0
 3827 03d0 00000000 		.4byte	0x0
 3828              	.LLST20:
 3829 03d4 00000000 		.4byte	.LFB20
 3830 03d8 02000000 		.4byte	.LCFI50
 3831 03dc 0100     		.2byte	0x1
 3832 03de 5D       		.byte	0x5d
 3833 03df 02000000 		.4byte	.LCFI50
 3834 03e3 04000000 		.4byte	.LCFI51
 3835 03e7 0200     		.2byte	0x2
 3836 03e9 7D       		.byte	0x7d
 3837 03ea 04       		.sleb128 4
 3838 03eb 04000000 		.4byte	.LCFI51
 3839 03ef 06000000 		.4byte	.LCFI52
 3840 03f3 0200     		.2byte	0x2
 3841 03f5 7D       		.byte	0x7d
 3842 03f6 20       		.sleb128 32
 3843 03f7 06000000 		.4byte	.LCFI52
 3844 03fb C4000000 		.4byte	.LFE20
 3845 03ff 0200     		.2byte	0x2
 3846 0401 77       		.byte	0x77
 3847 0402 20       		.sleb128 32
 3848 0403 00000000 		.4byte	0x0
 3849 0407 00000000 		.4byte	0x0
 3850              	.LLST21:
 3851 040b 00000000 		.4byte	.LFB21
 3852 040f 02000000 		.4byte	.LCFI53
 3853 0413 0100     		.2byte	0x1
 3854 0415 5D       		.byte	0x5d
 3855 0416 02000000 		.4byte	.LCFI53
 3856 041a 04000000 		.4byte	.LCFI54
 3857 041e 0200     		.2byte	0x2
 3858 0420 7D       		.byte	0x7d
 3859 0421 0C       		.sleb128 12
 3860 0422 04000000 		.4byte	.LCFI54
 3861 0426 06000000 		.4byte	.LCFI55
 3862 042a 0200     		.2byte	0x2
 3863 042c 7D       		.byte	0x7d
 3864 042d 20       		.sleb128 32
 3865 042e 06000000 		.4byte	.LCFI55
 3866 0432 54000000 		.4byte	.LFE21
 3867 0436 0200     		.2byte	0x2
 3868 0438 77       		.byte	0x77
 3869 0439 20       		.sleb128 32
 3870 043a 00000000 		.4byte	0x0
 3871 043e 00000000 		.4byte	0x0
 3872              	.LLST22:
 3873 0442 00000000 		.4byte	.LFB22
 3874 0446 02000000 		.4byte	.LCFI56
 3875 044a 0100     		.2byte	0x1
 3876 044c 5D       		.byte	0x5d
 3877 044d 02000000 		.4byte	.LCFI56
 3878 0451 04000000 		.4byte	.LCFI57
 3879 0455 0200     		.2byte	0x2
 3880 0457 7D       		.byte	0x7d
ARM GAS  C:\Users\arh\AppData\Local\Temp\ccpMsX4j.s 			page 101


 3881 0458 04       		.sleb128 4
 3882 0459 04000000 		.4byte	.LCFI57
 3883 045d 06000000 		.4byte	.LCFI58
 3884 0461 0200     		.2byte	0x2
 3885 0463 7D       		.byte	0x7d
 3886 0464 20       		.sleb128 32
 3887 0465 06000000 		.4byte	.LCFI58
 3888 0469 F0000000 		.4byte	.LFE22
 3889 046d 0200     		.2byte	0x2
 3890 046f 77       		.byte	0x77
 3891 0470 20       		.sleb128 32
 3892 0471 00000000 		.4byte	0x0
 3893 0475 00000000 		.4byte	0x0
 3894              	.LLST23:
 3895 0479 00000000 		.4byte	.LFB23
 3896 047d 02000000 		.4byte	.LCFI59
 3897 0481 0100     		.2byte	0x1
 3898 0483 5D       		.byte	0x5d
 3899 0484 02000000 		.4byte	.LCFI59
 3900 0488 04000000 		.4byte	.LCFI60
 3901 048c 0200     		.2byte	0x2
 3902 048e 7D       		.byte	0x7d
 3903 048f 08       		.sleb128 8
 3904 0490 04000000 		.4byte	.LCFI60
 3905 0494 32000000 		.4byte	.LFE23
 3906 0498 0200     		.2byte	0x2
 3907 049a 77       		.byte	0x77
 3908 049b 08       		.sleb128 8
 3909 049c 00000000 		.4byte	0x0
 3910 04a0 00000000 		.4byte	0x0
 3911              	.LLST24:
 3912 04a4 00000000 		.4byte	.LFB24
 3913 04a8 02000000 		.4byte	.LCFI61
 3914 04ac 0100     		.2byte	0x1
 3915 04ae 5D       		.byte	0x5d
 3916 04af 02000000 		.4byte	.LCFI61
 3917 04b3 04000000 		.4byte	.LCFI62
 3918 04b7 0200     		.2byte	0x2
 3919 04b9 7D       		.byte	0x7d
 3920 04ba 08       		.sleb128 8
 3921 04bb 04000000 		.4byte	.LCFI62
 3922 04bf 06000000 		.4byte	.LCFI63
 3923 04c3 0200     		.2byte	0x2
 3924 04c5 7D       		.byte	0x7d
 3925 04c6 10       		.sleb128 16
 3926 04c7 06000000 		.4byte	.LCFI63
 3927 04cb 98080000 		.4byte	.LFE24
 3928 04cf 0200     		.2byte	0x2
 3929 04d1 77       		.byte	0x77
 3930 04d2 10       		.sleb128 16
 3931 04d3 00000000 		.4byte	0x0
 3932 04d7 00000000 		.4byte	0x0
 3933              	.LLST25:
 3934 04db 00000000 		.4byte	.LFB25
 3935 04df 02000000 		.4byte	.LCFI64
 3936 04e3 0100     		.2byte	0x1
 3937 04e5 5D       		.byte	0x5d
ARM GAS  C:\Users\arh\AppData\Local\Temp\ccpMsX4j.s 			page 102


 3938 04e6 02000000 		.4byte	.LCFI64
 3939 04ea 04000000 		.4byte	.LCFI65
 3940 04ee 0200     		.2byte	0x2
 3941 04f0 7D       		.byte	0x7d
 3942 04f1 04       		.sleb128 4
 3943 04f2 04000000 		.4byte	.LCFI65
 3944 04f6 06000000 		.4byte	.LCFI66
 3945 04fa 0200     		.2byte	0x2
 3946 04fc 7D       		.byte	0x7d
 3947 04fd 18       		.sleb128 24
 3948 04fe 06000000 		.4byte	.LCFI66
 3949 0502 54000000 		.4byte	.LFE25
 3950 0506 0200     		.2byte	0x2
 3951 0508 77       		.byte	0x77
 3952 0509 18       		.sleb128 24
 3953 050a 00000000 		.4byte	0x0
 3954 050e 00000000 		.4byte	0x0
 3955              	.LLST26:
 3956 0512 00000000 		.4byte	.LFB26
 3957 0516 02000000 		.4byte	.LCFI67
 3958 051a 0100     		.2byte	0x1
 3959 051c 5D       		.byte	0x5d
 3960 051d 02000000 		.4byte	.LCFI67
 3961 0521 04000000 		.4byte	.LCFI68
 3962 0525 0200     		.2byte	0x2
 3963 0527 7D       		.byte	0x7d
 3964 0528 08       		.sleb128 8
 3965 0529 04000000 		.4byte	.LCFI68
 3966 052d 06000000 		.4byte	.LCFI69
 3967 0531 0200     		.2byte	0x2
 3968 0533 7D       		.byte	0x7d
 3969 0534 20       		.sleb128 32
 3970 0535 06000000 		.4byte	.LCFI69
 3971 0539 FE010000 		.4byte	.LFE26
 3972 053d 0200     		.2byte	0x2
 3973 053f 77       		.byte	0x77
 3974 0540 20       		.sleb128 32
 3975 0541 00000000 		.4byte	0x0
 3976 0545 00000000 		.4byte	0x0
 3977              	.LLST27:
 3978 0549 00000000 		.4byte	.LFB27
 3979 054d 02000000 		.4byte	.LCFI70
 3980 0551 0100     		.2byte	0x1
 3981 0553 5D       		.byte	0x5d
 3982 0554 02000000 		.4byte	.LCFI70
 3983 0558 04000000 		.4byte	.LCFI71
 3984 055c 0200     		.2byte	0x2
 3985 055e 7D       		.byte	0x7d
 3986 055f 04       		.sleb128 4
 3987 0560 04000000 		.4byte	.LCFI71
 3988 0564 06000000 		.4byte	.LCFI72
 3989 0568 0200     		.2byte	0x2
 3990 056a 7D       		.byte	0x7d
 3991 056b 20       		.sleb128 32
 3992 056c 06000000 		.4byte	.LCFI72
 3993 0570 CA010000 		.4byte	.LFE27
 3994 0574 0200     		.2byte	0x2
ARM GAS  C:\Users\arh\AppData\Local\Temp\ccpMsX4j.s 			page 103


 3995 0576 77       		.byte	0x77
 3996 0577 20       		.sleb128 32
 3997 0578 00000000 		.4byte	0x0
 3998 057c 00000000 		.4byte	0x0
 3999              	.LLST28:
 4000 0580 00000000 		.4byte	.LFB28
 4001 0584 02000000 		.4byte	.LCFI73
 4002 0588 0100     		.2byte	0x1
 4003 058a 5D       		.byte	0x5d
 4004 058b 02000000 		.4byte	.LCFI73
 4005 058f 04000000 		.4byte	.LCFI74
 4006 0593 0200     		.2byte	0x2
 4007 0595 7D       		.byte	0x7d
 4008 0596 08       		.sleb128 8
 4009 0597 04000000 		.4byte	.LCFI74
 4010 059b 06000000 		.4byte	.LCFI75
 4011 059f 0200     		.2byte	0x2
 4012 05a1 7D       		.byte	0x7d
 4013 05a2 10       		.sleb128 16
 4014 05a3 06000000 		.4byte	.LCFI75
 4015 05a7 92000000 		.4byte	.LFE28
 4016 05ab 0200     		.2byte	0x2
 4017 05ad 77       		.byte	0x77
 4018 05ae 10       		.sleb128 16
 4019 05af 00000000 		.4byte	0x0
 4020 05b3 00000000 		.4byte	0x0
 4021              		.file 2 ".\\Generated_Source\\PSoC5\\/cytypes.h"
 4022              		.file 3 ".\\Generated_Source\\PSoC5\\/adc.h"
 4023              		.section	.debug_info
 4024 0000 0F080000 		.4byte	0x80f
 4025 0004 0200     		.2byte	0x2
 4026 0006 00000000 		.4byte	.Ldebug_abbrev0
 4027 000a 04       		.byte	0x4
 4028 000b 01       		.uleb128 0x1
 4029 000c 8E000000 		.4byte	.LASF102
 4030 0010 01       		.byte	0x1
 4031 0011 3F050000 		.4byte	.LASF103
 4032 0015 29010000 		.4byte	.LASF104
 4033 0019 00000000 		.4byte	0x0
 4034 001d 00000000 		.4byte	0x0
 4035 0021 00000000 		.4byte	.Ldebug_ranges0+0x0
 4036 0025 00000000 		.4byte	.Ldebug_line0
 4037 0029 02       		.uleb128 0x2
 4038 002a 01       		.byte	0x1
 4039 002b 06       		.byte	0x6
 4040 002c C0000000 		.4byte	.LASF0
 4041 0030 02       		.uleb128 0x2
 4042 0031 01       		.byte	0x1
 4043 0032 08       		.byte	0x8
 4044 0033 3F030000 		.4byte	.LASF1
 4045 0037 02       		.uleb128 0x2
 4046 0038 02       		.byte	0x2
 4047 0039 05       		.byte	0x5
 4048 003a 59030000 		.4byte	.LASF2
 4049 003e 02       		.uleb128 0x2
 4050 003f 02       		.byte	0x2
 4051 0040 07       		.byte	0x7
ARM GAS  C:\Users\arh\AppData\Local\Temp\ccpMsX4j.s 			page 104


 4052 0041 35020000 		.4byte	.LASF3
 4053 0045 02       		.uleb128 0x2
 4054 0046 04       		.byte	0x4
 4055 0047 05       		.byte	0x5
 4056 0048 03010000 		.4byte	.LASF4
 4057 004c 02       		.uleb128 0x2
 4058 004d 04       		.byte	0x4
 4059 004e 07       		.byte	0x7
 4060 004f 00020000 		.4byte	.LASF5
 4061 0053 02       		.uleb128 0x2
 4062 0054 08       		.byte	0x8
 4063 0055 05       		.byte	0x5
 4064 0056 B2000000 		.4byte	.LASF6
 4065 005a 02       		.uleb128 0x2
 4066 005b 08       		.byte	0x8
 4067 005c 07       		.byte	0x7
 4068 005d 77000000 		.4byte	.LASF7
 4069 0061 03       		.uleb128 0x3
 4070 0062 04       		.byte	0x4
 4071 0063 05       		.byte	0x5
 4072 0064 696E7400 		.ascii	"int\000"
 4073 0068 02       		.uleb128 0x2
 4074 0069 04       		.byte	0x4
 4075 006a 07       		.byte	0x7
 4076 006b D8010000 		.4byte	.LASF8
 4077 006f 02       		.uleb128 0x2
 4078 0070 01       		.byte	0x1
 4079 0071 08       		.byte	0x8
 4080 0072 15040000 		.4byte	.LASF9
 4081 0076 04       		.uleb128 0x4
 4082 0077 6A010000 		.4byte	.LASF10
 4083 007b 02       		.byte	0x2
 4084 007c 60       		.byte	0x60
 4085 007d 30000000 		.4byte	0x30
 4086 0081 04       		.uleb128 0x4
 4087 0082 14000000 		.4byte	.LASF11
 4088 0086 02       		.byte	0x2
 4089 0087 61       		.byte	0x61
 4090 0088 3E000000 		.4byte	0x3e
 4091 008c 04       		.uleb128 0x4
 4092 008d 8B010000 		.4byte	.LASF12
 4093 0091 02       		.byte	0x2
 4094 0092 62       		.byte	0x62
 4095 0093 4C000000 		.4byte	0x4c
 4096 0097 04       		.uleb128 0x4
 4097 0098 54020000 		.4byte	.LASF13
 4098 009c 02       		.byte	0x2
 4099 009d 64       		.byte	0x64
 4100 009e 29000000 		.4byte	0x29
 4101 00a2 04       		.uleb128 0x4
 4102 00a3 D3040000 		.4byte	.LASF14
 4103 00a7 02       		.byte	0x2
 4104 00a8 65       		.byte	0x65
 4105 00a9 37000000 		.4byte	0x37
 4106 00ad 04       		.uleb128 0x4
 4107 00ae E8000000 		.4byte	.LASF15
 4108 00b2 02       		.byte	0x2
ARM GAS  C:\Users\arh\AppData\Local\Temp\ccpMsX4j.s 			page 105


 4109 00b3 66       		.byte	0x66
 4110 00b4 45000000 		.4byte	0x45
 4111 00b8 05       		.uleb128 0x5
 4112 00b9 76000000 		.4byte	0x76
 4113 00bd 06       		.uleb128 0x6
 4114 00be 04       		.byte	0x4
 4115 00bf 07       		.byte	0x7
 4116 00c0 07       		.uleb128 0x7
 4117 00c1 C7020000 		.4byte	.LASF105
 4118 00c5 09       		.byte	0x9
 4119 00c6 03       		.byte	0x3
 4120 00c7 35       		.byte	0x35
 4121 00c8 4B010000 		.4byte	0x14b
 4122 00cc 08       		.uleb128 0x8
 4123 00cd 15010000 		.4byte	.LASF16
 4124 00d1 03       		.byte	0x3
 4125 00d2 36       		.byte	0x36
 4126 00d3 76000000 		.4byte	0x76
 4127 00d7 02       		.byte	0x2
 4128 00d8 23       		.byte	0x23
 4129 00d9 00       		.uleb128 0x0
 4130 00da 08       		.uleb128 0x8
 4131 00db 1F010000 		.4byte	.LASF17
 4132 00df 03       		.byte	0x3
 4133 00e0 37       		.byte	0x37
 4134 00e1 76000000 		.4byte	0x76
 4135 00e5 02       		.byte	0x2
 4136 00e6 23       		.byte	0x23
 4137 00e7 01       		.uleb128 0x1
 4138 00e8 08       		.uleb128 0x8
 4139 00e9 D9040000 		.4byte	.LASF18
 4140 00ed 03       		.byte	0x3
 4141 00ee 38       		.byte	0x38
 4142 00ef 76000000 		.4byte	0x76
 4143 00f3 02       		.byte	0x2
 4144 00f4 23       		.byte	0x23
 4145 00f5 02       		.uleb128 0x2
 4146 00f6 08       		.uleb128 0x8
 4147 00f7 60010000 		.4byte	.LASF19
 4148 00fb 03       		.byte	0x3
 4149 00fc 39       		.byte	0x39
 4150 00fd 76000000 		.4byte	0x76
 4151 0101 02       		.byte	0x2
 4152 0102 23       		.byte	0x23
 4153 0103 03       		.uleb128 0x3
 4154 0104 08       		.uleb128 0x8
 4155 0105 B6010000 		.4byte	.LASF20
 4156 0109 03       		.byte	0x3
 4157 010a 3A       		.byte	0x3a
 4158 010b 76000000 		.4byte	0x76
 4159 010f 02       		.byte	0x2
 4160 0110 23       		.byte	0x23
 4161 0111 04       		.uleb128 0x4
 4162 0112 08       		.uleb128 0x8
 4163 0113 D6000000 		.4byte	.LASF21
 4164 0117 03       		.byte	0x3
 4165 0118 3B       		.byte	0x3b
ARM GAS  C:\Users\arh\AppData\Local\Temp\ccpMsX4j.s 			page 106


 4166 0119 76000000 		.4byte	0x76
 4167 011d 02       		.byte	0x2
 4168 011e 23       		.byte	0x23
 4169 011f 05       		.uleb128 0x5
 4170 0120 08       		.uleb128 0x8
 4171 0121 DF000000 		.4byte	.LASF22
 4172 0125 03       		.byte	0x3
 4173 0126 3C       		.byte	0x3c
 4174 0127 76000000 		.4byte	0x76
 4175 012b 02       		.byte	0x2
 4176 012c 23       		.byte	0x23
 4177 012d 06       		.uleb128 0x6
 4178 012e 08       		.uleb128 0x8
 4179 012f 37050000 		.4byte	.LASF23
 4180 0133 03       		.byte	0x3
 4181 0134 3D       		.byte	0x3d
 4182 0135 76000000 		.4byte	0x76
 4183 0139 02       		.byte	0x2
 4184 013a 23       		.byte	0x23
 4185 013b 07       		.uleb128 0x7
 4186 013c 08       		.uleb128 0x8
 4187 013d F2030000 		.4byte	.LASF24
 4188 0141 03       		.byte	0x3
 4189 0142 40       		.byte	0x40
 4190 0143 76000000 		.4byte	0x76
 4191 0147 02       		.byte	0x2
 4192 0148 23       		.byte	0x23
 4193 0149 08       		.uleb128 0x8
 4194 014a 00       		.byte	0x0
 4195 014b 04       		.uleb128 0x4
 4196 014c F6040000 		.4byte	.LASF25
 4197 0150 03       		.byte	0x3
 4198 0151 41       		.byte	0x41
 4199 0152 C0000000 		.4byte	0xc0
 4200 0156 09       		.uleb128 0x9
 4201 0157 01       		.byte	0x1
 4202 0158 21030000 		.4byte	.LASF26
 4203 015c 01       		.byte	0x1
 4204 015d 5D       		.byte	0x5d
 4205 015e 01       		.byte	0x1
 4206 015f 00000000 		.4byte	.LFB0
 4207 0163 32000000 		.4byte	.LFE0
 4208 0167 00000000 		.4byte	.LLST0
 4209 016b 09       		.uleb128 0x9
 4210 016c 01       		.byte	0x1
 4211 016d 63030000 		.4byte	.LASF27
 4212 0171 01       		.byte	0x1
 4213 0172 81       		.byte	0x81
 4214 0173 01       		.byte	0x1
 4215 0174 00000000 		.4byte	.LFB1
 4216 0178 C2010000 		.4byte	.LFE1
 4217 017c 2B000000 		.4byte	.LLST1
 4218 0180 09       		.uleb128 0x9
 4219 0181 01       		.byte	0x1
 4220 0182 B5030000 		.4byte	.LASF28
 4221 0186 01       		.byte	0x1
 4222 0187 E0       		.byte	0xe0
ARM GAS  C:\Users\arh\AppData\Local\Temp\ccpMsX4j.s 			page 107


 4223 0188 01       		.byte	0x1
 4224 0189 00000000 		.4byte	.LFB2
 4225 018d AA000000 		.4byte	.LFE2
 4226 0191 56000000 		.4byte	.LLST2
 4227 0195 09       		.uleb128 0x9
 4228 0196 01       		.byte	0x1
 4229 0197 8C030000 		.4byte	.LASF29
 4230 019b 01       		.byte	0x1
 4231 019c FE       		.byte	0xfe
 4232 019d 01       		.byte	0x1
 4233 019e 00000000 		.4byte	.LFB3
 4234 01a2 BA000000 		.4byte	.LFE3
 4235 01a6 81000000 		.4byte	.LLST3
 4236 01aa 0A       		.uleb128 0xa
 4237 01ab 01       		.byte	0x1
 4238 01ac E1020000 		.4byte	.LASF30
 4239 01b0 01       		.byte	0x1
 4240 01b1 1C01     		.2byte	0x11c
 4241 01b3 01       		.byte	0x1
 4242 01b4 00000000 		.4byte	.LFB4
 4243 01b8 36010000 		.4byte	.LFE4
 4244 01bc AC000000 		.4byte	.LLST4
 4245 01c0 0A       		.uleb128 0xa
 4246 01c1 01       		.byte	0x1
 4247 01c2 81010000 		.4byte	.LASF31
 4248 01c6 01       		.byte	0x1
 4249 01c7 5001     		.2byte	0x150
 4250 01c9 01       		.byte	0x1
 4251 01ca 00000000 		.4byte	.LFB5
 4252 01ce 3A000000 		.4byte	.LFE5
 4253 01d2 D7000000 		.4byte	.LLST5
 4254 01d6 0A       		.uleb128 0xa
 4255 01d7 01       		.byte	0x1
 4256 01d8 0C010000 		.4byte	.LASF32
 4257 01dc 01       		.byte	0x1
 4258 01dd 6E01     		.2byte	0x16e
 4259 01df 01       		.byte	0x1
 4260 01e0 00000000 		.4byte	.LFB6
 4261 01e4 B0010000 		.4byte	.LFE6
 4262 01e8 02010000 		.4byte	.LLST6
 4263 01ec 0B       		.uleb128 0xb
 4264 01ed 01       		.byte	0x1
 4265 01ee 4D000000 		.4byte	.LASF33
 4266 01f2 01       		.byte	0x1
 4267 01f3 C201     		.2byte	0x1c2
 4268 01f5 01       		.byte	0x1
 4269 01f6 00000000 		.4byte	.LFB7
 4270 01fa 44000000 		.4byte	.LFE7
 4271 01fe 2D010000 		.4byte	.LLST7
 4272 0202 25020000 		.4byte	0x225
 4273 0206 0C       		.uleb128 0xc
 4274 0207 3A030000 		.4byte	.LASF35
 4275 020b 01       		.byte	0x1
 4276 020c C201     		.2byte	0x1c2
 4277 020e 76000000 		.4byte	0x76
 4278 0212 02       		.byte	0x2
 4279 0213 91       		.byte	0x91
ARM GAS  C:\Users\arh\AppData\Local\Temp\ccpMsX4j.s 			page 108


 4280 0214 6F       		.sleb128 -17
 4281 0215 0D       		.uleb128 0xd
 4282 0216 30050000 		.4byte	.LASF37
 4283 021a 01       		.byte	0x1
 4284 021b C401     		.2byte	0x1c4
 4285 021d 76000000 		.4byte	0x76
 4286 0221 02       		.byte	0x2
 4287 0222 91       		.byte	0x91
 4288 0223 77       		.sleb128 -9
 4289 0224 00       		.byte	0x0
 4290 0225 0B       		.uleb128 0xb
 4291 0226 01       		.byte	0x1
 4292 0227 85020000 		.4byte	.LASF34
 4293 022b 01       		.byte	0x1
 4294 022c E101     		.2byte	0x1e1
 4295 022e 01       		.byte	0x1
 4296 022f 00000000 		.4byte	.LFB8
 4297 0233 3C000000 		.4byte	.LFE8
 4298 0237 64010000 		.4byte	.LLST8
 4299 023b 5E020000 		.4byte	0x25e
 4300 023f 0C       		.uleb128 0xc
 4301 0240 11030000 		.4byte	.LASF36
 4302 0244 01       		.byte	0x1
 4303 0245 E101     		.2byte	0x1e1
 4304 0247 76000000 		.4byte	0x76
 4305 024b 02       		.byte	0x2
 4306 024c 91       		.byte	0x91
 4307 024d 6F       		.sleb128 -17
 4308 024e 0D       		.uleb128 0xd
 4309 024f 30050000 		.4byte	.LASF37
 4310 0253 01       		.byte	0x1
 4311 0254 E301     		.2byte	0x1e3
 4312 0256 76000000 		.4byte	0x76
 4313 025a 02       		.byte	0x2
 4314 025b 91       		.byte	0x91
 4315 025c 77       		.sleb128 -9
 4316 025d 00       		.byte	0x0
 4317 025e 0E       		.uleb128 0xe
 4318 025f 01       		.byte	0x1
 4319 0260 AA040000 		.4byte	.LASF42
 4320 0264 01       		.byte	0x1
 4321 0265 FF01     		.2byte	0x1ff
 4322 0267 01       		.byte	0x1
 4323 0268 76000000 		.4byte	0x76
 4324 026c 00000000 		.4byte	.LFB9
 4325 0270 E4000000 		.4byte	.LFE9
 4326 0274 9B010000 		.4byte	.LLST9
 4327 0278 B9020000 		.4byte	0x2b9
 4328 027c 0C       		.uleb128 0xc
 4329 027d C8040000 		.4byte	.LASF38
 4330 0281 01       		.byte	0x1
 4331 0282 FF01     		.2byte	0x1ff
 4332 0284 B9020000 		.4byte	0x2b9
 4333 0288 02       		.byte	0x2
 4334 0289 91       		.byte	0x91
 4335 028a 64       		.sleb128 -28
 4336 028b 0D       		.uleb128 0xd
ARM GAS  C:\Users\arh\AppData\Local\Temp\ccpMsX4j.s 			page 109


 4337 028c 30050000 		.4byte	.LASF37
 4338 0290 01       		.byte	0x1
 4339 0291 0102     		.2byte	0x201
 4340 0293 81000000 		.4byte	0x81
 4341 0297 02       		.byte	0x2
 4342 0298 91       		.byte	0x91
 4343 0299 68       		.sleb128 -24
 4344 029a 0D       		.uleb128 0xd
 4345 029b A3040000 		.4byte	.LASF39
 4346 029f 01       		.byte	0x1
 4347 02a0 0202     		.2byte	0x202
 4348 02a2 76000000 		.4byte	0x76
 4349 02a6 02       		.byte	0x2
 4350 02a7 91       		.byte	0x91
 4351 02a8 6B       		.sleb128 -21
 4352 02a9 0D       		.uleb128 0xd
 4353 02aa 59040000 		.4byte	.LASF40
 4354 02ae 01       		.byte	0x1
 4355 02af 0302     		.2byte	0x203
 4356 02b1 B9020000 		.4byte	0x2b9
 4357 02b5 02       		.byte	0x2
 4358 02b6 91       		.byte	0x91
 4359 02b7 6C       		.sleb128 -20
 4360 02b8 00       		.byte	0x0
 4361 02b9 02       		.uleb128 0x2
 4362 02ba 04       		.byte	0x4
 4363 02bb 04       		.byte	0x4
 4364 02bc 1B030000 		.4byte	.LASF41
 4365 02c0 0E       		.uleb128 0xe
 4366 02c1 01       		.byte	0x1
 4367 02c2 40000000 		.4byte	.LASF43
 4368 02c6 01       		.byte	0x1
 4369 02c7 2C02     		.2byte	0x22c
 4370 02c9 01       		.byte	0x1
 4371 02ca 81000000 		.4byte	0x81
 4372 02ce 00000000 		.4byte	.LFB10
 4373 02d2 BA000000 		.4byte	.LFE10
 4374 02d6 D2010000 		.4byte	.LLST10
 4375 02da 0C030000 		.4byte	0x30c
 4376 02de 0D       		.uleb128 0xd
 4377 02df 1A040000 		.4byte	.LASF44
 4378 02e3 01       		.byte	0x1
 4379 02e4 2E02     		.2byte	0x22e
 4380 02e6 76000000 		.4byte	0x76
 4381 02ea 02       		.byte	0x2
 4382 02eb 91       		.byte	0x91
 4383 02ec 73       		.sleb128 -13
 4384 02ed 0D       		.uleb128 0xd
 4385 02ee 67020000 		.4byte	.LASF45
 4386 02f2 01       		.byte	0x1
 4387 02f3 2F02     		.2byte	0x22f
 4388 02f5 81000000 		.4byte	0x81
 4389 02f9 02       		.byte	0x2
 4390 02fa 91       		.byte	0x91
 4391 02fb 74       		.sleb128 -12
 4392 02fc 0D       		.uleb128 0xd
 4393 02fd 28020000 		.4byte	.LASF46
ARM GAS  C:\Users\arh\AppData\Local\Temp\ccpMsX4j.s 			page 110


 4394 0301 01       		.byte	0x1
 4395 0302 2F02     		.2byte	0x22f
 4396 0304 81000000 		.4byte	0x81
 4397 0308 02       		.byte	0x2
 4398 0309 91       		.byte	0x91
 4399 030a 76       		.sleb128 -10
 4400 030b 00       		.byte	0x0
 4401 030c 0B       		.uleb128 0xb
 4402 030d 01       		.byte	0x1
 4403 030e 1B000000 		.4byte	.LASF47
 4404 0312 01       		.byte	0x1
 4405 0313 6602     		.2byte	0x266
 4406 0315 01       		.byte	0x1
 4407 0316 00000000 		.4byte	.LFB11
 4408 031a 44000000 		.4byte	.LFE11
 4409 031e 09020000 		.4byte	.LLST11
 4410 0322 45030000 		.4byte	0x345
 4411 0326 0C       		.uleb128 0xc
 4412 0327 E3040000 		.4byte	.LASF48
 4413 032b 01       		.byte	0x1
 4414 032c 6602     		.2byte	0x266
 4415 032e 76000000 		.4byte	0x76
 4416 0332 02       		.byte	0x2
 4417 0333 91       		.byte	0x91
 4418 0334 77       		.sleb128 -9
 4419 0335 0C       		.uleb128 0xc
 4420 0336 48040000 		.4byte	.LASF49
 4421 033a 01       		.byte	0x1
 4422 033b 6602     		.2byte	0x266
 4423 033d 76000000 		.4byte	0x76
 4424 0341 02       		.byte	0x2
 4425 0342 91       		.byte	0x91
 4426 0343 76       		.sleb128 -10
 4427 0344 00       		.byte	0x0
 4428 0345 0A       		.uleb128 0xa
 4429 0346 01       		.byte	0x1
 4430 0347 92040000 		.4byte	.LASF50
 4431 034b 01       		.byte	0x1
 4432 034c 8202     		.2byte	0x282
 4433 034e 01       		.byte	0x1
 4434 034f 00000000 		.4byte	.LFB12
 4435 0353 26000000 		.4byte	.LFE12
 4436 0357 40020000 		.4byte	.LLST12
 4437 035b 0A       		.uleb128 0xa
 4438 035c 01       		.byte	0x1
 4439 035d 28040000 		.4byte	.LASF51
 4440 0361 01       		.byte	0x1
 4441 0362 9B02     		.2byte	0x29b
 4442 0364 01       		.byte	0x1
 4443 0365 00000000 		.4byte	.LFB13
 4444 0369 32000000 		.4byte	.LFE13
 4445 036d 6B020000 		.4byte	.LLST13
 4446 0371 0E       		.uleb128 0xe
 4447 0372 01       		.byte	0x1
 4448 0373 EC010000 		.4byte	.LASF52
 4449 0377 01       		.byte	0x1
 4450 0378 BA02     		.2byte	0x2ba
ARM GAS  C:\Users\arh\AppData\Local\Temp\ccpMsX4j.s 			page 111


 4451 037a 01       		.byte	0x1
 4452 037b 76000000 		.4byte	0x76
 4453 037f 00000000 		.4byte	.LFB14
 4454 0383 60000000 		.4byte	.LFE14
 4455 0387 96020000 		.4byte	.LLST14
 4456 038b AE030000 		.4byte	0x3ae
 4457 038f 0C       		.uleb128 0xc
 4458 0390 22020000 		.4byte	.LASF53
 4459 0394 01       		.byte	0x1
 4460 0395 BA02     		.2byte	0x2ba
 4461 0397 76000000 		.4byte	0x76
 4462 039b 02       		.byte	0x2
 4463 039c 91       		.byte	0x91
 4464 039d 6F       		.sleb128 -17
 4465 039e 0D       		.uleb128 0xd
 4466 039f A3040000 		.4byte	.LASF39
 4467 03a3 01       		.byte	0x1
 4468 03a4 BC02     		.2byte	0x2bc
 4469 03a6 76000000 		.4byte	0x76
 4470 03aa 02       		.byte	0x2
 4471 03ab 91       		.byte	0x91
 4472 03ac 77       		.sleb128 -9
 4473 03ad 00       		.byte	0x0
 4474 03ae 0F       		.uleb128 0xf
 4475 03af 01       		.byte	0x1
 4476 03b0 21050000 		.4byte	.LASF106
 4477 03b4 01       		.byte	0x1
 4478 03b5 E002     		.2byte	0x2e0
 4479 03b7 01       		.byte	0x1
 4480 03b8 97000000 		.4byte	0x97
 4481 03bc 00000000 		.4byte	.LFB15
 4482 03c0 1A000000 		.4byte	.LFE15
 4483 03c4 CD020000 		.4byte	.LLST15
 4484 03c8 0E       		.uleb128 0xe
 4485 03c9 01       		.byte	0x1
 4486 03ca 12020000 		.4byte	.LASF54
 4487 03ce 01       		.byte	0x1
 4488 03cf F402     		.2byte	0x2f4
 4489 03d1 01       		.byte	0x1
 4490 03d2 A2000000 		.4byte	0xa2
 4491 03d6 00000000 		.4byte	.LFB16
 4492 03da 22000000 		.4byte	.LFE16
 4493 03de F8020000 		.4byte	.LLST16
 4494 03e2 F6030000 		.4byte	0x3f6
 4495 03e6 0D       		.uleb128 0xd
 4496 03e7 5E050000 		.4byte	.LASF55
 4497 03eb 01       		.byte	0x1
 4498 03ec F602     		.2byte	0x2f6
 4499 03ee 81000000 		.4byte	0x81
 4500 03f2 02       		.byte	0x2
 4501 03f3 91       		.byte	0x91
 4502 03f4 76       		.sleb128 -10
 4503 03f5 00       		.byte	0x0
 4504 03f6 0E       		.uleb128 0xe
 4505 03f7 01       		.byte	0x1
 4506 03f8 2A030000 		.4byte	.LASF56
 4507 03fc 01       		.byte	0x1
ARM GAS  C:\Users\arh\AppData\Local\Temp\ccpMsX4j.s 			page 112


 4508 03fd 1103     		.2byte	0x311
 4509 03ff 01       		.byte	0x1
 4510 0400 AD000000 		.4byte	0xad
 4511 0404 00000000 		.4byte	.LFB17
 4512 0408 3A000000 		.4byte	.LFE17
 4513 040c 2F030000 		.4byte	.LLST17
 4514 0410 24040000 		.4byte	0x424
 4515 0414 0D       		.uleb128 0xd
 4516 0415 5E050000 		.4byte	.LASF55
 4517 0419 01       		.byte	0x1
 4518 041a 1303     		.2byte	0x313
 4519 041c 8C000000 		.4byte	0x8c
 4520 0420 02       		.byte	0x2
 4521 0421 91       		.byte	0x91
 4522 0422 74       		.sleb128 -12
 4523 0423 00       		.byte	0x0
 4524 0424 0B       		.uleb128 0xb
 4525 0425 01       		.byte	0x1
 4526 0426 59020000 		.4byte	.LASF57
 4527 042a 01       		.byte	0x1
 4528 042b 3803     		.2byte	0x338
 4529 042d 01       		.byte	0x1
 4530 042e 00000000 		.4byte	.LFB18
 4531 0432 1E000000 		.4byte	.LFE18
 4532 0436 66030000 		.4byte	.LLST18
 4533 043a 4E040000 		.4byte	0x44e
 4534 043e 0C       		.uleb128 0xc
 4535 043f 6F040000 		.4byte	.LASF58
 4536 0443 01       		.byte	0x1
 4537 0444 3803     		.2byte	0x338
 4538 0446 AD000000 		.4byte	0xad
 4539 044a 02       		.byte	0x2
 4540 044b 91       		.byte	0x91
 4541 044c 74       		.sleb128 -12
 4542 044d 00       		.byte	0x0
 4543 044e 0B       		.uleb128 0xb
 4544 044f 01       		.byte	0x1
 4545 0450 EA040000 		.4byte	.LASF59
 4546 0454 01       		.byte	0x1
 4547 0455 5103     		.2byte	0x351
 4548 0457 01       		.byte	0x1
 4549 0458 00000000 		.4byte	.LFB19
 4550 045c 1E000000 		.4byte	.LFE19
 4551 0460 9D030000 		.4byte	.LLST19
 4552 0464 78040000 		.4byte	0x478
 4553 0468 0C       		.uleb128 0xc
 4554 0469 2D000000 		.4byte	.LASF60
 4555 046d 01       		.byte	0x1
 4556 046e 5103     		.2byte	0x351
 4557 0470 AD000000 		.4byte	0xad
 4558 0474 02       		.byte	0x2
 4559 0475 91       		.byte	0x91
 4560 0476 74       		.sleb128 -12
 4561 0477 00       		.byte	0x0
 4562 0478 0E       		.uleb128 0xe
 4563 0479 01       		.byte	0x1
 4564 047a 92010000 		.4byte	.LASF61
ARM GAS  C:\Users\arh\AppData\Local\Temp\ccpMsX4j.s 			page 113


 4565 047e 01       		.byte	0x1
 4566 047f 6B03     		.2byte	0x36b
 4567 0481 01       		.byte	0x1
 4568 0482 A2000000 		.4byte	0xa2
 4569 0486 00000000 		.4byte	.LFB20
 4570 048a C4000000 		.4byte	.LFE20
 4571 048e D4030000 		.4byte	.LLST20
 4572 0492 DE040000 		.4byte	0x4de
 4573 0496 0C       		.uleb128 0xc
 4574 0497 76040000 		.4byte	.LASF62
 4575 049b 01       		.byte	0x1
 4576 049c 6B03     		.2byte	0x36b
 4577 049e AD000000 		.4byte	0xad
 4578 04a2 02       		.byte	0x2
 4579 04a3 91       		.byte	0x91
 4580 04a4 64       		.sleb128 -28
 4581 04a5 0D       		.uleb128 0xd
 4582 04a6 A5020000 		.4byte	.LASF63
 4583 04aa 01       		.byte	0x1
 4584 04ab 6E03     		.2byte	0x36e
 4585 04ad AD000000 		.4byte	0xad
 4586 04b1 02       		.byte	0x2
 4587 04b2 91       		.byte	0x91
 4588 04b3 68       		.sleb128 -24
 4589 04b4 10       		.uleb128 0x10
 4590 04b5 4100     		.ascii	"A\000"
 4591 04b7 01       		.byte	0x1
 4592 04b8 6F03     		.2byte	0x36f
 4593 04ba AD000000 		.4byte	0xad
 4594 04be 02       		.byte	0x2
 4595 04bf 91       		.byte	0x91
 4596 04c0 6C       		.sleb128 -20
 4597 04c1 10       		.uleb128 0x10
 4598 04c2 4200     		.ascii	"B\000"
 4599 04c4 01       		.byte	0x1
 4600 04c5 6F03     		.2byte	0x36f
 4601 04c7 AD000000 		.4byte	0xad
 4602 04cb 02       		.byte	0x2
 4603 04cc 91       		.byte	0x91
 4604 04cd 70       		.sleb128 -16
 4605 04ce 0D       		.uleb128 0xd
 4606 04cf CF030000 		.4byte	.LASF64
 4607 04d3 01       		.byte	0x1
 4608 04d4 7003     		.2byte	0x370
 4609 04d6 76000000 		.4byte	0x76
 4610 04da 02       		.byte	0x2
 4611 04db 91       		.byte	0x91
 4612 04dc 77       		.sleb128 -9
 4613 04dd 00       		.byte	0x0
 4614 04de 0E       		.uleb128 0xe
 4615 04df 01       		.byte	0x1
 4616 04e0 C5010000 		.4byte	.LASF65
 4617 04e4 01       		.byte	0x1
 4618 04e5 AB03     		.2byte	0x3ab
 4619 04e7 01       		.byte	0x1
 4620 04e8 B9020000 		.4byte	0x2b9
 4621 04ec 00000000 		.4byte	.LFB21
ARM GAS  C:\Users\arh\AppData\Local\Temp\ccpMsX4j.s 			page 114


 4622 04f0 54000000 		.4byte	.LFE21
 4623 04f4 0B040000 		.4byte	.LLST21
 4624 04f8 1B050000 		.4byte	0x51b
 4625 04fc 0C       		.uleb128 0xc
 4626 04fd 76040000 		.4byte	.LASF62
 4627 0501 01       		.byte	0x1
 4628 0502 AB03     		.2byte	0x3ab
 4629 0504 AD000000 		.4byte	0xad
 4630 0508 02       		.byte	0x2
 4631 0509 91       		.byte	0x91
 4632 050a 64       		.sleb128 -28
 4633 050b 0D       		.uleb128 0xd
 4634 050c 70010000 		.4byte	.LASF66
 4635 0510 01       		.byte	0x1
 4636 0511 AE03     		.2byte	0x3ae
 4637 0513 B9020000 		.4byte	0x2b9
 4638 0517 02       		.byte	0x2
 4639 0518 91       		.byte	0x91
 4640 0519 6C       		.sleb128 -20
 4641 051a 00       		.byte	0x0
 4642 051b 0E       		.uleb128 0xe
 4643 051c 01       		.byte	0x1
 4644 051d 00000000 		.4byte	.LASF67
 4645 0521 01       		.byte	0x1
 4646 0522 D903     		.2byte	0x3d9
 4647 0524 01       		.byte	0x1
 4648 0525 AD000000 		.4byte	0xad
 4649 0529 00000000 		.4byte	.LFB22
 4650 052d F0000000 		.4byte	.LFE22
 4651 0531 42040000 		.4byte	.LLST22
 4652 0535 81050000 		.4byte	0x581
 4653 0539 0C       		.uleb128 0xc
 4654 053a 76040000 		.4byte	.LASF62
 4655 053e 01       		.byte	0x1
 4656 053f D903     		.2byte	0x3d9
 4657 0541 AD000000 		.4byte	0xad
 4658 0545 02       		.byte	0x2
 4659 0546 91       		.byte	0x91
 4660 0547 64       		.sleb128 -28
 4661 0548 0D       		.uleb128 0xd
 4662 0549 E5010000 		.4byte	.LASF68
 4663 054d 01       		.byte	0x1
 4664 054e DC03     		.2byte	0x3dc
 4665 0550 AD000000 		.4byte	0xad
 4666 0554 02       		.byte	0x2
 4667 0555 91       		.byte	0x91
 4668 0556 68       		.sleb128 -24
 4669 0557 10       		.uleb128 0x10
 4670 0558 4100     		.ascii	"A\000"
 4671 055a 01       		.byte	0x1
 4672 055b DD03     		.2byte	0x3dd
 4673 055d AD000000 		.4byte	0xad
 4674 0561 02       		.byte	0x2
 4675 0562 91       		.byte	0x91
 4676 0563 6C       		.sleb128 -20
 4677 0564 10       		.uleb128 0x10
 4678 0565 4200     		.ascii	"B\000"
ARM GAS  C:\Users\arh\AppData\Local\Temp\ccpMsX4j.s 			page 115


 4679 0567 01       		.byte	0x1
 4680 0568 DD03     		.2byte	0x3dd
 4681 056a AD000000 		.4byte	0xad
 4682 056e 02       		.byte	0x2
 4683 056f 91       		.byte	0x91
 4684 0570 70       		.sleb128 -16
 4685 0571 0D       		.uleb128 0xd
 4686 0572 CF030000 		.4byte	.LASF64
 4687 0576 01       		.byte	0x1
 4688 0577 DE03     		.2byte	0x3de
 4689 0579 76000000 		.4byte	0x76
 4690 057d 02       		.byte	0x2
 4691 057e 91       		.byte	0x91
 4692 057f 77       		.sleb128 -9
 4693 0580 00       		.byte	0x0
 4694 0581 0A       		.uleb128 0xa
 4695 0582 01       		.byte	0x1
 4696 0583 69000000 		.4byte	.LASF69
 4697 0587 01       		.byte	0x1
 4698 0588 2004     		.2byte	0x420
 4699 058a 01       		.byte	0x1
 4700 058b 00000000 		.4byte	.LFB23
 4701 058f 32000000 		.4byte	.LFE23
 4702 0593 79040000 		.4byte	.LLST23
 4703 0597 0B       		.uleb128 0xb
 4704 0598 01       		.byte	0x1
 4705 0599 12050000 		.4byte	.LASF70
 4706 059d 01       		.byte	0x1
 4707 059e 4204     		.2byte	0x442
 4708 05a0 01       		.byte	0x1
 4709 05a1 00000000 		.4byte	.LFB24
 4710 05a5 98080000 		.4byte	.LFE24
 4711 05a9 A4040000 		.4byte	.LLST24
 4712 05ad C1050000 		.4byte	0x5c1
 4713 05b1 0C       		.uleb128 0xc
 4714 05b2 21040000 		.4byte	.LASF71
 4715 05b6 01       		.byte	0x1
 4716 05b7 4204     		.2byte	0x442
 4717 05b9 76000000 		.4byte	0x76
 4718 05bd 02       		.byte	0x2
 4719 05be 91       		.byte	0x91
 4720 05bf 77       		.sleb128 -9
 4721 05c0 00       		.byte	0x0
 4722 05c1 0E       		.uleb128 0xe
 4723 05c2 01       		.byte	0x1
 4724 05c3 7D030000 		.4byte	.LASF72
 4725 05c7 01       		.byte	0x1
 4726 05c8 8A05     		.2byte	0x58a
 4727 05ca 01       		.byte	0x1
 4728 05cb 81000000 		.4byte	0x81
 4729 05cf 00000000 		.4byte	.LFB25
 4730 05d3 54000000 		.4byte	.LFE25
 4731 05d7 DB040000 		.4byte	.LLST25
 4732 05db 1C060000 		.4byte	0x61c
 4733 05df 0C       		.uleb128 0xc
 4734 05e0 A5000000 		.4byte	.LASF73
 4735 05e4 01       		.byte	0x1
ARM GAS  C:\Users\arh\AppData\Local\Temp\ccpMsX4j.s 			page 116


 4736 05e5 8A05     		.2byte	0x58a
 4737 05e7 8C000000 		.4byte	0x8c
 4738 05eb 02       		.byte	0x2
 4739 05ec 91       		.byte	0x91
 4740 05ed 6C       		.sleb128 -20
 4741 05ee 0C       		.uleb128 0xc
 4742 05ef 5F000000 		.4byte	.LASF74
 4743 05f3 01       		.byte	0x1
 4744 05f4 8A05     		.2byte	0x58a
 4745 05f6 8C000000 		.4byte	0x8c
 4746 05fa 02       		.byte	0x2
 4747 05fb 91       		.byte	0x91
 4748 05fc 68       		.sleb128 -24
 4749 05fd 0D       		.uleb128 0xd
 4750 05fe A3030000 		.4byte	.LASF75
 4751 0602 01       		.byte	0x1
 4752 0603 8D05     		.2byte	0x58d
 4753 0605 81000000 		.4byte	0x81
 4754 0609 02       		.byte	0x2
 4755 060a 91       		.byte	0x91
 4756 060b 74       		.sleb128 -12
 4757 060c 0D       		.uleb128 0xd
 4758 060d AC030000 		.4byte	.LASF76
 4759 0611 01       		.byte	0x1
 4760 0612 8D05     		.2byte	0x58d
 4761 0614 81000000 		.4byte	0x81
 4762 0618 02       		.byte	0x2
 4763 0619 91       		.byte	0x91
 4764 061a 76       		.sleb128 -10
 4765 061b 00       		.byte	0x0
 4766 061c 0B       		.uleb128 0xb
 4767 061d 01       		.byte	0x1
 4768 061e DA030000 		.4byte	.LASF77
 4769 0622 01       		.byte	0x1
 4770 0623 AB05     		.2byte	0x5ab
 4771 0625 01       		.byte	0x1
 4772 0626 00000000 		.4byte	.LFB26
 4773 062a FE010000 		.4byte	.LFE26
 4774 062e 12050000 		.4byte	.LLST26
 4775 0632 AF060000 		.4byte	0x6af
 4776 0636 0C       		.uleb128 0xc
 4777 0637 21040000 		.4byte	.LASF71
 4778 063b 01       		.byte	0x1
 4779 063c AB05     		.2byte	0x5ab
 4780 063e 76000000 		.4byte	0x76
 4781 0642 02       		.byte	0x2
 4782 0643 91       		.byte	0x91
 4783 0644 67       		.sleb128 -25
 4784 0645 0C       		.uleb128 0xc
 4785 0646 51040000 		.4byte	.LASF78
 4786 064a 01       		.byte	0x1
 4787 064b AB05     		.2byte	0x5ab
 4788 064d 76000000 		.4byte	0x76
 4789 0651 02       		.byte	0x2
 4790 0652 91       		.byte	0x91
 4791 0653 66       		.sleb128 -26
 4792 0654 0D       		.uleb128 0xd
ARM GAS  C:\Users\arh\AppData\Local\Temp\ccpMsX4j.s 			page 117


 4793 0655 35000000 		.4byte	.LASF79
 4794 0659 01       		.byte	0x1
 4795 065a AE05     		.2byte	0x5ae
 4796 065c 76000000 		.4byte	0x76
 4797 0660 02       		.byte	0x2
 4798 0661 91       		.byte	0x91
 4799 0662 6E       		.sleb128 -18
 4800 0663 0D       		.uleb128 0xd
 4801 0664 CF030000 		.4byte	.LASF64
 4802 0668 01       		.byte	0x1
 4803 0669 AE05     		.2byte	0x5ae
 4804 066b 76000000 		.4byte	0x76
 4805 066f 02       		.byte	0x2
 4806 0670 91       		.byte	0x91
 4807 0671 6F       		.sleb128 -17
 4808 0672 0D       		.uleb128 0xd
 4809 0673 B2020000 		.4byte	.LASF80
 4810 0677 01       		.byte	0x1
 4811 0678 AF05     		.2byte	0x5af
 4812 067a 81000000 		.4byte	0x81
 4813 067e 02       		.byte	0x2
 4814 067f 91       		.byte	0x91
 4815 0680 70       		.sleb128 -16
 4816 0681 0D       		.uleb128 0xd
 4817 0682 38040000 		.4byte	.LASF81
 4818 0686 01       		.byte	0x1
 4819 0687 AF05     		.2byte	0x5af
 4820 0689 81000000 		.4byte	0x81
 4821 068d 02       		.byte	0x2
 4822 068e 91       		.byte	0x91
 4823 068f 72       		.sleb128 -14
 4824 0690 0D       		.uleb128 0xd
 4825 0691 96020000 		.4byte	.LASF82
 4826 0695 01       		.byte	0x1
 4827 0696 B005     		.2byte	0x5b0
 4828 0698 81000000 		.4byte	0x81
 4829 069c 02       		.byte	0x2
 4830 069d 91       		.byte	0x91
 4831 069e 74       		.sleb128 -12
 4832 069f 0D       		.uleb128 0xd
 4833 06a0 62040000 		.4byte	.LASF83
 4834 06a4 01       		.byte	0x1
 4835 06a5 B105     		.2byte	0x5b1
 4836 06a7 81000000 		.4byte	0x81
 4837 06ab 02       		.byte	0x2
 4838 06ac 91       		.byte	0x91
 4839 06ad 76       		.sleb128 -10
 4840 06ae 00       		.byte	0x0
 4841 06af 0B       		.uleb128 0xb
 4842 06b0 01       		.byte	0x1
 4843 06b1 EE000000 		.4byte	.LASF84
 4844 06b5 01       		.byte	0x1
 4845 06b6 8506     		.2byte	0x685
 4846 06b8 01       		.byte	0x1
 4847 06b9 00000000 		.4byte	.LFB27
 4848 06bd CA010000 		.4byte	.LFE27
 4849 06c1 49050000 		.4byte	.LLST27
ARM GAS  C:\Users\arh\AppData\Local\Temp\ccpMsX4j.s 			page 118


 4850 06c5 42070000 		.4byte	0x742
 4851 06c9 0C       		.uleb128 0xc
 4852 06ca 35000000 		.4byte	.LASF79
 4853 06ce 01       		.byte	0x1
 4854 06cf 8506     		.2byte	0x685
 4855 06d1 76000000 		.4byte	0x76
 4856 06d5 02       		.byte	0x2
 4857 06d6 91       		.byte	0x91
 4858 06d7 67       		.sleb128 -25
 4859 06d8 0C       		.uleb128 0xc
 4860 06d9 08040000 		.4byte	.LASF85
 4861 06dd 01       		.byte	0x1
 4862 06de 8506     		.2byte	0x685
 4863 06e0 81000000 		.4byte	0x81
 4864 06e4 02       		.byte	0x2
 4865 06e5 91       		.byte	0x91
 4866 06e6 64       		.sleb128 -28
 4867 06e7 0C       		.uleb128 0xc
 4868 06e8 A6010000 		.4byte	.LASF86
 4869 06ec 01       		.byte	0x1
 4870 06ed 8506     		.2byte	0x685
 4871 06ef 81000000 		.4byte	0x81
 4872 06f3 02       		.byte	0x2
 4873 06f4 91       		.byte	0x91
 4874 06f5 62       		.sleb128 -30
 4875 06f6 0C       		.uleb128 0xc
 4876 06f7 CF030000 		.4byte	.LASF64
 4877 06fb 01       		.byte	0x1
 4878 06fc 8606     		.2byte	0x686
 4879 06fe 76000000 		.4byte	0x76
 4880 0702 02       		.byte	0x2
 4881 0703 91       		.byte	0x91
 4882 0704 61       		.sleb128 -31
 4883 0705 0D       		.uleb128 0xd
 4884 0706 AC020000 		.4byte	.LASF87
 4885 070a 01       		.byte	0x1
 4886 070b 8806     		.2byte	0x688
 4887 070d 97000000 		.4byte	0x97
 4888 0711 02       		.byte	0x2
 4889 0712 91       		.byte	0x91
 4890 0713 6F       		.sleb128 -17
 4891 0714 0D       		.uleb128 0xd
 4892 0715 9A000000 		.4byte	.LASF88
 4893 0719 01       		.byte	0x1
 4894 071a 8906     		.2byte	0x689
 4895 071c A2000000 		.4byte	0xa2
 4896 0720 02       		.byte	0x2
 4897 0721 91       		.byte	0x91
 4898 0722 70       		.sleb128 -16
 4899 0723 0D       		.uleb128 0xd
 4900 0724 CC000000 		.4byte	.LASF89
 4901 0728 01       		.byte	0x1
 4902 0729 8A06     		.2byte	0x68a
 4903 072b 81000000 		.4byte	0x81
 4904 072f 02       		.byte	0x2
 4905 0730 91       		.byte	0x91
 4906 0731 72       		.sleb128 -14
ARM GAS  C:\Users\arh\AppData\Local\Temp\ccpMsX4j.s 			page 119


 4907 0732 0D       		.uleb128 0xd
 4908 0733 00040000 		.4byte	.LASF90
 4909 0737 01       		.byte	0x1
 4910 0738 8B06     		.2byte	0x68b
 4911 073a 8C000000 		.4byte	0x8c
 4912 073e 02       		.byte	0x2
 4913 073f 91       		.byte	0x91
 4914 0740 74       		.sleb128 -12
 4915 0741 00       		.byte	0x0
 4916 0742 0B       		.uleb128 0xb
 4917 0743 01       		.byte	0x1
 4918 0744 B6040000 		.4byte	.LASF91
 4919 0748 01       		.byte	0x1
 4920 0749 0107     		.2byte	0x701
 4921 074b 01       		.byte	0x1
 4922 074c 00000000 		.4byte	.LFB28
 4923 0750 92000000 		.4byte	.LFE28
 4924 0754 80050000 		.4byte	.LLST28
 4925 0758 6C070000 		.4byte	0x76c
 4926 075c 0C       		.uleb128 0xc
 4927 075d BF010000 		.4byte	.LASF92
 4928 0761 01       		.byte	0x1
 4929 0762 0107     		.2byte	0x701
 4930 0764 76000000 		.4byte	0x76
 4931 0768 02       		.byte	0x2
 4932 0769 91       		.byte	0x91
 4933 076a 77       		.sleb128 -9
 4934 076b 00       		.byte	0x0
 4935 076c 11       		.uleb128 0x11
 4936 076d 71020000 		.4byte	.LASF93
 4937 0771 01       		.byte	0x1
 4938 0772 3B       		.byte	0x3b
 4939 0773 4B010000 		.4byte	0x14b
 4940 0777 05       		.byte	0x5
 4941 0778 03       		.byte	0x3
 4942 0779 08000000 		.4byte	adc_powerModeBackup
 4943 077d 12       		.uleb128 0x12
 4944 077e 04030000 		.4byte	.LASF94
 4945 0782 01       		.byte	0x1
 4946 0783 1F       		.byte	0x1f
 4947 0784 B8000000 		.4byte	0xb8
 4948 0788 01       		.byte	0x1
 4949 0789 05       		.byte	0x5
 4950 078a 03       		.byte	0x3
 4951 078b 00000000 		.4byte	adc_convDone
 4952 078f 12       		.uleb128 0x12
 4953 0790 F1020000 		.4byte	.LASF95
 4954 0794 01       		.byte	0x1
 4955 0795 23       		.byte	0x23
 4956 0796 B8000000 		.4byte	0xb8
 4957 079a 01       		.byte	0x1
 4958 079b 05       		.byte	0x5
 4959 079c 03       		.byte	0x3
 4960 079d 00000000 		.4byte	adc_stopConversion
 4961 07a1 12       		.uleb128 0x12
 4962 07a2 4D030000 		.4byte	.LASF96
 4963 07a6 01       		.byte	0x1
ARM GAS  C:\Users\arh\AppData\Local\Temp\ccpMsX4j.s 			page 120


 4964 07a7 26       		.byte	0x26
 4965 07a8 76000000 		.4byte	0x76
 4966 07ac 01       		.byte	0x1
 4967 07ad 05       		.byte	0x5
 4968 07ae 03       		.byte	0x3
 4969 07af 00000000 		.4byte	adc_initVar
 4970 07b3 12       		.uleb128 0x12
 4971 07b4 48020000 		.4byte	.LASF97
 4972 07b8 01       		.byte	0x1
 4973 07b9 29       		.byte	0x29
 4974 07ba B8000000 		.4byte	0xb8
 4975 07be 01       		.byte	0x1
 4976 07bf 05       		.byte	0x5
 4977 07c0 03       		.byte	0x3
 4978 07c1 00000000 		.4byte	adc_started
 4979 07c5 12       		.uleb128 0x12
 4980 07c6 BC020000 		.4byte	.LASF98
 4981 07ca 01       		.byte	0x1
 4982 07cb 2C       		.byte	0x2c
 4983 07cc B8000000 		.4byte	0xb8
 4984 07d0 01       		.byte	0x1
 4985 07d1 05       		.byte	0x5
 4986 07d2 03       		.byte	0x3
 4987 07d3 00000000 		.4byte	adc_Config
 4988 07d7 12       		.uleb128 0x12
 4989 07d8 76010000 		.4byte	.LASF99
 4990 07dc 01       		.byte	0x1
 4991 07dd 2E       		.byte	0x2e
 4992 07de E9070000 		.4byte	0x7e9
 4993 07e2 01       		.byte	0x1
 4994 07e3 05       		.byte	0x5
 4995 07e4 03       		.byte	0x3
 4996 07e5 00000000 		.4byte	adc_Offset
 4997 07e9 05       		.uleb128 0x5
 4998 07ea AD000000 		.4byte	0xad
 4999 07ee 12       		.uleb128 0x12
 5000 07ef 80040000 		.4byte	.LASF100
 5001 07f3 01       		.byte	0x1
 5002 07f4 2F       		.byte	0x2f
 5003 07f5 E9070000 		.4byte	0x7e9
 5004 07f9 01       		.byte	0x1
 5005 07fa 05       		.byte	0x5
 5006 07fb 03       		.byte	0x3
 5007 07fc 00000000 		.4byte	adc_CountsPerVolt
 5008 0800 12       		.uleb128 0x12
 5009 0801 6E030000 		.4byte	.LASF101
 5010 0805 01       		.byte	0x1
 5011 0806 35       		.byte	0x35
 5012 0807 76000000 		.4byte	0x76
 5013 080b 01       		.byte	0x1
 5014 080c 05       		.byte	0x5
 5015 080d 03       		.byte	0x3
 5016 080e 00000000 		.4byte	adc_restoreReg
 5017 0812 00       		.byte	0x0
 5018              		.section	.debug_abbrev
 5019 0000 01       		.uleb128 0x1
 5020 0001 11       		.uleb128 0x11
ARM GAS  C:\Users\arh\AppData\Local\Temp\ccpMsX4j.s 			page 121


 5021 0002 01       		.byte	0x1
 5022 0003 25       		.uleb128 0x25
 5023 0004 0E       		.uleb128 0xe
 5024 0005 13       		.uleb128 0x13
 5025 0006 0B       		.uleb128 0xb
 5026 0007 03       		.uleb128 0x3
 5027 0008 0E       		.uleb128 0xe
 5028 0009 1B       		.uleb128 0x1b
 5029 000a 0E       		.uleb128 0xe
 5030 000b 11       		.uleb128 0x11
 5031 000c 01       		.uleb128 0x1
 5032 000d 52       		.uleb128 0x52
 5033 000e 01       		.uleb128 0x1
 5034 000f 55       		.uleb128 0x55
 5035 0010 06       		.uleb128 0x6
 5036 0011 10       		.uleb128 0x10
 5037 0012 06       		.uleb128 0x6
 5038 0013 00       		.byte	0x0
 5039 0014 00       		.byte	0x0
 5040 0015 02       		.uleb128 0x2
 5041 0016 24       		.uleb128 0x24
 5042 0017 00       		.byte	0x0
 5043 0018 0B       		.uleb128 0xb
 5044 0019 0B       		.uleb128 0xb
 5045 001a 3E       		.uleb128 0x3e
 5046 001b 0B       		.uleb128 0xb
 5047 001c 03       		.uleb128 0x3
 5048 001d 0E       		.uleb128 0xe
 5049 001e 00       		.byte	0x0
 5050 001f 00       		.byte	0x0
 5051 0020 03       		.uleb128 0x3
 5052 0021 24       		.uleb128 0x24
 5053 0022 00       		.byte	0x0
 5054 0023 0B       		.uleb128 0xb
 5055 0024 0B       		.uleb128 0xb
 5056 0025 3E       		.uleb128 0x3e
 5057 0026 0B       		.uleb128 0xb
 5058 0027 03       		.uleb128 0x3
 5059 0028 08       		.uleb128 0x8
 5060 0029 00       		.byte	0x0
 5061 002a 00       		.byte	0x0
 5062 002b 04       		.uleb128 0x4
 5063 002c 16       		.uleb128 0x16
 5064 002d 00       		.byte	0x0
 5065 002e 03       		.uleb128 0x3
 5066 002f 0E       		.uleb128 0xe
 5067 0030 3A       		.uleb128 0x3a
 5068 0031 0B       		.uleb128 0xb
 5069 0032 3B       		.uleb128 0x3b
 5070 0033 0B       		.uleb128 0xb
 5071 0034 49       		.uleb128 0x49
 5072 0035 13       		.uleb128 0x13
 5073 0036 00       		.byte	0x0
 5074 0037 00       		.byte	0x0
 5075 0038 05       		.uleb128 0x5
 5076 0039 35       		.uleb128 0x35
 5077 003a 00       		.byte	0x0
ARM GAS  C:\Users\arh\AppData\Local\Temp\ccpMsX4j.s 			page 122


 5078 003b 49       		.uleb128 0x49
 5079 003c 13       		.uleb128 0x13
 5080 003d 00       		.byte	0x0
 5081 003e 00       		.byte	0x0
 5082 003f 06       		.uleb128 0x6
 5083 0040 24       		.uleb128 0x24
 5084 0041 00       		.byte	0x0
 5085 0042 0B       		.uleb128 0xb
 5086 0043 0B       		.uleb128 0xb
 5087 0044 3E       		.uleb128 0x3e
 5088 0045 0B       		.uleb128 0xb
 5089 0046 00       		.byte	0x0
 5090 0047 00       		.byte	0x0
 5091 0048 07       		.uleb128 0x7
 5092 0049 13       		.uleb128 0x13
 5093 004a 01       		.byte	0x1
 5094 004b 03       		.uleb128 0x3
 5095 004c 0E       		.uleb128 0xe
 5096 004d 0B       		.uleb128 0xb
 5097 004e 0B       		.uleb128 0xb
 5098 004f 3A       		.uleb128 0x3a
 5099 0050 0B       		.uleb128 0xb
 5100 0051 3B       		.uleb128 0x3b
 5101 0052 0B       		.uleb128 0xb
 5102 0053 01       		.uleb128 0x1
 5103 0054 13       		.uleb128 0x13
 5104 0055 00       		.byte	0x0
 5105 0056 00       		.byte	0x0
 5106 0057 08       		.uleb128 0x8
 5107 0058 0D       		.uleb128 0xd
 5108 0059 00       		.byte	0x0
 5109 005a 03       		.uleb128 0x3
 5110 005b 0E       		.uleb128 0xe
 5111 005c 3A       		.uleb128 0x3a
 5112 005d 0B       		.uleb128 0xb
 5113 005e 3B       		.uleb128 0x3b
 5114 005f 0B       		.uleb128 0xb
 5115 0060 49       		.uleb128 0x49
 5116 0061 13       		.uleb128 0x13
 5117 0062 38       		.uleb128 0x38
 5118 0063 0A       		.uleb128 0xa
 5119 0064 00       		.byte	0x0
 5120 0065 00       		.byte	0x0
 5121 0066 09       		.uleb128 0x9
 5122 0067 2E       		.uleb128 0x2e
 5123 0068 00       		.byte	0x0
 5124 0069 3F       		.uleb128 0x3f
 5125 006a 0C       		.uleb128 0xc
 5126 006b 03       		.uleb128 0x3
 5127 006c 0E       		.uleb128 0xe
 5128 006d 3A       		.uleb128 0x3a
 5129 006e 0B       		.uleb128 0xb
 5130 006f 3B       		.uleb128 0x3b
 5131 0070 0B       		.uleb128 0xb
 5132 0071 27       		.uleb128 0x27
 5133 0072 0C       		.uleb128 0xc
 5134 0073 11       		.uleb128 0x11
ARM GAS  C:\Users\arh\AppData\Local\Temp\ccpMsX4j.s 			page 123


 5135 0074 01       		.uleb128 0x1
 5136 0075 12       		.uleb128 0x12
 5137 0076 01       		.uleb128 0x1
 5138 0077 40       		.uleb128 0x40
 5139 0078 06       		.uleb128 0x6
 5140 0079 00       		.byte	0x0
 5141 007a 00       		.byte	0x0
 5142 007b 0A       		.uleb128 0xa
 5143 007c 2E       		.uleb128 0x2e
 5144 007d 00       		.byte	0x0
 5145 007e 3F       		.uleb128 0x3f
 5146 007f 0C       		.uleb128 0xc
 5147 0080 03       		.uleb128 0x3
 5148 0081 0E       		.uleb128 0xe
 5149 0082 3A       		.uleb128 0x3a
 5150 0083 0B       		.uleb128 0xb
 5151 0084 3B       		.uleb128 0x3b
 5152 0085 05       		.uleb128 0x5
 5153 0086 27       		.uleb128 0x27
 5154 0087 0C       		.uleb128 0xc
 5155 0088 11       		.uleb128 0x11
 5156 0089 01       		.uleb128 0x1
 5157 008a 12       		.uleb128 0x12
 5158 008b 01       		.uleb128 0x1
 5159 008c 40       		.uleb128 0x40
 5160 008d 06       		.uleb128 0x6
 5161 008e 00       		.byte	0x0
 5162 008f 00       		.byte	0x0
 5163 0090 0B       		.uleb128 0xb
 5164 0091 2E       		.uleb128 0x2e
 5165 0092 01       		.byte	0x1
 5166 0093 3F       		.uleb128 0x3f
 5167 0094 0C       		.uleb128 0xc
 5168 0095 03       		.uleb128 0x3
 5169 0096 0E       		.uleb128 0xe
 5170 0097 3A       		.uleb128 0x3a
 5171 0098 0B       		.uleb128 0xb
 5172 0099 3B       		.uleb128 0x3b
 5173 009a 05       		.uleb128 0x5
 5174 009b 27       		.uleb128 0x27
 5175 009c 0C       		.uleb128 0xc
 5176 009d 11       		.uleb128 0x11
 5177 009e 01       		.uleb128 0x1
 5178 009f 12       		.uleb128 0x12
 5179 00a0 01       		.uleb128 0x1
 5180 00a1 40       		.uleb128 0x40
 5181 00a2 06       		.uleb128 0x6
 5182 00a3 01       		.uleb128 0x1
 5183 00a4 13       		.uleb128 0x13
 5184 00a5 00       		.byte	0x0
 5185 00a6 00       		.byte	0x0
 5186 00a7 0C       		.uleb128 0xc
 5187 00a8 05       		.uleb128 0x5
 5188 00a9 00       		.byte	0x0
 5189 00aa 03       		.uleb128 0x3
 5190 00ab 0E       		.uleb128 0xe
 5191 00ac 3A       		.uleb128 0x3a
ARM GAS  C:\Users\arh\AppData\Local\Temp\ccpMsX4j.s 			page 124


 5192 00ad 0B       		.uleb128 0xb
 5193 00ae 3B       		.uleb128 0x3b
 5194 00af 05       		.uleb128 0x5
 5195 00b0 49       		.uleb128 0x49
 5196 00b1 13       		.uleb128 0x13
 5197 00b2 02       		.uleb128 0x2
 5198 00b3 0A       		.uleb128 0xa
 5199 00b4 00       		.byte	0x0
 5200 00b5 00       		.byte	0x0
 5201 00b6 0D       		.uleb128 0xd
 5202 00b7 34       		.uleb128 0x34
 5203 00b8 00       		.byte	0x0
 5204 00b9 03       		.uleb128 0x3
 5205 00ba 0E       		.uleb128 0xe
 5206 00bb 3A       		.uleb128 0x3a
 5207 00bc 0B       		.uleb128 0xb
 5208 00bd 3B       		.uleb128 0x3b
 5209 00be 05       		.uleb128 0x5
 5210 00bf 49       		.uleb128 0x49
 5211 00c0 13       		.uleb128 0x13
 5212 00c1 02       		.uleb128 0x2
 5213 00c2 0A       		.uleb128 0xa
 5214 00c3 00       		.byte	0x0
 5215 00c4 00       		.byte	0x0
 5216 00c5 0E       		.uleb128 0xe
 5217 00c6 2E       		.uleb128 0x2e
 5218 00c7 01       		.byte	0x1
 5219 00c8 3F       		.uleb128 0x3f
 5220 00c9 0C       		.uleb128 0xc
 5221 00ca 03       		.uleb128 0x3
 5222 00cb 0E       		.uleb128 0xe
 5223 00cc 3A       		.uleb128 0x3a
 5224 00cd 0B       		.uleb128 0xb
 5225 00ce 3B       		.uleb128 0x3b
 5226 00cf 05       		.uleb128 0x5
 5227 00d0 27       		.uleb128 0x27
 5228 00d1 0C       		.uleb128 0xc
 5229 00d2 49       		.uleb128 0x49
 5230 00d3 13       		.uleb128 0x13
 5231 00d4 11       		.uleb128 0x11
 5232 00d5 01       		.uleb128 0x1
 5233 00d6 12       		.uleb128 0x12
 5234 00d7 01       		.uleb128 0x1
 5235 00d8 40       		.uleb128 0x40
 5236 00d9 06       		.uleb128 0x6
 5237 00da 01       		.uleb128 0x1
 5238 00db 13       		.uleb128 0x13
 5239 00dc 00       		.byte	0x0
 5240 00dd 00       		.byte	0x0
 5241 00de 0F       		.uleb128 0xf
 5242 00df 2E       		.uleb128 0x2e
 5243 00e0 00       		.byte	0x0
 5244 00e1 3F       		.uleb128 0x3f
 5245 00e2 0C       		.uleb128 0xc
 5246 00e3 03       		.uleb128 0x3
 5247 00e4 0E       		.uleb128 0xe
 5248 00e5 3A       		.uleb128 0x3a
ARM GAS  C:\Users\arh\AppData\Local\Temp\ccpMsX4j.s 			page 125


 5249 00e6 0B       		.uleb128 0xb
 5250 00e7 3B       		.uleb128 0x3b
 5251 00e8 05       		.uleb128 0x5
 5252 00e9 27       		.uleb128 0x27
 5253 00ea 0C       		.uleb128 0xc
 5254 00eb 49       		.uleb128 0x49
 5255 00ec 13       		.uleb128 0x13
 5256 00ed 11       		.uleb128 0x11
 5257 00ee 01       		.uleb128 0x1
 5258 00ef 12       		.uleb128 0x12
 5259 00f0 01       		.uleb128 0x1
 5260 00f1 40       		.uleb128 0x40
 5261 00f2 06       		.uleb128 0x6
 5262 00f3 00       		.byte	0x0
 5263 00f4 00       		.byte	0x0
 5264 00f5 10       		.uleb128 0x10
 5265 00f6 34       		.uleb128 0x34
 5266 00f7 00       		.byte	0x0
 5267 00f8 03       		.uleb128 0x3
 5268 00f9 08       		.uleb128 0x8
 5269 00fa 3A       		.uleb128 0x3a
 5270 00fb 0B       		.uleb128 0xb
 5271 00fc 3B       		.uleb128 0x3b
 5272 00fd 05       		.uleb128 0x5
 5273 00fe 49       		.uleb128 0x49
 5274 00ff 13       		.uleb128 0x13
 5275 0100 02       		.uleb128 0x2
 5276 0101 0A       		.uleb128 0xa
 5277 0102 00       		.byte	0x0
 5278 0103 00       		.byte	0x0
 5279 0104 11       		.uleb128 0x11
 5280 0105 34       		.uleb128 0x34
 5281 0106 00       		.byte	0x0
 5282 0107 03       		.uleb128 0x3
 5283 0108 0E       		.uleb128 0xe
 5284 0109 3A       		.uleb128 0x3a
 5285 010a 0B       		.uleb128 0xb
 5286 010b 3B       		.uleb128 0x3b
 5287 010c 0B       		.uleb128 0xb
 5288 010d 49       		.uleb128 0x49
 5289 010e 13       		.uleb128 0x13
 5290 010f 02       		.uleb128 0x2
 5291 0110 0A       		.uleb128 0xa
 5292 0111 00       		.byte	0x0
 5293 0112 00       		.byte	0x0
 5294 0113 12       		.uleb128 0x12
 5295 0114 34       		.uleb128 0x34
 5296 0115 00       		.byte	0x0
 5297 0116 03       		.uleb128 0x3
 5298 0117 0E       		.uleb128 0xe
 5299 0118 3A       		.uleb128 0x3a
 5300 0119 0B       		.uleb128 0xb
 5301 011a 3B       		.uleb128 0x3b
 5302 011b 0B       		.uleb128 0xb
 5303 011c 49       		.uleb128 0x49
 5304 011d 13       		.uleb128 0x13
 5305 011e 3F       		.uleb128 0x3f
ARM GAS  C:\Users\arh\AppData\Local\Temp\ccpMsX4j.s 			page 126


 5306 011f 0C       		.uleb128 0xc
 5307 0120 02       		.uleb128 0x2
 5308 0121 0A       		.uleb128 0xa
 5309 0122 00       		.byte	0x0
 5310 0123 00       		.byte	0x0
 5311 0124 00       		.byte	0x0
 5312              		.section	.debug_pubnames,"",%progbits
 5313 0000 EB020000 		.4byte	0x2eb
 5314 0004 0200     		.2byte	0x2
 5315 0006 00000000 		.4byte	.Ldebug_info0
 5316 000a 13080000 		.4byte	0x813
 5317 000e 56010000 		.4byte	0x156
 5318 0012 6164635F 		.ascii	"adc_Init\000"
 5318      496E6974 
 5318      00
 5319 001b 6B010000 		.4byte	0x16b
 5320 001f 6164635F 		.ascii	"adc_Enable\000"
 5320      456E6162 
 5320      6C6500
 5321 002a 80010000 		.4byte	0x180
 5322 002e 6164635F 		.ascii	"adc_RestorePowerRegisters\000"
 5322      52657374 
 5322      6F726550 
 5322      6F776572 
 5322      52656769 
 5323 0048 95010000 		.4byte	0x195
 5324 004c 6164635F 		.ascii	"adc_SavePowerRegisters\000"
 5324      53617665 
 5324      506F7765 
 5324      72526567 
 5324      69737465 
 5325 0063 AA010000 		.4byte	0x1aa
 5326 0067 6164635F 		.ascii	"adc_SetLowPower\000"
 5326      5365744C 
 5326      6F77506F 
 5326      77657200 
 5327 0077 C0010000 		.4byte	0x1c0
 5328 007b 6164635F 		.ascii	"adc_Start\000"
 5328      53746172 
 5328      7400
 5329 0085 D6010000 		.4byte	0x1d6
 5330 0089 6164635F 		.ascii	"adc_Stop\000"
 5330      53746F70 
 5330      00
 5331 0092 EC010000 		.4byte	0x1ec
 5332 0096 6164635F 		.ascii	"adc_SetBufferGain\000"
 5332      53657442 
 5332      75666665 
 5332      72476169 
 5332      6E00
 5333 00a8 25020000 		.4byte	0x225
 5334 00ac 6164635F 		.ascii	"adc_SetCoherency\000"
 5334      53657443 
 5334      6F686572 
 5334      656E6379 
 5334      00
 5335 00bd 5E020000 		.4byte	0x25e
ARM GAS  C:\Users\arh\AppData\Local\Temp\ccpMsX4j.s 			page 127


 5336 00c1 6164635F 		.ascii	"adc_SetGCOR\000"
 5336      53657447 
 5336      434F5200 
 5337 00cd C0020000 		.4byte	0x2c0
 5338 00d1 6164635F 		.ascii	"adc_ReadGCOR\000"
 5338      52656164 
 5338      47434F52 
 5338      00
 5339 00de 0C030000 		.4byte	0x30c
 5340 00e2 6164635F 		.ascii	"adc_SetBufferChop\000"
 5340      53657442 
 5340      75666665 
 5340      7243686F 
 5340      7000
 5341 00f4 45030000 		.4byte	0x345
 5342 00f8 6164635F 		.ascii	"adc_StartConvert\000"
 5342      53746172 
 5342      74436F6E 
 5342      76657274 
 5342      00
 5343 0109 5B030000 		.4byte	0x35b
 5344 010d 6164635F 		.ascii	"adc_StopConvert\000"
 5344      53746F70 
 5344      436F6E76 
 5344      65727400 
 5345 011d 71030000 		.4byte	0x371
 5346 0121 6164635F 		.ascii	"adc_IsEndConversion\000"
 5346      4973456E 
 5346      64436F6E 
 5346      76657273 
 5346      696F6E00 
 5347 0135 AE030000 		.4byte	0x3ae
 5348 0139 6164635F 		.ascii	"adc_GetResult8\000"
 5348      47657452 
 5348      6573756C 
 5348      743800
 5349 0148 C8030000 		.4byte	0x3c8
 5350 014c 6164635F 		.ascii	"adc_GetResult16\000"
 5350      47657452 
 5350      6573756C 
 5350      74313600 
 5351 015c F6030000 		.4byte	0x3f6
 5352 0160 6164635F 		.ascii	"adc_GetResult32\000"
 5352      47657452 
 5352      6573756C 
 5352      74333200 
 5353 0170 24040000 		.4byte	0x424
 5354 0174 6164635F 		.ascii	"adc_SetOffset\000"
 5354      5365744F 
 5354      66667365 
 5354      7400
 5355 0182 4E040000 		.4byte	0x44e
 5356 0186 6164635F 		.ascii	"adc_SetGain\000"
 5356      53657447 
 5356      61696E00 
 5357 0192 78040000 		.4byte	0x478
 5358 0196 6164635F 		.ascii	"adc_CountsTo_mVolts\000"
ARM GAS  C:\Users\arh\AppData\Local\Temp\ccpMsX4j.s 			page 128


 5358      436F756E 
 5358      7473546F 
 5358      5F6D566F 
 5358      6C747300 
 5359 01aa DE040000 		.4byte	0x4de
 5360 01ae 6164635F 		.ascii	"adc_CountsTo_Volts\000"
 5360      436F756E 
 5360      7473546F 
 5360      5F566F6C 
 5360      747300
 5361 01c1 1B050000 		.4byte	0x51b
 5362 01c5 6164635F 		.ascii	"adc_CountsTo_uVolts\000"
 5362      436F756E 
 5362      7473546F 
 5362      5F75566F 
 5362      6C747300 
 5363 01d9 81050000 		.4byte	0x581
 5364 01dd 6164635F 		.ascii	"adc_IRQ_Start\000"
 5364      4952515F 
 5364      53746172 
 5364      7400
 5365 01eb 97050000 		.4byte	0x597
 5366 01ef 6164635F 		.ascii	"adc_InitConfig\000"
 5366      496E6974 
 5366      436F6E66 
 5366      696700
 5367 01fe C1050000 		.4byte	0x5c1
 5368 0202 6164635F 		.ascii	"adc_RoundValue\000"
 5368      526F756E 
 5368      6456616C 
 5368      756500
 5369 0211 1C060000 		.4byte	0x61c
 5370 0215 6164635F 		.ascii	"adc_SelectConfiguration\000"
 5370      53656C65 
 5370      6374436F 
 5370      6E666967 
 5370      75726174 
 5371 022d AF060000 		.4byte	0x6af
 5372 0231 6164635F 		.ascii	"adc_GainCompensation\000"
 5372      4761696E 
 5372      436F6D70 
 5372      656E7361 
 5372      74696F6E 
 5373 0246 42070000 		.4byte	0x742
 5374 024a 6164635F 		.ascii	"adc_SetDSMRef0Reg\000"
 5374      53657444 
 5374      534D5265 
 5374      66305265 
 5374      6700
 5375 025c 7D070000 		.4byte	0x77d
 5376 0260 6164635F 		.ascii	"adc_convDone\000"
 5376      636F6E76 
 5376      446F6E65 
 5376      00
 5377 026d 8F070000 		.4byte	0x78f
 5378 0271 6164635F 		.ascii	"adc_stopConversion\000"
 5378      73746F70 
ARM GAS  C:\Users\arh\AppData\Local\Temp\ccpMsX4j.s 			page 129


 5378      436F6E76 
 5378      65727369 
 5378      6F6E00
 5379 0284 A1070000 		.4byte	0x7a1
 5380 0288 6164635F 		.ascii	"adc_initVar\000"
 5380      696E6974 
 5380      56617200 
 5381 0294 B3070000 		.4byte	0x7b3
 5382 0298 6164635F 		.ascii	"adc_started\000"
 5382      73746172 
 5382      74656400 
 5383 02a4 C5070000 		.4byte	0x7c5
 5384 02a8 6164635F 		.ascii	"adc_Config\000"
 5384      436F6E66 
 5384      696700
 5385 02b3 D7070000 		.4byte	0x7d7
 5386 02b7 6164635F 		.ascii	"adc_Offset\000"
 5386      4F666673 
 5386      657400
 5387 02c2 EE070000 		.4byte	0x7ee
 5388 02c6 6164635F 		.ascii	"adc_CountsPerVolt\000"
 5388      436F756E 
 5388      74735065 
 5388      72566F6C 
 5388      7400
 5389 02d8 00080000 		.4byte	0x800
 5390 02dc 6164635F 		.ascii	"adc_restoreReg\000"
 5390      72657374 
 5390      6F726552 
 5390      656700
 5391 02eb 00000000 		.4byte	0x0
 5392              		.section	.debug_aranges,"",%progbits
 5393 0000 FC000000 		.4byte	0xfc
 5394 0004 0200     		.2byte	0x2
 5395 0006 00000000 		.4byte	.Ldebug_info0
 5396 000a 04       		.byte	0x4
 5397 000b 00       		.byte	0x0
 5398 000c 0000     		.2byte	0x0
 5399 000e 0000     		.2byte	0x0
 5400 0010 00000000 		.4byte	.LFB0
 5401 0014 32000000 		.4byte	.LFE0-.LFB0
 5402 0018 00000000 		.4byte	.LFB1
 5403 001c C2010000 		.4byte	.LFE1-.LFB1
 5404 0020 00000000 		.4byte	.LFB2
 5405 0024 AA000000 		.4byte	.LFE2-.LFB2
 5406 0028 00000000 		.4byte	.LFB3
 5407 002c BA000000 		.4byte	.LFE3-.LFB3
 5408 0030 00000000 		.4byte	.LFB4
 5409 0034 36010000 		.4byte	.LFE4-.LFB4
 5410 0038 00000000 		.4byte	.LFB5
 5411 003c 3A000000 		.4byte	.LFE5-.LFB5
 5412 0040 00000000 		.4byte	.LFB6
 5413 0044 B0010000 		.4byte	.LFE6-.LFB6
 5414 0048 00000000 		.4byte	.LFB7
 5415 004c 44000000 		.4byte	.LFE7-.LFB7
 5416 0050 00000000 		.4byte	.LFB8
 5417 0054 3C000000 		.4byte	.LFE8-.LFB8
ARM GAS  C:\Users\arh\AppData\Local\Temp\ccpMsX4j.s 			page 130


 5418 0058 00000000 		.4byte	.LFB9
 5419 005c E4000000 		.4byte	.LFE9-.LFB9
 5420 0060 00000000 		.4byte	.LFB10
 5421 0064 BA000000 		.4byte	.LFE10-.LFB10
 5422 0068 00000000 		.4byte	.LFB11
 5423 006c 44000000 		.4byte	.LFE11-.LFB11
 5424 0070 00000000 		.4byte	.LFB12
 5425 0074 26000000 		.4byte	.LFE12-.LFB12
 5426 0078 00000000 		.4byte	.LFB13
 5427 007c 32000000 		.4byte	.LFE13-.LFB13
 5428 0080 00000000 		.4byte	.LFB14
 5429 0084 60000000 		.4byte	.LFE14-.LFB14
 5430 0088 00000000 		.4byte	.LFB15
 5431 008c 1A000000 		.4byte	.LFE15-.LFB15
 5432 0090 00000000 		.4byte	.LFB16
 5433 0094 22000000 		.4byte	.LFE16-.LFB16
 5434 0098 00000000 		.4byte	.LFB17
 5435 009c 3A000000 		.4byte	.LFE17-.LFB17
 5436 00a0 00000000 		.4byte	.LFB18
 5437 00a4 1E000000 		.4byte	.LFE18-.LFB18
 5438 00a8 00000000 		.4byte	.LFB19
 5439 00ac 1E000000 		.4byte	.LFE19-.LFB19
 5440 00b0 00000000 		.4byte	.LFB20
 5441 00b4 C4000000 		.4byte	.LFE20-.LFB20
 5442 00b8 00000000 		.4byte	.LFB21
 5443 00bc 54000000 		.4byte	.LFE21-.LFB21
 5444 00c0 00000000 		.4byte	.LFB22
 5445 00c4 F0000000 		.4byte	.LFE22-.LFB22
 5446 00c8 00000000 		.4byte	.LFB23
 5447 00cc 32000000 		.4byte	.LFE23-.LFB23
 5448 00d0 00000000 		.4byte	.LFB24
 5449 00d4 98080000 		.4byte	.LFE24-.LFB24
 5450 00d8 00000000 		.4byte	.LFB25
 5451 00dc 54000000 		.4byte	.LFE25-.LFB25
 5452 00e0 00000000 		.4byte	.LFB26
 5453 00e4 FE010000 		.4byte	.LFE26-.LFB26
 5454 00e8 00000000 		.4byte	.LFB27
 5455 00ec CA010000 		.4byte	.LFE27-.LFB27
 5456 00f0 00000000 		.4byte	.LFB28
 5457 00f4 92000000 		.4byte	.LFE28-.LFB28
 5458 00f8 00000000 		.4byte	0x0
 5459 00fc 00000000 		.4byte	0x0
 5460              		.section	.debug_ranges,"",%progbits
 5461              	.Ldebug_ranges0:
 5462 0000 00000000 		.4byte	.Ltext0
 5463 0004 00000000 		.4byte	.Letext0
 5464 0008 00000000 		.4byte	.LFB0
 5465 000c 32000000 		.4byte	.LFE0
 5466 0010 00000000 		.4byte	.LFB1
 5467 0014 C2010000 		.4byte	.LFE1
 5468 0018 00000000 		.4byte	.LFB2
 5469 001c AA000000 		.4byte	.LFE2
 5470 0020 00000000 		.4byte	.LFB3
 5471 0024 BA000000 		.4byte	.LFE3
 5472 0028 00000000 		.4byte	.LFB4
 5473 002c 36010000 		.4byte	.LFE4
 5474 0030 00000000 		.4byte	.LFB5
ARM GAS  C:\Users\arh\AppData\Local\Temp\ccpMsX4j.s 			page 131


 5475 0034 3A000000 		.4byte	.LFE5
 5476 0038 00000000 		.4byte	.LFB6
 5477 003c B0010000 		.4byte	.LFE6
 5478 0040 00000000 		.4byte	.LFB7
 5479 0044 44000000 		.4byte	.LFE7
 5480 0048 00000000 		.4byte	.LFB8
 5481 004c 3C000000 		.4byte	.LFE8
 5482 0050 00000000 		.4byte	.LFB9
 5483 0054 E4000000 		.4byte	.LFE9
 5484 0058 00000000 		.4byte	.LFB10
 5485 005c BA000000 		.4byte	.LFE10
 5486 0060 00000000 		.4byte	.LFB11
 5487 0064 44000000 		.4byte	.LFE11
 5488 0068 00000000 		.4byte	.LFB12
 5489 006c 26000000 		.4byte	.LFE12
 5490 0070 00000000 		.4byte	.LFB13
 5491 0074 32000000 		.4byte	.LFE13
 5492 0078 00000000 		.4byte	.LFB14
 5493 007c 60000000 		.4byte	.LFE14
 5494 0080 00000000 		.4byte	.LFB15
 5495 0084 1A000000 		.4byte	.LFE15
 5496 0088 00000000 		.4byte	.LFB16
 5497 008c 22000000 		.4byte	.LFE16
 5498 0090 00000000 		.4byte	.LFB17
 5499 0094 3A000000 		.4byte	.LFE17
 5500 0098 00000000 		.4byte	.LFB18
 5501 009c 1E000000 		.4byte	.LFE18
 5502 00a0 00000000 		.4byte	.LFB19
 5503 00a4 1E000000 		.4byte	.LFE19
 5504 00a8 00000000 		.4byte	.LFB20
 5505 00ac C4000000 		.4byte	.LFE20
 5506 00b0 00000000 		.4byte	.LFB21
 5507 00b4 54000000 		.4byte	.LFE21
 5508 00b8 00000000 		.4byte	.LFB22
 5509 00bc F0000000 		.4byte	.LFE22
 5510 00c0 00000000 		.4byte	.LFB23
 5511 00c4 32000000 		.4byte	.LFE23
 5512 00c8 00000000 		.4byte	.LFB24
 5513 00cc 98080000 		.4byte	.LFE24
 5514 00d0 00000000 		.4byte	.LFB25
 5515 00d4 54000000 		.4byte	.LFE25
 5516 00d8 00000000 		.4byte	.LFB26
 5517 00dc FE010000 		.4byte	.LFE26
 5518 00e0 00000000 		.4byte	.LFB27
 5519 00e4 CA010000 		.4byte	.LFE27
 5520 00e8 00000000 		.4byte	.LFB28
 5521 00ec 92000000 		.4byte	.LFE28
 5522 00f0 00000000 		.4byte	0x0
 5523 00f4 00000000 		.4byte	0x0
 5524              		.section	.debug_str,"MS",%progbits,1
 5525              	.LASF67:
 5526 0000 6164635F 		.ascii	"adc_CountsTo_uVolts\000"
 5526      436F756E 
 5526      7473546F 
 5526      5F75566F 
 5526      6C747300 
 5527              	.LASF11:
ARM GAS  C:\Users\arh\AppData\Local\Temp\ccpMsX4j.s 			page 132


 5528 0014 75696E74 		.ascii	"uint16\000"
 5528      313600
 5529              	.LASF47:
 5530 001b 6164635F 		.ascii	"adc_SetBufferChop\000"
 5530      53657442 
 5530      75666665 
 5530      7243686F 
 5530      7000
 5531              	.LASF60:
 5532 002d 61646347 		.ascii	"adcGain\000"
 5532      61696E00 
 5533              	.LASF79:
 5534 0035 696E7075 		.ascii	"inputRange\000"
 5534      7452616E 
 5534      676500
 5535              	.LASF43:
 5536 0040 6164635F 		.ascii	"adc_ReadGCOR\000"
 5536      52656164 
 5536      47434F52 
 5536      00
 5537              	.LASF33:
 5538 004d 6164635F 		.ascii	"adc_SetBufferGain\000"
 5538      53657442 
 5538      75666665 
 5538      72476169 
 5538      6E00
 5539              	.LASF74:
 5540 005f 636C6F63 		.ascii	"clockFreq\000"
 5540      6B467265 
 5540      7100
 5541              	.LASF69:
 5542 0069 6164635F 		.ascii	"adc_IRQ_Start\000"
 5542      4952515F 
 5542      53746172 
 5542      7400
 5543              	.LASF7:
 5544 0077 6C6F6E67 		.ascii	"long long unsigned int\000"
 5544      206C6F6E 
 5544      6720756E 
 5544      7369676E 
 5544      65642069 
 5545              	.LASF102:
 5546 008e 474E5520 		.ascii	"GNU C 4.4.1\000"
 5546      4320342E 
 5546      342E3100 
 5547              	.LASF88:
 5548 009a 4E6F726D 		.ascii	"Normalised\000"
 5548      616C6973 
 5548      656400
 5549              	.LASF73:
 5550 00a5 62757343 		.ascii	"busClockFreq\000"
 5550      6C6F636B 
 5550      46726571 
 5550      00
 5551              	.LASF6:
 5552 00b2 6C6F6E67 		.ascii	"long long int\000"
 5552      206C6F6E 
ARM GAS  C:\Users\arh\AppData\Local\Temp\ccpMsX4j.s 			page 133


 5552      6720696E 
 5552      7400
 5553              	.LASF0:
 5554 00c0 7369676E 		.ascii	"signed char\000"
 5554      65642063 
 5554      68617200 
 5555              	.LASF89:
 5556 00cc 47636F72 		.ascii	"GcorValue\000"
 5556      56616C75 
 5556      6500
 5557              	.LASF21:
 5558 00d6 44534D5F 		.ascii	"DSM_BUF0\000"
 5558      42554630 
 5558      00
 5559              	.LASF22:
 5560 00df 44534D5F 		.ascii	"DSM_BUF1\000"
 5560      42554631 
 5560      00
 5561              	.LASF15:
 5562 00e8 696E7433 		.ascii	"int32\000"
 5562      3200
 5563              	.LASF84:
 5564 00ee 6164635F 		.ascii	"adc_GainCompensation\000"
 5564      4761696E 
 5564      436F6D70 
 5564      656E7361 
 5564      74696F6E 
 5565              	.LASF4:
 5566 0103 6C6F6E67 		.ascii	"long int\000"
 5566      20696E74 
 5566      00
 5567              	.LASF32:
 5568 010c 6164635F 		.ascii	"adc_Stop\000"
 5568      53746F70 
 5568      00
 5569              	.LASF16:
 5570 0115 44534D5F 		.ascii	"DSM_CR_14\000"
 5570      43525F31 
 5570      3400
 5571              	.LASF17:
 5572 011f 44534D5F 		.ascii	"DSM_CR_15\000"
 5572      43525F31 
 5572      3500
 5573              	.LASF104:
 5574 0129 433A5C55 		.ascii	"C:\\Users\\arh\\Documents\\PSoC Creator\\Design07\\"
 5574      73657273 
 5574      5C617268 
 5574      5C446F63 
 5574      756D656E 
 5575 0156 6364732E 		.ascii	"cds.cydsn\000"
 5575      63796473 
 5575      6E00
 5576              	.LASF19:
 5577 0160 44534D5F 		.ascii	"DSM_CR_17\000"
 5577      43525F31 
 5577      3700
 5578              	.LASF10:
ARM GAS  C:\Users\arh\AppData\Local\Temp\ccpMsX4j.s 			page 134


 5579 016a 75696E74 		.ascii	"uint8\000"
 5579      3800
 5580              	.LASF66:
 5581 0170 566F6C74 		.ascii	"Volts\000"
 5581      7300
 5582              	.LASF99:
 5583 0176 6164635F 		.ascii	"adc_Offset\000"
 5583      4F666673 
 5583      657400
 5584              	.LASF31:
 5585 0181 6164635F 		.ascii	"adc_Start\000"
 5585      53746172 
 5585      7400
 5586              	.LASF12:
 5587 018b 75696E74 		.ascii	"uint32\000"
 5587      333200
 5588              	.LASF61:
 5589 0192 6164635F 		.ascii	"adc_CountsTo_mVolts\000"
 5589      436F756E 
 5589      7473546F 
 5589      5F6D566F 
 5589      6C747300 
 5590              	.LASF86:
 5591 01a6 49646561 		.ascii	"IdealOddDecGain\000"
 5591      6C4F6464 
 5591      44656347 
 5591      61696E00 
 5592              	.LASF20:
 5593 01b6 44534D5F 		.ascii	"DSM_REF0\000"
 5593      52454630 
 5593      00
 5594              	.LASF92:
 5595 01bf 76616C75 		.ascii	"value\000"
 5595      6500
 5596              	.LASF65:
 5597 01c5 6164635F 		.ascii	"adc_CountsTo_Volts\000"
 5597      436F756E 
 5597      7473546F 
 5597      5F566F6C 
 5597      747300
 5598              	.LASF8:
 5599 01d8 756E7369 		.ascii	"unsigned int\000"
 5599      676E6564 
 5599      20696E74 
 5599      00
 5600              	.LASF68:
 5601 01e5 75566F6C 		.ascii	"uVolts\000"
 5601      747300
 5602              	.LASF52:
 5603 01ec 6164635F 		.ascii	"adc_IsEndConversion\000"
 5603      4973456E 
 5603      64436F6E 
 5603      76657273 
 5603      696F6E00 
 5604              	.LASF5:
 5605 0200 6C6F6E67 		.ascii	"long unsigned int\000"
 5605      20756E73 
ARM GAS  C:\Users\arh\AppData\Local\Temp\ccpMsX4j.s 			page 135


 5605      69676E65 
 5605      6420696E 
 5605      7400
 5606              	.LASF54:
 5607 0212 6164635F 		.ascii	"adc_GetResult16\000"
 5607      47657452 
 5607      6573756C 
 5607      74313600 
 5608              	.LASF53:
 5609 0222 774D6F64 		.ascii	"wMode\000"
 5609      6500
 5610              	.LASF46:
 5611 0228 67636F72 		.ascii	"gcorRegValue\000"
 5611      52656756 
 5611      616C7565 
 5611      00
 5612              	.LASF3:
 5613 0235 73686F72 		.ascii	"short unsigned int\000"
 5613      7420756E 
 5613      7369676E 
 5613      65642069 
 5613      6E7400
 5614              	.LASF97:
 5615 0248 6164635F 		.ascii	"adc_started\000"
 5615      73746172 
 5615      74656400 
 5616              	.LASF13:
 5617 0254 696E7438 		.ascii	"int8\000"
 5617      00
 5618              	.LASF57:
 5619 0259 6164635F 		.ascii	"adc_SetOffset\000"
 5619      5365744F 
 5619      66667365 
 5619      7400
 5620              	.LASF45:
 5621 0267 67636F72 		.ascii	"gcorValue\000"
 5621      56616C75 
 5621      6500
 5622              	.LASF93:
 5623 0271 6164635F 		.ascii	"adc_powerModeBackup\000"
 5623      706F7765 
 5623      724D6F64 
 5623      65426163 
 5623      6B757000 
 5624              	.LASF34:
 5625 0285 6164635F 		.ascii	"adc_SetCoherency\000"
 5625      53657443 
 5625      6F686572 
 5625      656E6379 
 5625      00
 5626              	.LASF82:
 5627 0296 6370436C 		.ascii	"cpClockDivider\000"
 5627      6F636B44 
 5627      69766964 
 5627      657200
 5628              	.LASF63:
 5629 02a5 6D566F6C 		.ascii	"mVolts\000"
ARM GAS  C:\Users\arh\AppData\Local\Temp\ccpMsX4j.s 			page 136


 5629      747300
 5630              	.LASF87:
 5631 02ac 666C6173 		.ascii	"flash\000"
 5631      6800
 5632              	.LASF80:
 5633 02b2 69646561 		.ascii	"idealGain\000"
 5633      6C476169 
 5633      6E00
 5634              	.LASF98:
 5635 02bc 6164635F 		.ascii	"adc_Config\000"
 5635      436F6E66 
 5635      696700
 5636              	.LASF105:
 5637 02c7 6164635F 		.ascii	"adc_powerModeBackupStruct\000"
 5637      706F7765 
 5637      724D6F64 
 5637      65426163 
 5637      6B757053 
 5638              	.LASF30:
 5639 02e1 6164635F 		.ascii	"adc_SetLowPower\000"
 5639      5365744C 
 5639      6F77506F 
 5639      77657200 
 5640              	.LASF95:
 5641 02f1 6164635F 		.ascii	"adc_stopConversion\000"
 5641      73746F70 
 5641      436F6E76 
 5641      65727369 
 5641      6F6E00
 5642              	.LASF94:
 5643 0304 6164635F 		.ascii	"adc_convDone\000"
 5643      636F6E76 
 5643      446F6E65 
 5643      00
 5644              	.LASF36:
 5645 0311 636F6865 		.ascii	"coherency\000"
 5645      72656E63 
 5645      7900
 5646              	.LASF41:
 5647 031b 666C6F61 		.ascii	"float\000"
 5647      7400
 5648              	.LASF26:
 5649 0321 6164635F 		.ascii	"adc_Init\000"
 5649      496E6974 
 5649      00
 5650              	.LASF56:
 5651 032a 6164635F 		.ascii	"adc_GetResult32\000"
 5651      47657452 
 5651      6573756C 
 5651      74333200 
 5652              	.LASF35:
 5653 033a 6761696E 		.ascii	"gain\000"
 5653      00
 5654              	.LASF1:
 5655 033f 756E7369 		.ascii	"unsigned char\000"
 5655      676E6564 
 5655      20636861 
ARM GAS  C:\Users\arh\AppData\Local\Temp\ccpMsX4j.s 			page 137


 5655      7200
 5656              	.LASF96:
 5657 034d 6164635F 		.ascii	"adc_initVar\000"
 5657      696E6974 
 5657      56617200 
 5658              	.LASF2:
 5659 0359 73686F72 		.ascii	"short int\000"
 5659      7420696E 
 5659      7400
 5660              	.LASF27:
 5661 0363 6164635F 		.ascii	"adc_Enable\000"
 5661      456E6162 
 5661      6C6500
 5662              	.LASF101:
 5663 036e 6164635F 		.ascii	"adc_restoreReg\000"
 5663      72657374 
 5663      6F726552 
 5663      656700
 5664              	.LASF72:
 5665 037d 6164635F 		.ascii	"adc_RoundValue\000"
 5665      526F756E 
 5665      6456616C 
 5665      756500
 5666              	.LASF29:
 5667 038c 6164635F 		.ascii	"adc_SavePowerRegisters\000"
 5667      53617665 
 5667      506F7765 
 5667      72526567 
 5667      69737465 
 5668              	.LASF75:
 5669 03a3 64697669 		.ascii	"divider1\000"
 5669      64657231 
 5669      00
 5670              	.LASF76:
 5671 03ac 64697669 		.ascii	"divider2\000"
 5671      64657232 
 5671      00
 5672              	.LASF28:
 5673 03b5 6164635F 		.ascii	"adc_RestorePowerRegisters\000"
 5673      52657374 
 5673      6F726550 
 5673      6F776572 
 5673      52656769 
 5674              	.LASF64:
 5675 03cf 7265736F 		.ascii	"resolution\000"
 5675      6C757469 
 5675      6F6E00
 5676              	.LASF77:
 5677 03da 6164635F 		.ascii	"adc_SelectConfiguration\000"
 5677      53656C65 
 5677      6374436F 
 5677      6E666967 
 5677      75726174 
 5678              	.LASF24:
 5679 03f2 62797061 		.ascii	"bypassRestore\000"
 5679      73735265 
 5679      73746F72 
ARM GAS  C:\Users\arh\AppData\Local\Temp\ccpMsX4j.s 			page 138


 5679      6500
 5680              	.LASF90:
 5681 0400 47636F72 		.ascii	"GcorTmp\000"
 5681      546D7000 
 5682              	.LASF85:
 5683 0408 49646561 		.ascii	"IdealDecGain\000"
 5683      6C446563 
 5683      4761696E 
 5683      00
 5684              	.LASF9:
 5685 0415 63686172 		.ascii	"char\000"
 5685      00
 5686              	.LASF44:
 5687 041a 6756616C 		.ascii	"gValue\000"
 5687      756500
 5688              	.LASF71:
 5689 0421 636F6E66 		.ascii	"config\000"
 5689      696700
 5690              	.LASF51:
 5691 0428 6164635F 		.ascii	"adc_StopConvert\000"
 5691      53746F70 
 5691      436F6E76 
 5691      65727400 
 5692              	.LASF81:
 5693 0438 61646343 		.ascii	"adcClockDivider\000"
 5693      6C6F636B 
 5693      44697669 
 5693      64657200 
 5694              	.LASF49:
 5695 0448 63686F70 		.ascii	"chopFreq\000"
 5695      46726571 
 5695      00
 5696              	.LASF78:
 5697 0451 72657374 		.ascii	"restart\000"
 5697      61727400 
 5698              	.LASF40:
 5699 0459 746D7056 		.ascii	"tmpValue\000"
 5699      616C7565 
 5699      00
 5700              	.LASF83:
 5701 0462 69646561 		.ascii	"idealOddGain\000"
 5701      6C4F6464 
 5701      4761696E 
 5701      00
 5702              	.LASF58:
 5703 046f 6F666673 		.ascii	"offset\000"
 5703      657400
 5704              	.LASF62:
 5705 0476 61646343 		.ascii	"adcCounts\000"
 5705      6F756E74 
 5705      7300
 5706              	.LASF100:
 5707 0480 6164635F 		.ascii	"adc_CountsPerVolt\000"
 5707      436F756E 
 5707      74735065 
 5707      72566F6C 
 5707      7400
ARM GAS  C:\Users\arh\AppData\Local\Temp\ccpMsX4j.s 			page 139


 5708              	.LASF50:
 5709 0492 6164635F 		.ascii	"adc_StartConvert\000"
 5709      53746172 
 5709      74436F6E 
 5709      76657274 
 5709      00
 5710              	.LASF39:
 5711 04a3 73746174 		.ascii	"status\000"
 5711      757300
 5712              	.LASF42:
 5713 04aa 6164635F 		.ascii	"adc_SetGCOR\000"
 5713      53657447 
 5713      434F5200 
 5714              	.LASF91:
 5715 04b6 6164635F 		.ascii	"adc_SetDSMRef0Reg\000"
 5715      53657444 
 5715      534D5265 
 5715      66305265 
 5715      6700
 5716              	.LASF38:
 5717 04c8 6761696E 		.ascii	"gainAdjust\000"
 5717      41646A75 
 5717      737400
 5718              	.LASF14:
 5719 04d3 696E7431 		.ascii	"int16\000"
 5719      3600
 5720              	.LASF18:
 5721 04d9 44534D5F 		.ascii	"DSM_CR_16\000"
 5721      43525F31 
 5721      3600
 5722              	.LASF48:
 5723 04e3 63686F70 		.ascii	"chopen\000"
 5723      656E00
 5724              	.LASF59:
 5725 04ea 6164635F 		.ascii	"adc_SetGain\000"
 5725      53657447 
 5725      61696E00 
 5726              	.LASF25:
 5727 04f6 6164635F 		.ascii	"adc_POWERMODE_BACKUP_STRUCT\000"
 5727      504F5745 
 5727      524D4F44 
 5727      455F4241 
 5727      434B5550 
 5728              	.LASF70:
 5729 0512 6164635F 		.ascii	"adc_InitConfig\000"
 5729      496E6974 
 5729      436F6E66 
 5729      696700
 5730              	.LASF106:
 5731 0521 6164635F 		.ascii	"adc_GetResult8\000"
 5731      47657452 
 5731      6573756C 
 5731      743800
 5732              	.LASF37:
 5733 0530 746D7052 		.ascii	"tmpReg\000"
 5733      656700
 5734              	.LASF23:
ARM GAS  C:\Users\arh\AppData\Local\Temp\ccpMsX4j.s 			page 140


 5735 0537 44534D5F 		.ascii	"DSM_CLK\000"
 5735      434C4B00 
 5736              	.LASF103:
 5737 053f 2E5C4765 		.ascii	".\\Generated_Source\\PSoC5\\adc.c\000"
 5737      6E657261 
 5737      7465645F 
 5737      536F7572 
 5737      63655C50 
 5738              	.LASF55:
 5739 055e 72657375 		.ascii	"result\000"
 5739      6C7400
 5740              		.ident	"GCC: (Sourcery G++ Lite 2010q1-188) 4.4.1"
