ARM GAS  C:\Users\arh\AppData\Local\Temp\cceg0BfS.s 			page 1


   1              		.syntax unified
   2              		.cpu cortex-m3
   3              		.fpu softvfp
   4              		.eabi_attribute 20, 1
   5              		.eabi_attribute 21, 1
   6              		.eabi_attribute 23, 3
   7              		.eabi_attribute 24, 1
   8              		.eabi_attribute 25, 1
   9              		.eabi_attribute 26, 1
  10              		.eabi_attribute 30, 6
  11              		.eabi_attribute 18, 4
  12              		.thumb
  13              		.file	"adc_PM.c"
  20 0000 C2000000 		.text
  20      02006800 
  20      00000201 
  20      FB0E0D00 
  20      01010101 
  21              	.Ltext0:
  22              		.cfi_sections	.debug_frame
  23              		.data
  24              		.align	2
  25              		.type	adc_backup, %object
  26              		.size	adc_backup, 2
  27              	adc_backup:
  28 0000 00       		.byte	0
  29 0001 30       		.byte	48
  30 0002 0000     		.section	.text.adc_SaveConfig,"ax",%progbits
  31              		.align	2
  32              		.global	adc_SaveConfig
  33              		.thumb
  34              		.thumb_func
  35              		.type	adc_SaveConfig, %function
  36              	adc_SaveConfig:
  37              	.LFB0:
  38              		.file 1 ".\\Generated_Source\\PSoC5\\adc_PM.c"
   1:.\Generated_Source\PSoC5/adc_PM.c **** /*******************************************************************************
   2:.\Generated_Source\PSoC5/adc_PM.c **** * File Name: adc_PM.c  
   3:.\Generated_Source\PSoC5/adc_PM.c **** * Version 2.30
   4:.\Generated_Source\PSoC5/adc_PM.c **** *
   5:.\Generated_Source\PSoC5/adc_PM.c **** * Description:
   6:.\Generated_Source\PSoC5/adc_PM.c **** *  This file provides the power manager source code to the API for the 
   7:.\Generated_Source\PSoC5/adc_PM.c **** *  Delta-Sigma ADC Component.
   8:.\Generated_Source\PSoC5/adc_PM.c **** *
   9:.\Generated_Source\PSoC5/adc_PM.c **** * Note:
  10:.\Generated_Source\PSoC5/adc_PM.c **** *
  11:.\Generated_Source\PSoC5/adc_PM.c **** *******************************************************************************
  12:.\Generated_Source\PSoC5/adc_PM.c **** * Copyright 2008-2012, Cypress Semiconductor Corporation.  All rights reserved.
  13:.\Generated_Source\PSoC5/adc_PM.c **** * You may use this file only in accordance with the license, terms, conditions, 
  14:.\Generated_Source\PSoC5/adc_PM.c **** * disclaimers, and limitations in the end user license agreement accompanying 
  15:.\Generated_Source\PSoC5/adc_PM.c **** * the software package with which this file was provided.
ARM GAS  C:\Users\arh\AppData\Local\Temp\cceg0BfS.s 			page 2


  16:.\Generated_Source\PSoC5/adc_PM.c **** ********************************************************************************/
  17:.\Generated_Source\PSoC5/adc_PM.c **** 
  18:.\Generated_Source\PSoC5/adc_PM.c **** #include "adc.h"
  19:.\Generated_Source\PSoC5/adc_PM.c **** 
  20:.\Generated_Source\PSoC5/adc_PM.c **** static adc_BACKUP_STRUCT adc_backup = 
  21:.\Generated_Source\PSoC5/adc_PM.c **** {
  22:.\Generated_Source\PSoC5/adc_PM.c ****     adc_DISABLED,
  23:.\Generated_Source\PSoC5/adc_PM.c ****     adc_CFG1_DEC_CR
  24:.\Generated_Source\PSoC5/adc_PM.c **** };
  25:.\Generated_Source\PSoC5/adc_PM.c **** 
  26:.\Generated_Source\PSoC5/adc_PM.c **** 
  27:.\Generated_Source\PSoC5/adc_PM.c **** /*******************************************************************************  
  28:.\Generated_Source\PSoC5/adc_PM.c **** * Function Name: adc_SaveConfig
  29:.\Generated_Source\PSoC5/adc_PM.c **** ********************************************************************************
  30:.\Generated_Source\PSoC5/adc_PM.c **** *
  31:.\Generated_Source\PSoC5/adc_PM.c **** * Summary:
  32:.\Generated_Source\PSoC5/adc_PM.c **** *  Save the register configuration which are not retention.
  33:.\Generated_Source\PSoC5/adc_PM.c **** * 
  34:.\Generated_Source\PSoC5/adc_PM.c **** * Parameters:
  35:.\Generated_Source\PSoC5/adc_PM.c **** *  void
  36:.\Generated_Source\PSoC5/adc_PM.c **** * 
  37:.\Generated_Source\PSoC5/adc_PM.c **** * Return:
  38:.\Generated_Source\PSoC5/adc_PM.c **** *  void
  39:.\Generated_Source\PSoC5/adc_PM.c **** *
  40:.\Generated_Source\PSoC5/adc_PM.c **** * Global variables:
  41:.\Generated_Source\PSoC5/adc_PM.c **** *  adc_backup:  This global structure variable is used to store 
  42:.\Generated_Source\PSoC5/adc_PM.c **** *  configuration registers which are non retention whenever user wants to go 
  43:.\Generated_Source\PSoC5/adc_PM.c **** *  sleep mode by calling Sleep() API.
  44:.\Generated_Source\PSoC5/adc_PM.c **** *
  45:.\Generated_Source\PSoC5/adc_PM.c **** *******************************************************************************/
  46:.\Generated_Source\PSoC5/adc_PM.c **** void adc_SaveConfig(void) 
  47:.\Generated_Source\PSoC5/adc_PM.c **** {
  39              		.loc 1 47 0
  40              		.cfi_startproc
  41              		@ args = 0, pretend = 0, frame = 0
  42              		@ frame_needed = 1, uses_anonymous_args = 0
  43              		@ link register save eliminated.
  44 0000 80B4     		push	{r7}
  45              	.LCFI0:
  46              		.cfi_def_cfa_offset 4
  47 0002 00AF     		add	r7, sp, #0
  48              		.cfi_offset 7, -4
  49              	.LCFI1:
  50              		.cfi_def_cfa_register 7
  48:.\Generated_Source\PSoC5/adc_PM.c ****     adc_backup.deccr = adc_DEC_CR_REG;
  51              		.loc 1 48 0
  52 0004 44F60063 		movw	r3, #:lower16:1073761792
  53 0008 C4F20003 		movt	r3, #:upper16:1073761792
  54 000c 1B78     		ldrb	r3, [r3, #0]
  55 000e DAB2     		uxtb	r2, r3
  56 0010 40F20003 		movw	r3, #:lower16:adc_backup
  57 0014 C0F20003 		movt	r3, #:upper16:adc_backup
  58 0018 5A70     		strb	r2, [r3, #1]
  49:.\Generated_Source\PSoC5/adc_PM.c **** }
  59              		.loc 1 49 0
  60 001a BD46     		mov	sp, r7
  61 001c 80BC     		pop	{r7}
ARM GAS  C:\Users\arh\AppData\Local\Temp\cceg0BfS.s 			page 3


  62 001e 7047     		bx	lr
  63              		.cfi_endproc
  64              	.LFE0:
  65              		.size	adc_SaveConfig, .-adc_SaveConfig
  66              		.section	.text.adc_RestoreConfig,"ax",%progbits
  67              		.align	2
  68              		.global	adc_RestoreConfig
  69              		.thumb
  70              		.thumb_func
  71              		.type	adc_RestoreConfig, %function
  72              	adc_RestoreConfig:
  73              	.LFB1:
  50:.\Generated_Source\PSoC5/adc_PM.c **** 
  51:.\Generated_Source\PSoC5/adc_PM.c **** 
  52:.\Generated_Source\PSoC5/adc_PM.c **** /*******************************************************************************  
  53:.\Generated_Source\PSoC5/adc_PM.c **** * Function Name: adc_RestoreConfig
  54:.\Generated_Source\PSoC5/adc_PM.c **** ********************************************************************************
  55:.\Generated_Source\PSoC5/adc_PM.c **** *
  56:.\Generated_Source\PSoC5/adc_PM.c **** * Summary:
  57:.\Generated_Source\PSoC5/adc_PM.c **** *  Restore the register configurations which are not retention.
  58:.\Generated_Source\PSoC5/adc_PM.c **** * 
  59:.\Generated_Source\PSoC5/adc_PM.c **** * Parameters:
  60:.\Generated_Source\PSoC5/adc_PM.c **** *  void
  61:.\Generated_Source\PSoC5/adc_PM.c **** * 
  62:.\Generated_Source\PSoC5/adc_PM.c **** * Return:
  63:.\Generated_Source\PSoC5/adc_PM.c **** *  void
  64:.\Generated_Source\PSoC5/adc_PM.c **** *
  65:.\Generated_Source\PSoC5/adc_PM.c **** * Global variables:
  66:.\Generated_Source\PSoC5/adc_PM.c **** *  adc_backup:  This global structure variable is used to restore 
  67:.\Generated_Source\PSoC5/adc_PM.c **** *  configuration registers which are non retention whenever user wants to switch 
  68:.\Generated_Source\PSoC5/adc_PM.c **** *  to active power mode by calling Wakeup() API.
  69:.\Generated_Source\PSoC5/adc_PM.c **** *
  70:.\Generated_Source\PSoC5/adc_PM.c **** *******************************************************************************/
  71:.\Generated_Source\PSoC5/adc_PM.c **** void adc_RestoreConfig(void) 
  72:.\Generated_Source\PSoC5/adc_PM.c **** {
  74              		.loc 1 72 0
  75              		.cfi_startproc
  76              		@ args = 0, pretend = 0, frame = 0
  77              		@ frame_needed = 1, uses_anonymous_args = 0
  78              		@ link register save eliminated.
  79 0000 80B4     		push	{r7}
  80              	.LCFI2:
  81              		.cfi_def_cfa_offset 4
  82 0002 00AF     		add	r7, sp, #0
  83              		.cfi_offset 7, -4
  84              	.LCFI3:
  85              		.cfi_def_cfa_register 7
  73:.\Generated_Source\PSoC5/adc_PM.c ****     adc_DEC_CR_REG = adc_backup.deccr;
  86              		.loc 1 73 0
  87 0004 44F60063 		movw	r3, #:lower16:1073761792
  88 0008 C4F20003 		movt	r3, #:upper16:1073761792
  89 000c 40F20002 		movw	r2, #:lower16:adc_backup
  90 0010 C0F20002 		movt	r2, #:upper16:adc_backup
  91 0014 5278     		ldrb	r2, [r2, #1]	@ zero_extendqisi2
  92 0016 1A70     		strb	r2, [r3, #0]
  74:.\Generated_Source\PSoC5/adc_PM.c **** }
  93              		.loc 1 74 0
ARM GAS  C:\Users\arh\AppData\Local\Temp\cceg0BfS.s 			page 4


  94 0018 BD46     		mov	sp, r7
  95 001a 80BC     		pop	{r7}
  96 001c 7047     		bx	lr
  97              		.cfi_endproc
  98              	.LFE1:
  99              		.size	adc_RestoreConfig, .-adc_RestoreConfig
 100 001e 00BF     		.section	.text.adc_Sleep,"ax",%progbits
 101              		.align	2
 102              		.global	adc_Sleep
 103              		.thumb
 104              		.thumb_func
 105              		.type	adc_Sleep, %function
 106              	adc_Sleep:
 107              	.LFB2:
  75:.\Generated_Source\PSoC5/adc_PM.c **** 
  76:.\Generated_Source\PSoC5/adc_PM.c **** 
  77:.\Generated_Source\PSoC5/adc_PM.c **** /******************************************************************************* 
  78:.\Generated_Source\PSoC5/adc_PM.c **** * Function Name: adc_Sleep
  79:.\Generated_Source\PSoC5/adc_PM.c **** ********************************************************************************
  80:.\Generated_Source\PSoC5/adc_PM.c **** *
  81:.\Generated_Source\PSoC5/adc_PM.c **** * Summary:
  82:.\Generated_Source\PSoC5/adc_PM.c **** *  Stops the operation of the block and saves the user configuration. 
  83:.\Generated_Source\PSoC5/adc_PM.c **** *  
  84:.\Generated_Source\PSoC5/adc_PM.c **** * Parameters:  
  85:.\Generated_Source\PSoC5/adc_PM.c **** *  void
  86:.\Generated_Source\PSoC5/adc_PM.c **** *
  87:.\Generated_Source\PSoC5/adc_PM.c **** * Return: 
  88:.\Generated_Source\PSoC5/adc_PM.c **** *  void
  89:.\Generated_Source\PSoC5/adc_PM.c **** *
  90:.\Generated_Source\PSoC5/adc_PM.c **** * Global variables:
  91:.\Generated_Source\PSoC5/adc_PM.c **** *  adc_backup:  The structure field 'enableState' is modified 
  92:.\Generated_Source\PSoC5/adc_PM.c **** *  depending on the enable state of the block before entering to sleep mode.
  93:.\Generated_Source\PSoC5/adc_PM.c **** *
  94:.\Generated_Source\PSoC5/adc_PM.c **** *******************************************************************************/
  95:.\Generated_Source\PSoC5/adc_PM.c **** void adc_Sleep(void) 
  96:.\Generated_Source\PSoC5/adc_PM.c **** {
 108              		.loc 1 96 0
 109              		.cfi_startproc
 110              		@ args = 0, pretend = 0, frame = 0
 111              		@ frame_needed = 1, uses_anonymous_args = 0
 112 0000 80B5     		push	{r7, lr}
 113              	.LCFI4:
 114              		.cfi_def_cfa_offset 8
 115 0002 00AF     		add	r7, sp, #0
 116              		.cfi_offset 14, -4
 117              		.cfi_offset 7, -8
 118              	.LCFI5:
 119              		.cfi_def_cfa_register 7
  97:.\Generated_Source\PSoC5/adc_PM.c ****     /* Save ADC enable state */
  98:.\Generated_Source\PSoC5/adc_PM.c ****     if((adc_ACT_PWR_DEC_EN == (adc_PWRMGR_DEC_REG & adc_ACT_PWR_DEC_EN)) &&
 120              		.loc 1 98 0
 121 0004 44F2AA33 		movw	r3, #:lower16:1073759146
 122 0008 C4F20003 		movt	r3, #:upper16:1073759146
 123 000c 1B78     		ldrb	r3, [r3, #0]
 124 000e DBB2     		uxtb	r3, r3
 125 0010 03F00103 		and	r3, r3, #1
 126 0014 DBB2     		uxtb	r3, r3
ARM GAS  C:\Users\arh\AppData\Local\Temp\cceg0BfS.s 			page 5


 127 0016 002B     		cmp	r3, #0
 128 0018 12D0     		beq	.L6
  99:.\Generated_Source\PSoC5/adc_PM.c ****        (adc_ACT_PWR_DSM_EN == (adc_PWRMGR_DSM_REG & adc_ACT_PWR_DSM_EN)))
 129              		.loc 1 99 0
 130 001a 44F2C533 		movw	r3, #:lower16:1073759173
 131 001e C4F20003 		movt	r3, #:upper16:1073759173
 132 0022 1B78     		ldrb	r3, [r3, #0]
 133 0024 DBB2     		uxtb	r3, r3
 134 0026 03F00103 		and	r3, r3, #1
 135              		.loc 1 98 0
 136 002a DBB2     		uxtb	r3, r3
 137 002c 002B     		cmp	r3, #0
 138 002e 07D0     		beq	.L6
 100:.\Generated_Source\PSoC5/adc_PM.c ****     {
 101:.\Generated_Source\PSoC5/adc_PM.c ****         /* Component is enabled */
 102:.\Generated_Source\PSoC5/adc_PM.c ****         adc_backup.enableState = adc_ENABLED;
 139              		.loc 1 102 0
 140 0030 40F20003 		movw	r3, #:lower16:adc_backup
 141 0034 C0F20003 		movt	r3, #:upper16:adc_backup
 142 0038 4FF00102 		mov	r2, #1
 143 003c 1A70     		strb	r2, [r3, #0]
 144              		.loc 1 98 0
 145 003e 06E0     		b	.L7
 146              	.L6:
 103:.\Generated_Source\PSoC5/adc_PM.c ****     }
 104:.\Generated_Source\PSoC5/adc_PM.c ****     else
 105:.\Generated_Source\PSoC5/adc_PM.c ****     {
 106:.\Generated_Source\PSoC5/adc_PM.c ****         /* Component is disabled */
 107:.\Generated_Source\PSoC5/adc_PM.c ****         adc_backup.enableState = adc_DISABLED;
 147              		.loc 1 107 0
 148 0040 40F20003 		movw	r3, #:lower16:adc_backup
 149 0044 C0F20003 		movt	r3, #:upper16:adc_backup
 150 0048 4FF00002 		mov	r2, #0
 151 004c 1A70     		strb	r2, [r3, #0]
 152              	.L7:
 108:.\Generated_Source\PSoC5/adc_PM.c ****     }
 109:.\Generated_Source\PSoC5/adc_PM.c **** 
 110:.\Generated_Source\PSoC5/adc_PM.c ****     /* Stop the configuration */
 111:.\Generated_Source\PSoC5/adc_PM.c ****     adc_Stop();
 153              		.loc 1 111 0
 154 004e FFF7FEFF 		bl	adc_Stop
 112:.\Generated_Source\PSoC5/adc_PM.c **** 
 113:.\Generated_Source\PSoC5/adc_PM.c ****     /* Save the user configuration */
 114:.\Generated_Source\PSoC5/adc_PM.c ****     adc_SaveConfig();
 155              		.loc 1 114 0
 156 0052 FFF7FEFF 		bl	adc_SaveConfig
 115:.\Generated_Source\PSoC5/adc_PM.c **** }
 157              		.loc 1 115 0
 158 0056 80BD     		pop	{r7, pc}
 159              		.cfi_endproc
 160              	.LFE2:
 161              		.size	adc_Sleep, .-adc_Sleep
 162              		.section	.text.adc_Wakeup,"ax",%progbits
 163              		.align	2
 164              		.global	adc_Wakeup
 165              		.thumb
 166              		.thumb_func
ARM GAS  C:\Users\arh\AppData\Local\Temp\cceg0BfS.s 			page 6


 167              		.type	adc_Wakeup, %function
 168              	adc_Wakeup:
 169              	.LFB3:
 116:.\Generated_Source\PSoC5/adc_PM.c **** 
 117:.\Generated_Source\PSoC5/adc_PM.c **** 
 118:.\Generated_Source\PSoC5/adc_PM.c **** /******************************************************************************* 
 119:.\Generated_Source\PSoC5/adc_PM.c **** * Function Name: adc_Wakeup
 120:.\Generated_Source\PSoC5/adc_PM.c **** ********************************************************************************
 121:.\Generated_Source\PSoC5/adc_PM.c **** *
 122:.\Generated_Source\PSoC5/adc_PM.c **** * Summary:
 123:.\Generated_Source\PSoC5/adc_PM.c **** *  Restores the user configuration and enables the power to the block.
 124:.\Generated_Source\PSoC5/adc_PM.c **** *  
 125:.\Generated_Source\PSoC5/adc_PM.c **** * Parameters:  
 126:.\Generated_Source\PSoC5/adc_PM.c **** *  void
 127:.\Generated_Source\PSoC5/adc_PM.c **** *
 128:.\Generated_Source\PSoC5/adc_PM.c **** * Return: 
 129:.\Generated_Source\PSoC5/adc_PM.c **** *  void
 130:.\Generated_Source\PSoC5/adc_PM.c **** *
 131:.\Generated_Source\PSoC5/adc_PM.c **** * Global variables:
 132:.\Generated_Source\PSoC5/adc_PM.c **** *  adc_backup:  The structure field 'enableState' is used to 
 133:.\Generated_Source\PSoC5/adc_PM.c **** *  restore the enable state of block after wakeup from sleep mode.
 134:.\Generated_Source\PSoC5/adc_PM.c **** *
 135:.\Generated_Source\PSoC5/adc_PM.c **** *******************************************************************************/
 136:.\Generated_Source\PSoC5/adc_PM.c **** void adc_Wakeup(void) 
 137:.\Generated_Source\PSoC5/adc_PM.c **** {
 170              		.loc 1 137 0
 171              		.cfi_startproc
 172              		@ args = 0, pretend = 0, frame = 0
 173              		@ frame_needed = 1, uses_anonymous_args = 0
 174 0000 80B5     		push	{r7, lr}
 175              	.LCFI6:
 176              		.cfi_def_cfa_offset 8
 177 0002 00AF     		add	r7, sp, #0
 178              		.cfi_offset 14, -4
 179              		.cfi_offset 7, -8
 180              	.LCFI7:
 181              		.cfi_def_cfa_register 7
 138:.\Generated_Source\PSoC5/adc_PM.c ****     /* Restore the configuration */
 139:.\Generated_Source\PSoC5/adc_PM.c ****     adc_RestoreConfig();
 182              		.loc 1 139 0
 183 0004 FFF7FEFF 		bl	adc_RestoreConfig
 140:.\Generated_Source\PSoC5/adc_PM.c **** 
 141:.\Generated_Source\PSoC5/adc_PM.c ****     /* Enable's the component operation */
 142:.\Generated_Source\PSoC5/adc_PM.c ****     if(adc_backup.enableState == adc_ENABLED)
 184              		.loc 1 142 0
 185 0008 40F20003 		movw	r3, #:lower16:adc_backup
 186 000c C0F20003 		movt	r3, #:upper16:adc_backup
 187 0010 1B78     		ldrb	r3, [r3, #0]	@ zero_extendqisi2
 188 0012 012B     		cmp	r3, #1
 189 0014 0DD1     		bne	.L11
 143:.\Generated_Source\PSoC5/adc_PM.c ****     {
 144:.\Generated_Source\PSoC5/adc_PM.c ****         adc_Enable();
 190              		.loc 1 144 0
 191 0016 FFF7FEFF 		bl	adc_Enable
 145:.\Generated_Source\PSoC5/adc_PM.c **** 
 146:.\Generated_Source\PSoC5/adc_PM.c ****         /* Start the conversion only if conversion is not triggered by the hardware */
 147:.\Generated_Source\PSoC5/adc_PM.c ****         if(!(adc_DEC_CR_REG & adc_DEC_XSTART_EN))
ARM GAS  C:\Users\arh\AppData\Local\Temp\cceg0BfS.s 			page 7


 192              		.loc 1 147 0
 193 001a 44F60063 		movw	r3, #:lower16:1073761792
 194 001e C4F20003 		movt	r3, #:upper16:1073761792
 195 0022 1B78     		ldrb	r3, [r3, #0]
 196 0024 DBB2     		uxtb	r3, r3
 197 0026 03F00203 		and	r3, r3, #2
 198 002a 002B     		cmp	r3, #0
 199 002c 01D1     		bne	.L11
 148:.\Generated_Source\PSoC5/adc_PM.c ****         {
 149:.\Generated_Source\PSoC5/adc_PM.c ****             adc_StartConvert();
 200              		.loc 1 149 0
 201 002e FFF7FEFF 		bl	adc_StartConvert
 202              	.L11:
 150:.\Generated_Source\PSoC5/adc_PM.c ****         }
 151:.\Generated_Source\PSoC5/adc_PM.c **** 
 152:.\Generated_Source\PSoC5/adc_PM.c ****     } /* Do nothing if component was disable before */
 153:.\Generated_Source\PSoC5/adc_PM.c **** }
 203              		.loc 1 153 0
 204 0032 80BD     		pop	{r7, pc}
 205              		.cfi_endproc
 206              	.LFE3:
 207              		.size	adc_Wakeup, .-adc_Wakeup
 208              		.text
 209              	.Letext0: