ARM GAS  C:\Users\arh\AppData\Local\Temp\cc67iDyk.s 			page 1


   1              		.syntax unified
   2              		.cpu cortex-m3
   3              		.fpu softvfp
   4              		.eabi_attribute 20, 1
   5              		.eabi_attribute 21, 1
   6              		.eabi_attribute 23, 3
   7              		.eabi_attribute 24, 1
   8              		.eabi_attribute 25, 1
   9              		.eabi_attribute 26, 1
  10              		.eabi_attribute 30, 6
  11              		.eabi_attribute 18, 4
  12              		.thumb
  13              		.file	"cyfitter_cfg.c"
  20 0000 B4010000 		.text
  20      02006400 
  20      00000201 
  20      FB0E0D00 
  20      01010101 
  21              	.Ltext0:
  22              		.cfi_sections	.debug_frame
  23              		.section	.text.CyClockStartupError,"ax",%progbits
  24              		.align	2
  25              		.thumb
  26              		.thumb_func
  27              		.type	CyClockStartupError, %function
  28              	CyClockStartupError:
  29              	.LFB0:
  30              		.file 1 ".\\Generated_Source\\PSoC5\\cyfitter_cfg.c"
   1:.\Generated_Source\PSoC5/cyfitter_cfg.c **** /*******************************************************************************
   2:.\Generated_Source\PSoC5/cyfitter_cfg.c **** * FILENAME: cyfitter_cfg.c
   3:.\Generated_Source\PSoC5/cyfitter_cfg.c **** * PSoC Creator 2.1 SP1
   4:.\Generated_Source\PSoC5/cyfitter_cfg.c **** *
   5:.\Generated_Source\PSoC5/cyfitter_cfg.c **** * Description:
   6:.\Generated_Source\PSoC5/cyfitter_cfg.c **** * This file is automatically generated by PSoC Creator with device 
   7:.\Generated_Source\PSoC5/cyfitter_cfg.c **** * initialization code.  Except for the user defined sections in
   8:.\Generated_Source\PSoC5/cyfitter_cfg.c **** * CyClockStartupError(), this file should not be modified.
   9:.\Generated_Source\PSoC5/cyfitter_cfg.c **** *
  10:.\Generated_Source\PSoC5/cyfitter_cfg.c **** ********************************************************************************
  11:.\Generated_Source\PSoC5/cyfitter_cfg.c **** * Copyright 2012, Cypress Semiconductor Corporation.  All rights reserved.
  12:.\Generated_Source\PSoC5/cyfitter_cfg.c **** * You may use this file only in accordance with the license, terms, conditions, 
  13:.\Generated_Source\PSoC5/cyfitter_cfg.c **** * disclaimers, and limitations in the end user license agreement accompanying 
  14:.\Generated_Source\PSoC5/cyfitter_cfg.c **** * the software package with which this file was provided.
  15:.\Generated_Source\PSoC5/cyfitter_cfg.c **** ********************************************************************************/
  16:.\Generated_Source\PSoC5/cyfitter_cfg.c **** 
  17:.\Generated_Source\PSoC5/cyfitter_cfg.c **** #include <string.h>
  18:.\Generated_Source\PSoC5/cyfitter_cfg.c **** #include <cytypes.h>
  19:.\Generated_Source\PSoC5/cyfitter_cfg.c **** #include <cydevice_trm.h>
  20:.\Generated_Source\PSoC5/cyfitter_cfg.c **** #include <cyfitter.h>
  21:.\Generated_Source\PSoC5/cyfitter_cfg.c **** #include <CyLib.h>
  22:.\Generated_Source\PSoC5/cyfitter_cfg.c **** #include <cyfitter_cfg.h>
  23:.\Generated_Source\PSoC5/cyfitter_cfg.c **** 
ARM GAS  C:\Users\arh\AppData\Local\Temp\cc67iDyk.s 			page 2


  24:.\Generated_Source\PSoC5/cyfitter_cfg.c **** /* Clock startup error codes                                                   */
  25:.\Generated_Source\PSoC5/cyfitter_cfg.c **** #define CYCLOCKSTART_NO_ERROR    0
  26:.\Generated_Source\PSoC5/cyfitter_cfg.c **** #define CYCLOCKSTART_XTAL_ERROR  1
  27:.\Generated_Source\PSoC5/cyfitter_cfg.c **** #define CYCLOCKSTART_32KHZ_ERROR 2
  28:.\Generated_Source\PSoC5/cyfitter_cfg.c **** #define CYCLOCKSTART_PLL_ERROR   3
  29:.\Generated_Source\PSoC5/cyfitter_cfg.c **** 
  30:.\Generated_Source\PSoC5/cyfitter_cfg.c **** /*******************************************************************************
  31:.\Generated_Source\PSoC5/cyfitter_cfg.c **** * Function Name: CyClockStartupError
  32:.\Generated_Source\PSoC5/cyfitter_cfg.c **** ********************************************************************************
  33:.\Generated_Source\PSoC5/cyfitter_cfg.c **** * Summary:
  34:.\Generated_Source\PSoC5/cyfitter_cfg.c **** *  If an error is encountered during clock configuration (crystal startup error,
  35:.\Generated_Source\PSoC5/cyfitter_cfg.c **** *  PLL lock error, etc) the system will end up here.  Unless reimplemented by 
  36:.\Generated_Source\PSoC5/cyfitter_cfg.c **** *  the customer, an infinite loop will be encountered.
  37:.\Generated_Source\PSoC5/cyfitter_cfg.c **** *
  38:.\Generated_Source\PSoC5/cyfitter_cfg.c **** * Parameters:  
  39:.\Generated_Source\PSoC5/cyfitter_cfg.c **** *   void
  40:.\Generated_Source\PSoC5/cyfitter_cfg.c **** *
  41:.\Generated_Source\PSoC5/cyfitter_cfg.c **** * Return:
  42:.\Generated_Source\PSoC5/cyfitter_cfg.c **** *   void
  43:.\Generated_Source\PSoC5/cyfitter_cfg.c **** *
  44:.\Generated_Source\PSoC5/cyfitter_cfg.c **** *******************************************************************************/
  45:.\Generated_Source\PSoC5/cyfitter_cfg.c **** #if defined(__GNUC__) || defined(__ARMCC_VERSION)
  46:.\Generated_Source\PSoC5/cyfitter_cfg.c **** __attribute__ ((unused))
  47:.\Generated_Source\PSoC5/cyfitter_cfg.c **** #endif
  48:.\Generated_Source\PSoC5/cyfitter_cfg.c **** static void CyClockStartupError(uint8 errorCode)
  49:.\Generated_Source\PSoC5/cyfitter_cfg.c **** {
  31              		.loc 1 49 0
  32              		.cfi_startproc
  33              		@ args = 0, pretend = 0, frame = 8
  34              		@ frame_needed = 1, uses_anonymous_args = 0
  35              		@ link register save eliminated.
  36 0000 80B4     		push	{r7}
  37              	.LCFI0:
  38              		.cfi_def_cfa_offset 4
  39 0002 83B0     		sub	sp, sp, #12
  40              	.LCFI1:
  41              		.cfi_def_cfa_offset 16
  42 0004 00AF     		add	r7, sp, #0
  43              		.cfi_offset 7, -4
  44              	.LCFI2:
  45              		.cfi_def_cfa_register 7
  46 0006 0346     		mov	r3, r0
  47 0008 FB71     		strb	r3, [r7, #7]
  48              	.L2:
  50:.\Generated_Source\PSoC5/cyfitter_cfg.c ****     /* To remove the compiler warning if errorCode not used.                */
  51:.\Generated_Source\PSoC5/cyfitter_cfg.c ****     errorCode = errorCode;
  52:.\Generated_Source\PSoC5/cyfitter_cfg.c **** 
  53:.\Generated_Source\PSoC5/cyfitter_cfg.c ****     /* `#START CyClockStartupError` */
  54:.\Generated_Source\PSoC5/cyfitter_cfg.c **** 
  55:.\Generated_Source\PSoC5/cyfitter_cfg.c ****     /* If we have a clock startup error (bad MHz crystal, PLL lock, etc)    */
  56:.\Generated_Source\PSoC5/cyfitter_cfg.c ****     /* we will end up here to allow the customer to implement something to  */
  57:.\Generated_Source\PSoC5/cyfitter_cfg.c ****     /* deal with the clock condition.                                       */
  58:.\Generated_Source\PSoC5/cyfitter_cfg.c **** 
  59:.\Generated_Source\PSoC5/cyfitter_cfg.c ****     /* `#END` */
  60:.\Generated_Source\PSoC5/cyfitter_cfg.c **** 
  61:.\Generated_Source\PSoC5/cyfitter_cfg.c ****     /* If nothing else, stop here since the clocks have not started         */
  62:.\Generated_Source\PSoC5/cyfitter_cfg.c ****     /* correctly.                                                           */
ARM GAS  C:\Users\arh\AppData\Local\Temp\cc67iDyk.s 			page 3


  63:.\Generated_Source\PSoC5/cyfitter_cfg.c ****     while(1) {}
  49              		.loc 1 63 0
  50 000a FEE7     		b	.L2
  51              		.cfi_endproc
  52              	.LFE0:
  53              		.size	CyClockStartupError, .-CyClockStartupError
  54              		.section	.text.cymemzero8,"ax",%progbits
  55              		.align	2
  56              		.thumb
  57              		.thumb_func
  58              		.type	cymemzero8, %function
  59              	cymemzero8:
  60              	.LFB1:
  64:.\Generated_Source\PSoC5/cyfitter_cfg.c **** }
  65:.\Generated_Source\PSoC5/cyfitter_cfg.c **** 
  66:.\Generated_Source\PSoC5/cyfitter_cfg.c **** 
  67:.\Generated_Source\PSoC5/cyfitter_cfg.c **** #undef CYCODE
  68:.\Generated_Source\PSoC5/cyfitter_cfg.c **** #undef CYDATA
  69:.\Generated_Source\PSoC5/cyfitter_cfg.c **** #undef CYXDATA
  70:.\Generated_Source\PSoC5/cyfitter_cfg.c **** #undef CYFAR
  71:.\Generated_Source\PSoC5/cyfitter_cfg.c **** #if defined(__GNUC__) || defined(__ARMCC_VERSION)
  72:.\Generated_Source\PSoC5/cyfitter_cfg.c **** 	#define CYCODE
  73:.\Generated_Source\PSoC5/cyfitter_cfg.c **** 	#define CYDATA
  74:.\Generated_Source\PSoC5/cyfitter_cfg.c **** 	#define CYXDATA
  75:.\Generated_Source\PSoC5/cyfitter_cfg.c **** 	#define CYFAR
  76:.\Generated_Source\PSoC5/cyfitter_cfg.c **** 
  77:.\Generated_Source\PSoC5/cyfitter_cfg.c **** 	#define CYPACKED __attribute__ ((packed))
  78:.\Generated_Source\PSoC5/cyfitter_cfg.c **** 	#define CYALIGNED __attribute__ ((aligned))
  79:.\Generated_Source\PSoC5/cyfitter_cfg.c **** 	
  80:.\Generated_Source\PSoC5/cyfitter_cfg.c **** 	#if defined(__ARMCC_VERSION)
  81:.\Generated_Source\PSoC5/cyfitter_cfg.c **** 		#define CY_CFG_MEMORY_BARRIER() __memory_changed()
  82:.\Generated_Source\PSoC5/cyfitter_cfg.c **** 	#else
  83:.\Generated_Source\PSoC5/cyfitter_cfg.c **** 		#define CY_CFG_MEMORY_BARRIER() __sync_synchronize()
  84:.\Generated_Source\PSoC5/cyfitter_cfg.c **** 	#endif
  85:.\Generated_Source\PSoC5/cyfitter_cfg.c **** 	
  86:.\Generated_Source\PSoC5/cyfitter_cfg.c ****     /*******************************************************************************
  87:.\Generated_Source\PSoC5/cyfitter_cfg.c ****     * Function Name: cymemzero8
  88:.\Generated_Source\PSoC5/cyfitter_cfg.c ****     ********************************************************************************
  89:.\Generated_Source\PSoC5/cyfitter_cfg.c ****     * Summary:
  90:.\Generated_Source\PSoC5/cyfitter_cfg.c ****     *  This function is provided as a way to initialize a block of memory to zero
  91:.\Generated_Source\PSoC5/cyfitter_cfg.c ****     *  one byte at a time.  While this is a 32bit processor, some of the 
  92:.\Generated_Source\PSoC5/cyfitter_cfg.c ****     *  configuration registers are only 8bits wide.  This allows us to initialize
  93:.\Generated_Source\PSoC5/cyfitter_cfg.c ****     *  just the registers we care about.
  94:.\Generated_Source\PSoC5/cyfitter_cfg.c ****     *
  95:.\Generated_Source\PSoC5/cyfitter_cfg.c ****     * Parameters:  
  96:.\Generated_Source\PSoC5/cyfitter_cfg.c ****     *   addr  - The first address to start writing zero to.
  97:.\Generated_Source\PSoC5/cyfitter_cfg.c ****     *   count - The number of bytes to write 0 to.
  98:.\Generated_Source\PSoC5/cyfitter_cfg.c ****     *
  99:.\Generated_Source\PSoC5/cyfitter_cfg.c ****     * Return:
 100:.\Generated_Source\PSoC5/cyfitter_cfg.c ****     *   void
 101:.\Generated_Source\PSoC5/cyfitter_cfg.c ****     *
 102:.\Generated_Source\PSoC5/cyfitter_cfg.c ****     *******************************************************************************/
 103:.\Generated_Source\PSoC5/cyfitter_cfg.c ****     __attribute__ ((unused))
 104:.\Generated_Source\PSoC5/cyfitter_cfg.c ****     static void cymemzero8(void *addr, unsigned int count)
 105:.\Generated_Source\PSoC5/cyfitter_cfg.c ****     {
  61              		.loc 1 105 0
  62              		.cfi_startproc
ARM GAS  C:\Users\arh\AppData\Local\Temp\cc67iDyk.s 			page 4


  63              		@ args = 0, pretend = 0, frame = 16
  64              		@ frame_needed = 1, uses_anonymous_args = 0
  65              		@ link register save eliminated.
  66 0000 80B4     		push	{r7}
  67              	.LCFI3:
  68              		.cfi_def_cfa_offset 4
  69 0002 85B0     		sub	sp, sp, #20
  70              	.LCFI4:
  71              		.cfi_def_cfa_offset 24
  72 0004 00AF     		add	r7, sp, #0
  73              		.cfi_offset 7, -4
  74              	.LCFI5:
  75              		.cfi_def_cfa_register 7
  76 0006 7860     		str	r0, [r7, #4]
  77 0008 3960     		str	r1, [r7, #0]
 106:.\Generated_Source\PSoC5/cyfitter_cfg.c **** 	    volatile uint8 *addr8 = (uint8 *)addr;
  78              		.loc 1 106 0
  79 000a 7B68     		ldr	r3, [r7, #4]
  80 000c FB60     		str	r3, [r7, #12]
 107:.\Generated_Source\PSoC5/cyfitter_cfg.c **** 	    while (count--)
  81              		.loc 1 107 0
  82 000e 07E0     		b	.L5
  83              	.L6:
 108:.\Generated_Source\PSoC5/cyfitter_cfg.c **** 	    {
 109:.\Generated_Source\PSoC5/cyfitter_cfg.c **** 		    *addr8 = 0;
  84              		.loc 1 109 0
  85 0010 FB68     		ldr	r3, [r7, #12]
  86 0012 4FF00002 		mov	r2, #0
  87 0016 1A70     		strb	r2, [r3, #0]
 110:.\Generated_Source\PSoC5/cyfitter_cfg.c **** 		    addr8++;
  88              		.loc 1 110 0
  89 0018 FB68     		ldr	r3, [r7, #12]
  90 001a 03F10103 		add	r3, r3, #1
  91 001e FB60     		str	r3, [r7, #12]
  92              	.L5:
  93              		.loc 1 107 0
  94 0020 3B68     		ldr	r3, [r7, #0]
  95 0022 002B     		cmp	r3, #0
  96 0024 0CBF     		ite	eq
  97 0026 0023     		moveq	r3, #0
  98 0028 0123     		movne	r3, #1
  99 002a DBB2     		uxtb	r3, r3
 100 002c 3A68     		ldr	r2, [r7, #0]
 101 002e 02F1FF32 		add	r2, r2, #-1
 102 0032 3A60     		str	r2, [r7, #0]
 103 0034 002B     		cmp	r3, #0
 104 0036 EBD1     		bne	.L6
 111:.\Generated_Source\PSoC5/cyfitter_cfg.c **** 	    }
 112:.\Generated_Source\PSoC5/cyfitter_cfg.c ****     }
 105              		.loc 1 112 0
 106 0038 07F11407 		add	r7, r7, #20
 107 003c BD46     		mov	sp, r7
 108 003e 80BC     		pop	{r7}
 109 0040 7047     		bx	lr
 110              		.cfi_endproc
 111              	.LFE1:
 112              		.size	cymemzero8, .-cymemzero8
ARM GAS  C:\Users\arh\AppData\Local\Temp\cc67iDyk.s 			page 5


 113 0042 00BF     		.section	.text.cymemcpy8,"ax",%progbits
 114              		.align	2
 115              		.thumb
 116              		.thumb_func
 117              		.type	cymemcpy8, %function
 118              	cymemcpy8:
 119              	.LFB2:
 113:.\Generated_Source\PSoC5/cyfitter_cfg.c **** 
 114:.\Generated_Source\PSoC5/cyfitter_cfg.c ****     /*******************************************************************************
 115:.\Generated_Source\PSoC5/cyfitter_cfg.c ****     * Function Name: cymemcpy8
 116:.\Generated_Source\PSoC5/cyfitter_cfg.c ****     ********************************************************************************
 117:.\Generated_Source\PSoC5/cyfitter_cfg.c ****     * Summary:
 118:.\Generated_Source\PSoC5/cyfitter_cfg.c ****     *  This function is provided as a way to copy data from one location to another
 119:.\Generated_Source\PSoC5/cyfitter_cfg.c ****     *  one byte at a time.  While this is a 32bit processor, some of the 
 120:.\Generated_Source\PSoC5/cyfitter_cfg.c ****     *  configuration registers are only 8bits wide.  This allows us to initialize
 121:.\Generated_Source\PSoC5/cyfitter_cfg.c ****     *  just the registers we care about.
 122:.\Generated_Source\PSoC5/cyfitter_cfg.c ****     *
 123:.\Generated_Source\PSoC5/cyfitter_cfg.c ****     * Parameters:  
 124:.\Generated_Source\PSoC5/cyfitter_cfg.c ****     *   dest  - The destination address to copy data to.
 125:.\Generated_Source\PSoC5/cyfitter_cfg.c ****     *   src   - The source address to copy data from.
 126:.\Generated_Source\PSoC5/cyfitter_cfg.c ****     *   count - The number of bytes to copy from 'src' to 'dest'.
 127:.\Generated_Source\PSoC5/cyfitter_cfg.c ****     *
 128:.\Generated_Source\PSoC5/cyfitter_cfg.c ****     * Return:
 129:.\Generated_Source\PSoC5/cyfitter_cfg.c ****     *   void
 130:.\Generated_Source\PSoC5/cyfitter_cfg.c ****     *
 131:.\Generated_Source\PSoC5/cyfitter_cfg.c ****     *******************************************************************************/
 132:.\Generated_Source\PSoC5/cyfitter_cfg.c ****     __attribute__ ((unused))
 133:.\Generated_Source\PSoC5/cyfitter_cfg.c ****     static void cymemcpy8(void *dest, const void *src, unsigned int count)
 134:.\Generated_Source\PSoC5/cyfitter_cfg.c ****     {
 120              		.loc 1 134 0
 121              		.cfi_startproc
 122              		@ args = 0, pretend = 0, frame = 24
 123              		@ frame_needed = 1, uses_anonymous_args = 0
 124              		@ link register save eliminated.
 125 0000 80B4     		push	{r7}
 126              	.LCFI6:
 127              		.cfi_def_cfa_offset 4
 128 0002 87B0     		sub	sp, sp, #28
 129              	.LCFI7:
 130              		.cfi_def_cfa_offset 32
 131 0004 00AF     		add	r7, sp, #0
 132              		.cfi_offset 7, -4
 133              	.LCFI8:
 134              		.cfi_def_cfa_register 7
 135 0006 F860     		str	r0, [r7, #12]
 136 0008 B960     		str	r1, [r7, #8]
 137 000a 7A60     		str	r2, [r7, #4]
 135:.\Generated_Source\PSoC5/cyfitter_cfg.c **** 	    volatile uint8 *dest8 = (uint8 *)dest;
 138              		.loc 1 135 0
 139 000c FB68     		ldr	r3, [r7, #12]
 140 000e 3B61     		str	r3, [r7, #16]
 136:.\Generated_Source\PSoC5/cyfitter_cfg.c **** 	    const uint8 *src8 = (const uint8 *)src;
 141              		.loc 1 136 0
 142 0010 BB68     		ldr	r3, [r7, #8]
 143 0012 7B61     		str	r3, [r7, #20]
 137:.\Generated_Source\PSoC5/cyfitter_cfg.c **** 
 138:.\Generated_Source\PSoC5/cyfitter_cfg.c **** 	    while (count--)
ARM GAS  C:\Users\arh\AppData\Local\Temp\cc67iDyk.s 			page 6


 144              		.loc 1 138 0
 145 0014 0BE0     		b	.L9
 146              	.L10:
 139:.\Generated_Source\PSoC5/cyfitter_cfg.c **** 	    {
 140:.\Generated_Source\PSoC5/cyfitter_cfg.c **** 		    *dest8 = *src8;
 147              		.loc 1 140 0
 148 0016 7B69     		ldr	r3, [r7, #20]
 149 0018 1A78     		ldrb	r2, [r3, #0]	@ zero_extendqisi2
 150 001a 3B69     		ldr	r3, [r7, #16]
 151 001c 1A70     		strb	r2, [r3, #0]
 141:.\Generated_Source\PSoC5/cyfitter_cfg.c **** 		    dest8++;
 152              		.loc 1 141 0
 153 001e 3B69     		ldr	r3, [r7, #16]
 154 0020 03F10103 		add	r3, r3, #1
 155 0024 3B61     		str	r3, [r7, #16]
 142:.\Generated_Source\PSoC5/cyfitter_cfg.c **** 		    src8++;
 156              		.loc 1 142 0
 157 0026 7B69     		ldr	r3, [r7, #20]
 158 0028 03F10103 		add	r3, r3, #1
 159 002c 7B61     		str	r3, [r7, #20]
 160              	.L9:
 161              		.loc 1 138 0
 162 002e 7B68     		ldr	r3, [r7, #4]
 163 0030 002B     		cmp	r3, #0
 164 0032 0CBF     		ite	eq
 165 0034 0023     		moveq	r3, #0
 166 0036 0123     		movne	r3, #1
 167 0038 DBB2     		uxtb	r3, r3
 168 003a 7A68     		ldr	r2, [r7, #4]
 169 003c 02F1FF32 		add	r2, r2, #-1
 170 0040 7A60     		str	r2, [r7, #4]
 171 0042 002B     		cmp	r3, #0
 172 0044 E7D1     		bne	.L10
 143:.\Generated_Source\PSoC5/cyfitter_cfg.c **** 	    }
 144:.\Generated_Source\PSoC5/cyfitter_cfg.c ****     }
 173              		.loc 1 144 0
 174 0046 07F11C07 		add	r7, r7, #28
 175 004a BD46     		mov	sp, r7
 176 004c 80BC     		pop	{r7}
 177 004e 7047     		bx	lr
 178              		.cfi_endproc
 179              	.LFE2:
 180              		.size	cymemcpy8, .-cymemcpy8
 181              		.section	.rodata
 182              		.align	2
 183              		.type	cfg_memset_list, %object
 184              		.size	cfg_memset_list, 42
 185              	cfg_memset_list:
 186 0000 C8490040 		.word	1073760712
 187 0004 1400     		.short	20
 188 0006 30510040 		.4byte	1073762608
 189 000a 4000     		.short	64
 190 000c F0510040 		.word	1073762800
 191 0010 1000     		.short	16
 192 0012 00000140 		.4byte	1073807360
 193 0016 0010     		.short	4096
 194 0018 00140140 		.word	1073812480
ARM GAS  C:\Users\arh\AppData\Local\Temp\cc67iDyk.s 			page 7


 195 001c 0008     		.short	2048
 196 001e 00400140 		.4byte	1073823744
 197 0022 000A     		.short	2560
 198 0024 004C0140 		.word	1073826816
 199 0028 0002     		.short	512
 200              		.section	.text.cfg_write_bytes32,"ax",%progbits
 201              		.align	2
 202              		.thumb
 203              		.thumb_func
 204              		.type	cfg_write_bytes32, %function
 205              	cfg_write_bytes32:
 206              	.LFB3:
 145:.\Generated_Source\PSoC5/cyfitter_cfg.c **** 
 146:.\Generated_Source\PSoC5/cyfitter_cfg.c ****     #define CYMEMZERO8(a,c) cymemzero8((a),(c))
 147:.\Generated_Source\PSoC5/cyfitter_cfg.c ****     #define CYCONFIGCPY8(d,s,c) cymemcpy8((d),(s),(c))
 148:.\Generated_Source\PSoC5/cyfitter_cfg.c ****     #define CYCONFIGCPYCODE8(d,s,c) cymemcpy8((d),(s),(c))
 149:.\Generated_Source\PSoC5/cyfitter_cfg.c **** 	
 150:.\Generated_Source\PSoC5/cyfitter_cfg.c **** 	#define CYMEMZERO(a,c) memset((a),0,(c))
 151:.\Generated_Source\PSoC5/cyfitter_cfg.c **** 	#define CYCONFIGCPY(d,s,c) memcpy((d),(s),(c))
 152:.\Generated_Source\PSoC5/cyfitter_cfg.c **** 	#define CYCONFIGCPYCODE(d,s,c) memcpy((d),(s),(c))
 153:.\Generated_Source\PSoC5/cyfitter_cfg.c **** #else
 154:.\Generated_Source\PSoC5/cyfitter_cfg.c **** 	#error Unsupported toolchain
 155:.\Generated_Source\PSoC5/cyfitter_cfg.c **** #endif
 156:.\Generated_Source\PSoC5/cyfitter_cfg.c **** 
 157:.\Generated_Source\PSoC5/cyfitter_cfg.c **** /* Defines the layout and meaning of each entry in the cfg_memset_list used for clearing registers 
 158:.\Generated_Source\PSoC5/cyfitter_cfg.c **** typedef struct {
 159:.\Generated_Source\PSoC5/cyfitter_cfg.c **** 	void CYFAR *address;
 160:.\Generated_Source\PSoC5/cyfitter_cfg.c **** 	uint16 size;
 161:.\Generated_Source\PSoC5/cyfitter_cfg.c **** } CYPACKED cfg_memset_t;
 162:.\Generated_Source\PSoC5/cyfitter_cfg.c **** 
 163:.\Generated_Source\PSoC5/cyfitter_cfg.c **** /* Defines the layout and meaning of each entry in the cfg_memcpy_list used for initializing regist
 164:.\Generated_Source\PSoC5/cyfitter_cfg.c **** typedef struct {
 165:.\Generated_Source\PSoC5/cyfitter_cfg.c **** 	void CYFAR *dest;
 166:.\Generated_Source\PSoC5/cyfitter_cfg.c **** 	const void CYFAR *src;
 167:.\Generated_Source\PSoC5/cyfitter_cfg.c **** 	uint16 size;
 168:.\Generated_Source\PSoC5/cyfitter_cfg.c **** } CYPACKED cfg_memcpy_t;
 169:.\Generated_Source\PSoC5/cyfitter_cfg.c **** 
 170:.\Generated_Source\PSoC5/cyfitter_cfg.c **** /* Contains the regions of memory that must be set to 0 during configuration */
 171:.\Generated_Source\PSoC5/cyfitter_cfg.c **** #define CFG_MEMSET_COUNT (sizeof(cfg_memset_list)/sizeof(*cfg_memset_list))
 172:.\Generated_Source\PSoC5/cyfitter_cfg.c **** static const cfg_memset_t CYCODE cfg_memset_list [] = {
 173:.\Generated_Source\PSoC5/cyfitter_cfg.c **** 	/* address, size */
 174:.\Generated_Source\PSoC5/cyfitter_cfg.c **** 	{(void CYFAR *)(CYREG_I2C_XCFG), 20},
 175:.\Generated_Source\PSoC5/cyfitter_cfg.c **** 	{(void CYFAR *)(CYREG_PRT3_DR), 64},
 176:.\Generated_Source\PSoC5/cyfitter_cfg.c **** 	{(void CYFAR *)(CYREG_PRT15_DR), 16},
 177:.\Generated_Source\PSoC5/cyfitter_cfg.c **** 	{(void CYFAR *)(CYDEV_UCFG_B0_P0_U0_BASE), 4096},
 178:.\Generated_Source\PSoC5/cyfitter_cfg.c **** 	{(void CYFAR *)(CYDEV_UCFG_B1_P2_U0_BASE), 2048},
 179:.\Generated_Source\PSoC5/cyfitter_cfg.c **** 	{(void CYFAR *)(CYDEV_UCFG_DSI0_BASE), 2560},
 180:.\Generated_Source\PSoC5/cyfitter_cfg.c **** 	{(void CYFAR *)(CYDEV_UCFG_DSI12_BASE), 512},
 181:.\Generated_Source\PSoC5/cyfitter_cfg.c **** };
 182:.\Generated_Source\PSoC5/cyfitter_cfg.c **** 
 183:.\Generated_Source\PSoC5/cyfitter_cfg.c **** #define CY_CFG_BASE_ADDR_COUNT 23
 184:.\Generated_Source\PSoC5/cyfitter_cfg.c **** typedef struct
 185:.\Generated_Source\PSoC5/cyfitter_cfg.c **** {
 186:.\Generated_Source\PSoC5/cyfitter_cfg.c **** 	uint8 offset;
 187:.\Generated_Source\PSoC5/cyfitter_cfg.c **** 	uint8 value;
 188:.\Generated_Source\PSoC5/cyfitter_cfg.c **** } CYPACKED cy_cfg_addrvalue_t;
 189:.\Generated_Source\PSoC5/cyfitter_cfg.c **** 
ARM GAS  C:\Users\arh\AppData\Local\Temp\cc67iDyk.s 			page 8


 190:.\Generated_Source\PSoC5/cyfitter_cfg.c **** #define cy_cfg_addr_table ((const uint32 CYFAR *)0x48000000)
 191:.\Generated_Source\PSoC5/cyfitter_cfg.c **** #define cy_cfg_data_table ((const cy_cfg_addrvalue_t CYFAR *)0x4800005C)
 192:.\Generated_Source\PSoC5/cyfitter_cfg.c **** 
 193:.\Generated_Source\PSoC5/cyfitter_cfg.c **** /* IOPINS0_0 Address: CYREG_PRT0_DM0 Size (bytes): 8 */
 194:.\Generated_Source\PSoC5/cyfitter_cfg.c **** #define BS_IOPINS0_0_VAL ((const uint8 CYFAR *)0x480000F0)
 195:.\Generated_Source\PSoC5/cyfitter_cfg.c **** 
 196:.\Generated_Source\PSoC5/cyfitter_cfg.c **** /* IOPINS0_1 Address: CYREG_PRT1_DM0 Size (bytes): 8 */
 197:.\Generated_Source\PSoC5/cyfitter_cfg.c **** #define BS_IOPINS0_1_VAL ((const uint8 CYFAR *)0x480000F8)
 198:.\Generated_Source\PSoC5/cyfitter_cfg.c **** 
 199:.\Generated_Source\PSoC5/cyfitter_cfg.c **** /* IOPINS0_7 Address: CYREG_PRT12_DR Size (bytes): 10 */
 200:.\Generated_Source\PSoC5/cyfitter_cfg.c **** #define BS_IOPINS0_7_VAL ((const uint8 CYFAR *)0x48000100)
 201:.\Generated_Source\PSoC5/cyfitter_cfg.c **** 
 202:.\Generated_Source\PSoC5/cyfitter_cfg.c **** /* IOPINS0_2 Address: CYREG_PRT2_DM0 Size (bytes): 8 */
 203:.\Generated_Source\PSoC5/cyfitter_cfg.c **** #define BS_IOPINS0_2_VAL ((const uint8 CYFAR *)0x4800010C)
 204:.\Generated_Source\PSoC5/cyfitter_cfg.c **** 
 205:.\Generated_Source\PSoC5/cyfitter_cfg.c **** /* IOPORT_7 Address: CYDEV_PRTDSI_PRT12_BASE Size (bytes): 6 */
 206:.\Generated_Source\PSoC5/cyfitter_cfg.c **** #define BS_IOPORT_7_VAL ((const uint8 CYFAR *)0x48000114)
 207:.\Generated_Source\PSoC5/cyfitter_cfg.c **** 
 208:.\Generated_Source\PSoC5/cyfitter_cfg.c **** /* CYDEV_CLKDIST_ACFG0_CFG0 Address: CYREG_CLKDIST_ACFG0_CFG0 Size (bytes): 4 */
 209:.\Generated_Source\PSoC5/cyfitter_cfg.c **** #define BS_CYDEV_CLKDIST_ACFG0_CFG0_VAL ((const uint8 CYFAR *)0x4800011C)
 210:.\Generated_Source\PSoC5/cyfitter_cfg.c **** 
 211:.\Generated_Source\PSoC5/cyfitter_cfg.c **** 
 212:.\Generated_Source\PSoC5/cyfitter_cfg.c **** /*******************************************************************************
 213:.\Generated_Source\PSoC5/cyfitter_cfg.c **** * Function Name: cfg_write_bytes32
 214:.\Generated_Source\PSoC5/cyfitter_cfg.c **** ********************************************************************************
 215:.\Generated_Source\PSoC5/cyfitter_cfg.c **** * Summary:
 216:.\Generated_Source\PSoC5/cyfitter_cfg.c **** *  This function is used for setting up the chip configuration areas that 
 217:.\Generated_Source\PSoC5/cyfitter_cfg.c **** *  contain relativly sparse data.
 218:.\Generated_Source\PSoC5/cyfitter_cfg.c **** *
 219:.\Generated_Source\PSoC5/cyfitter_cfg.c **** * Parameters:  
 220:.\Generated_Source\PSoC5/cyfitter_cfg.c **** *   void
 221:.\Generated_Source\PSoC5/cyfitter_cfg.c **** *
 222:.\Generated_Source\PSoC5/cyfitter_cfg.c **** * Return:
 223:.\Generated_Source\PSoC5/cyfitter_cfg.c **** *   void
 224:.\Generated_Source\PSoC5/cyfitter_cfg.c **** *
 225:.\Generated_Source\PSoC5/cyfitter_cfg.c **** *******************************************************************************/
 226:.\Generated_Source\PSoC5/cyfitter_cfg.c **** /* For 32-bit little-endian architectures */
 227:.\Generated_Source\PSoC5/cyfitter_cfg.c **** static void cfg_write_bytes32(void)
 228:.\Generated_Source\PSoC5/cyfitter_cfg.c **** {
 207              		.loc 1 228 0
 208              		.cfi_startproc
 209              		@ args = 0, pretend = 0, frame = 16
 210              		@ frame_needed = 1, uses_anonymous_args = 0
 211              		@ link register save eliminated.
 212 0000 80B4     		push	{r7}
 213              	.LCFI9:
 214              		.cfi_def_cfa_offset 4
 215 0002 85B0     		sub	sp, sp, #20
 216              	.LCFI10:
 217              		.cfi_def_cfa_offset 24
 218 0004 00AF     		add	r7, sp, #0
 219              		.cfi_offset 7, -4
 220              	.LCFI11:
 221              		.cfi_def_cfa_register 7
 229:.\Generated_Source\PSoC5/cyfitter_cfg.c **** 	unsigned int i, j = 0;
 222              		.loc 1 229 0
 223 0006 4FF00003 		mov	r3, #0
ARM GAS  C:\Users\arh\AppData\Local\Temp\cc67iDyk.s 			page 9


 224 000a 7B60     		str	r3, [r7, #4]
 230:.\Generated_Source\PSoC5/cyfitter_cfg.c **** 	for (i = 0; i < CY_CFG_BASE_ADDR_COUNT; i++)
 225              		.loc 1 230 0
 226 000c 4FF00003 		mov	r3, #0
 227 0010 3B60     		str	r3, [r7, #0]
 228 0012 36E0     		b	.L13
 229              	.L16:
 230              	.LBB2:
 231:.\Generated_Source\PSoC5/cyfitter_cfg.c **** 	{
 232:.\Generated_Source\PSoC5/cyfitter_cfg.c **** 		uint32 baseAddr = cy_cfg_addr_table[i];
 231              		.loc 1 232 0
 232 0014 3B68     		ldr	r3, [r7, #0]
 233 0016 4FEA8303 		lsl	r3, r3, #2
 234 001a 03F19043 		add	r3, r3, #1207959552
 235 001e 1B68     		ldr	r3, [r3, #0]
 236 0020 BB60     		str	r3, [r7, #8]
 233:.\Generated_Source\PSoC5/cyfitter_cfg.c **** 		uint8 count = baseAddr & 0xFFu;
 237              		.loc 1 233 0
 238 0022 BB68     		ldr	r3, [r7, #8]
 239 0024 FB73     		strb	r3, [r7, #15]
 234:.\Generated_Source\PSoC5/cyfitter_cfg.c **** 		baseAddr &= 0xFFFFFF00u;
 240              		.loc 1 234 0
 241 0026 BB68     		ldr	r3, [r7, #8]
 242 0028 23F0FF03 		bic	r3, r3, #255
 243 002c BB60     		str	r3, [r7, #8]
 235:.\Generated_Source\PSoC5/cyfitter_cfg.c **** 		while (count--)
 244              		.loc 1 235 0
 245 002e 18E0     		b	.L14
 246              	.L15:
 236:.\Generated_Source\PSoC5/cyfitter_cfg.c **** 		{
 237:.\Generated_Source\PSoC5/cyfitter_cfg.c **** 			CY_SET_XTND_REG8((void CYFAR *)(baseAddr + cy_cfg_data_table[j].offset), cy_cfg_data_table[j].va
 247              		.loc 1 237 0
 248 0030 7B68     		ldr	r3, [r7, #4]
 249 0032 4FEA4303 		lsl	r3, r3, #1
 250 0036 03F19043 		add	r3, r3, #1207959552
 251 003a 03F15C03 		add	r3, r3, #92
 252 003e 1B78     		ldrb	r3, [r3, #0]	@ zero_extendqisi2
 253 0040 1A46     		mov	r2, r3
 254 0042 BB68     		ldr	r3, [r7, #8]
 255 0044 1344     		add	r3, r2, r3
 256 0046 1A46     		mov	r2, r3
 257 0048 7B68     		ldr	r3, [r7, #4]
 258 004a 4FEA4303 		lsl	r3, r3, #1
 259 004e 03F19043 		add	r3, r3, #1207959552
 260 0052 03F15C03 		add	r3, r3, #92
 261 0056 5B78     		ldrb	r3, [r3, #1]	@ zero_extendqisi2
 262 0058 1370     		strb	r3, [r2, #0]
 238:.\Generated_Source\PSoC5/cyfitter_cfg.c **** 			j++;
 263              		.loc 1 238 0
 264 005a 7B68     		ldr	r3, [r7, #4]
 265 005c 03F10103 		add	r3, r3, #1
 266 0060 7B60     		str	r3, [r7, #4]
 267              	.L14:
 268              		.loc 1 235 0
 269 0062 FB7B     		ldrb	r3, [r7, #15]	@ zero_extendqisi2
 270 0064 002B     		cmp	r3, #0
 271 0066 0CBF     		ite	eq
ARM GAS  C:\Users\arh\AppData\Local\Temp\cc67iDyk.s 			page 10


 272 0068 0023     		moveq	r3, #0
 273 006a 0123     		movne	r3, #1
 274 006c DBB2     		uxtb	r3, r3
 275 006e FA7B     		ldrb	r2, [r7, #15]
 276 0070 02F1FF32 		add	r2, r2, #-1
 277 0074 FA73     		strb	r2, [r7, #15]
 278 0076 002B     		cmp	r3, #0
 279 0078 DAD1     		bne	.L15
 280              	.LBE2:
 281              		.loc 1 230 0
 282 007a 3B68     		ldr	r3, [r7, #0]
 283 007c 03F10103 		add	r3, r3, #1
 284 0080 3B60     		str	r3, [r7, #0]
 285              	.L13:
 286 0082 3B68     		ldr	r3, [r7, #0]
 287 0084 162B     		cmp	r3, #22
 288 0086 C5D9     		bls	.L16
 239:.\Generated_Source\PSoC5/cyfitter_cfg.c **** 		}
 240:.\Generated_Source\PSoC5/cyfitter_cfg.c **** 	}
 241:.\Generated_Source\PSoC5/cyfitter_cfg.c **** }
 289              		.loc 1 241 0
 290 0088 07F11407 		add	r7, r7, #20
 291 008c BD46     		mov	sp, r7
 292 008e 80BC     		pop	{r7}
 293 0090 7047     		bx	lr
 294              		.cfi_endproc
 295              	.LFE3:
 296              		.size	cfg_write_bytes32, .-cfg_write_bytes32
 297 0092 00BF     		.section	.text.ClockSetup,"ax",%progbits
 298              		.align	2
 299              		.thumb
 300              		.thumb_func
 301              		.type	ClockSetup, %function
 302              	ClockSetup:
 303              	.LFB4:
 242:.\Generated_Source\PSoC5/cyfitter_cfg.c **** 
 243:.\Generated_Source\PSoC5/cyfitter_cfg.c **** /*******************************************************************************
 244:.\Generated_Source\PSoC5/cyfitter_cfg.c **** * Function Name: ClockSetup
 245:.\Generated_Source\PSoC5/cyfitter_cfg.c **** ********************************************************************************
 246:.\Generated_Source\PSoC5/cyfitter_cfg.c **** *
 247:.\Generated_Source\PSoC5/cyfitter_cfg.c **** * Summary:
 248:.\Generated_Source\PSoC5/cyfitter_cfg.c **** *  Performs the initialization of all of the clocks in the device based on the
 249:.\Generated_Source\PSoC5/cyfitter_cfg.c **** *  settings in the Clock tab of the DWR.  This includes enabling the requested
 250:.\Generated_Source\PSoC5/cyfitter_cfg.c **** *  clocks and setting the necessary dividers to produce the desired frequency. 
 251:.\Generated_Source\PSoC5/cyfitter_cfg.c **** *
 252:.\Generated_Source\PSoC5/cyfitter_cfg.c **** * Parameters:
 253:.\Generated_Source\PSoC5/cyfitter_cfg.c **** *  void
 254:.\Generated_Source\PSoC5/cyfitter_cfg.c **** *
 255:.\Generated_Source\PSoC5/cyfitter_cfg.c **** * Return:
 256:.\Generated_Source\PSoC5/cyfitter_cfg.c **** *  void
 257:.\Generated_Source\PSoC5/cyfitter_cfg.c **** *
 258:.\Generated_Source\PSoC5/cyfitter_cfg.c **** *******************************************************************************/
 259:.\Generated_Source\PSoC5/cyfitter_cfg.c **** static void ClockSetup(void)
 260:.\Generated_Source\PSoC5/cyfitter_cfg.c **** {
 304              		.loc 1 260 0
 305              		.cfi_startproc
 306              		@ args = 0, pretend = 0, frame = 16
ARM GAS  C:\Users\arh\AppData\Local\Temp\cc67iDyk.s 			page 11


 307              		@ frame_needed = 1, uses_anonymous_args = 0
 308 0000 80B5     		push	{r7, lr}
 309              	.LCFI12:
 310              		.cfi_def_cfa_offset 8
 311 0002 84B0     		sub	sp, sp, #16
 312              	.LCFI13:
 313              		.cfi_def_cfa_offset 24
 314 0004 00AF     		add	r7, sp, #0
 315              		.cfi_offset 14, -4
 316              		.cfi_offset 7, -8
 317              	.LCFI14:
 318              		.cfi_def_cfa_register 7
 261:.\Generated_Source\PSoC5/cyfitter_cfg.c **** 	reg32  timeout;
 262:.\Generated_Source\PSoC5/cyfitter_cfg.c **** 	reg32* timeout_p = &timeout;
 319              		.loc 1 262 0
 320 0006 07F10803 		add	r3, r7, #8
 321 000a FB60     		str	r3, [r7, #12]
 263:.\Generated_Source\PSoC5/cyfitter_cfg.c **** 	reg8   pllLock;
 264:.\Generated_Source\PSoC5/cyfitter_cfg.c **** 
 265:.\Generated_Source\PSoC5/cyfitter_cfg.c **** 
 266:.\Generated_Source\PSoC5/cyfitter_cfg.c **** 	/* Configure Digital Clocks based on settings from Clock DWR */
 267:.\Generated_Source\PSoC5/cyfitter_cfg.c **** 	CY_SET_XTND_REG24((void CYFAR *)(CYREG_CLKDIST_DCFG0_CFG0), 0x180001);
 322              		.loc 1 267 0
 323 000c 44F28000 		movw	r0, #:lower16:1073758336
 324 0010 C4F20000 		movt	r0, #:upper16:1073758336
 325 0014 40F20101 		movw	r1, #:lower16:1572865
 326 0018 C0F21801 		movt	r1, #:upper16:1572865
 327 001c FFF7FEFF 		bl	CySetReg24
 268:.\Generated_Source\PSoC5/cyfitter_cfg.c **** 
 269:.\Generated_Source\PSoC5/cyfitter_cfg.c **** 	/* Configure Analog Clocks based on settings from Clock DWR */
 270:.\Generated_Source\PSoC5/cyfitter_cfg.c **** 	CYCONFIGCPY((void CYFAR *)(CYREG_CLKDIST_ACFG0_CFG0), (void CYFAR *)(BS_CYDEV_CLKDIST_ACFG0_CFG0_V
 328              		.loc 1 270 0
 329 0020 44F20010 		movw	r0, #:lower16:1073758464
 330 0024 C4F20000 		movt	r0, #:upper16:1073758464
 331 0028 40F21C11 		movw	r1, #:lower16:1207959836
 332 002c C4F60001 		movt	r1, #:upper16:1207959836
 333 0030 4FF00402 		mov	r2, #4
 334 0034 FFF7FEFF 		bl	memcpy
 271:.\Generated_Source\PSoC5/cyfitter_cfg.c **** 
 272:.\Generated_Source\PSoC5/cyfitter_cfg.c **** 	/* Configure ILO based on settings from Clock DWR */
 273:.\Generated_Source\PSoC5/cyfitter_cfg.c **** 	CY_SET_XTND_REG8((void CYFAR *)(CYREG_SLOWCLK_ILO_CR0), 0x02);
 335              		.loc 1 273 0
 336 0038 44F20033 		movw	r3, #:lower16:1073758976
 337 003c C4F20003 		movt	r3, #:upper16:1073758976
 338 0040 4FF00202 		mov	r2, #2
 339 0044 1A70     		strb	r2, [r3, #0]
 274:.\Generated_Source\PSoC5/cyfitter_cfg.c **** 	CY_SET_XTND_REG8((void CYFAR *)(CYREG_CLKDIST_CR), 0x08);
 340              		.loc 1 274 0
 341 0046 44F20003 		movw	r3, #:lower16:1073758208
 342 004a C4F20003 		movt	r3, #:upper16:1073758208
 343 004e 4FF00802 		mov	r2, #8
 344 0052 1A70     		strb	r2, [r3, #0]
 275:.\Generated_Source\PSoC5/cyfitter_cfg.c **** 
 276:.\Generated_Source\PSoC5/cyfitter_cfg.c **** 	/* Configure IMO based on settings from Clock DWR */
 277:.\Generated_Source\PSoC5/cyfitter_cfg.c **** 	CY_SET_XTND_REG8((void CYFAR *)(CYREG_FASTCLK_IMO_CR), 0x03);
 345              		.loc 1 277 0
 346 0054 44F20023 		movw	r3, #:lower16:1073758720
ARM GAS  C:\Users\arh\AppData\Local\Temp\cc67iDyk.s 			page 12


 347 0058 C4F20003 		movt	r3, #:upper16:1073758720
 348 005c 4FF00302 		mov	r2, #3
 349 0060 1A70     		strb	r2, [r3, #0]
 278:.\Generated_Source\PSoC5/cyfitter_cfg.c **** 	CY_SET_XTND_REG8((void CYFAR *)(CYREG_IMO_TR1), (CY_GET_XTND_REG8(CYREG_FLSHID_CUST_TABLES_IMO_3MH
 350              		.loc 1 278 0
 351 0062 44F2A163 		movw	r3, #:lower16:1073759905
 352 0066 C4F20003 		movt	r3, #:upper16:1073759905
 353 006a 40F20812 		movw	r2, #:lower16:1224737032
 354 006e C4F60012 		movt	r2, #:upper16:1224737032
 355 0072 1278     		ldrb	r2, [r2, #0]
 356 0074 D2B2     		uxtb	r2, r2
 357 0076 1A70     		strb	r2, [r3, #0]
 279:.\Generated_Source\PSoC5/cyfitter_cfg.c **** 
 280:.\Generated_Source\PSoC5/cyfitter_cfg.c **** 	/* Configure PLL based on settings from Clock DWR */
 281:.\Generated_Source\PSoC5/cyfitter_cfg.c **** 	CY_SET_XTND_REG16((void CYFAR *)(CYREG_FASTCLK_PLL_P), 0x0008);
 358              		.loc 1 281 0
 359 0078 44F22223 		movw	r3, #:lower16:1073758754
 360 007c C4F20003 		movt	r3, #:upper16:1073758754
 361 0080 4FF00802 		mov	r2, #8
 362 0084 1A80     		strh	r2, [r3, #0]	@ movhi
 282:.\Generated_Source\PSoC5/cyfitter_cfg.c **** 	CY_SET_XTND_REG16((void CYFAR *)(CYREG_FASTCLK_PLL_CFG0), 0x1051);
 363              		.loc 1 282 0
 364 0086 44F22023 		movw	r3, #:lower16:1073758752
 365 008a C4F20003 		movt	r3, #:upper16:1073758752
 366 008e 41F25102 		movw	r2, #4177
 367 0092 1A80     		strh	r2, [r3, #0]	@ movhi
 283:.\Generated_Source\PSoC5/cyfitter_cfg.c **** 	/* Wait up to 250us for the PLL to lock */
 284:.\Generated_Source\PSoC5/cyfitter_cfg.c **** 	pllLock = 0;
 368              		.loc 1 284 0
 369 0094 4FF00003 		mov	r3, #0
 370 0098 FB71     		strb	r3, [r7, #7]
 285:.\Generated_Source\PSoC5/cyfitter_cfg.c **** 	for (timeout = 250 / 10; *timeout_p && (pllLock != 0x03u); timeout--) { 
 371              		.loc 1 285 0
 372 009a 4FF01903 		mov	r3, #25
 373 009e BB60     		str	r3, [r7, #8]
 374 00a0 1AE0     		b	.L19
 375              	.L21:
 286:.\Generated_Source\PSoC5/cyfitter_cfg.c **** 		pllLock = 0x03u & ((pllLock << 1) | ((CY_GET_XTND_REG8(CYREG_FASTCLK_PLL_SR) & 0x01u) >> 0));
 376              		.loc 1 286 0
 377 00a2 FB79     		ldrb	r3, [r7, #7]
 378 00a4 DBB2     		uxtb	r3, r3
 379 00a6 4FEA4303 		lsl	r3, r3, #1
 380 00aa DAB2     		uxtb	r2, r3
 381 00ac 44F22523 		movw	r3, #:lower16:1073758757
 382 00b0 C4F20003 		movt	r3, #:upper16:1073758757
 383 00b4 1B78     		ldrb	r3, [r3, #0]
 384 00b6 DBB2     		uxtb	r3, r3
 385 00b8 03F00103 		and	r3, r3, #1
 386 00bc 42EA0303 		orr	r3, r2, r3
 387 00c0 DBB2     		uxtb	r3, r3
 388 00c2 03F00303 		and	r3, r3, #3
 389 00c6 FB71     		strb	r3, [r7, #7]
 287:.\Generated_Source\PSoC5/cyfitter_cfg.c **** 		CyDelayCycles(10 * 12); /* Delay 10us based on 12MHz clock */
 390              		.loc 1 287 0
 391 00c8 4FF07800 		mov	r0, #120
 392 00cc FFF7FEFF 		bl	CyDelayCycles
 393              		.loc 1 285 0
ARM GAS  C:\Users\arh\AppData\Local\Temp\cc67iDyk.s 			page 13


 394 00d0 BB68     		ldr	r3, [r7, #8]
 395 00d2 03F1FF33 		add	r3, r3, #-1
 396 00d6 BB60     		str	r3, [r7, #8]
 397              	.L19:
 398 00d8 FB68     		ldr	r3, [r7, #12]
 399 00da 1B68     		ldr	r3, [r3, #0]
 400 00dc 002B     		cmp	r3, #0
 401 00de 03D0     		beq	.L20
 402 00e0 FB79     		ldrb	r3, [r7, #7]
 403 00e2 DBB2     		uxtb	r3, r3
 404 00e4 032B     		cmp	r3, #3
 405 00e6 DCD1     		bne	.L21
 406              	.L20:
 288:.\Generated_Source\PSoC5/cyfitter_cfg.c **** 	}
 289:.\Generated_Source\PSoC5/cyfitter_cfg.c **** 
 290:.\Generated_Source\PSoC5/cyfitter_cfg.c **** 	/* Configure Bus/Master Clock based on settings from Clock DWR */
 291:.\Generated_Source\PSoC5/cyfitter_cfg.c **** 	CY_SET_XTND_REG8((void CYFAR *)(CYREG_CLKDIST_MSTR0), 0x03);
 407              		.loc 1 291 0
 408 00e8 44F20403 		movw	r3, #:lower16:1073758212
 409 00ec C4F20003 		movt	r3, #:upper16:1073758212
 410 00f0 4FF00302 		mov	r2, #3
 411 00f4 1A70     		strb	r2, [r3, #0]
 292:.\Generated_Source\PSoC5/cyfitter_cfg.c **** 	CY_SET_XTND_REG8((void CYFAR *)(CYREG_CLKDIST_MSTR1), 0x01);
 412              		.loc 1 292 0
 413 00f6 44F20503 		movw	r3, #:lower16:1073758213
 414 00fa C4F20003 		movt	r3, #:upper16:1073758213
 415 00fe 4FF00102 		mov	r2, #1
 416 0102 1A70     		strb	r2, [r3, #0]
 293:.\Generated_Source\PSoC5/cyfitter_cfg.c **** 	CY_SET_XTND_REG8((void CYFAR *)(CYREG_CLKDIST_MSTR0), 0x00);
 417              		.loc 1 293 0
 418 0104 44F20403 		movw	r3, #:lower16:1073758212
 419 0108 C4F20003 		movt	r3, #:upper16:1073758212
 420 010c 4FF00002 		mov	r2, #0
 421 0110 1A70     		strb	r2, [r3, #0]
 294:.\Generated_Source\PSoC5/cyfitter_cfg.c **** 	CY_SET_XTND_REG8((void CYFAR *)(CYREG_CLKDIST_MSTR0), 0x07);
 422              		.loc 1 294 0
 423 0112 44F20403 		movw	r3, #:lower16:1073758212
 424 0116 C4F20003 		movt	r3, #:upper16:1073758212
 425 011a 4FF00702 		mov	r2, #7
 426 011e 1A70     		strb	r2, [r3, #0]
 295:.\Generated_Source\PSoC5/cyfitter_cfg.c **** 	CY_SET_XTND_REG8((void CYFAR *)(CYREG_CLKDIST_BCFG0), 0x00);
 427              		.loc 1 295 0
 428 0120 44F20603 		movw	r3, #:lower16:1073758214
 429 0124 C4F20003 		movt	r3, #:upper16:1073758214
 430 0128 4FF00002 		mov	r2, #0
 431 012c 1A70     		strb	r2, [r3, #0]
 296:.\Generated_Source\PSoC5/cyfitter_cfg.c **** 	CY_SET_XTND_REG8((void CYFAR *)(CYREG_CLKDIST_BCFG2), 0x48);
 432              		.loc 1 296 0
 433 012e 44F20803 		movw	r3, #:lower16:1073758216
 434 0132 C4F20003 		movt	r3, #:upper16:1073758216
 435 0136 4FF04802 		mov	r2, #72
 436 013a 1A70     		strb	r2, [r3, #0]
 297:.\Generated_Source\PSoC5/cyfitter_cfg.c **** 	CY_SET_XTND_REG8((void CYFAR *)(CYREG_CLKDIST_MSTR0), 0x00);
 437              		.loc 1 297 0
 438 013c 44F20403 		movw	r3, #:lower16:1073758212
 439 0140 C4F20003 		movt	r3, #:upper16:1073758212
 440 0144 4FF00002 		mov	r2, #0
ARM GAS  C:\Users\arh\AppData\Local\Temp\cc67iDyk.s 			page 14


 441 0148 1A70     		strb	r2, [r3, #0]
 298:.\Generated_Source\PSoC5/cyfitter_cfg.c **** 	CY_SET_XTND_REG8((void CYFAR *)(CYREG_CLKDIST_LD), 0x02);
 442              		.loc 1 298 0
 443 014a 44F20103 		movw	r3, #:lower16:1073758209
 444 014e C4F20003 		movt	r3, #:upper16:1073758209
 445 0152 4FF00202 		mov	r2, #2
 446 0156 1A70     		strb	r2, [r3, #0]
 299:.\Generated_Source\PSoC5/cyfitter_cfg.c **** 	CY_SET_XTND_REG8((void CYFAR *)(CYREG_CLKDIST_DLY1), 0x04);
 447              		.loc 1 299 0
 448 0158 44F20B03 		movw	r3, #:lower16:1073758219
 449 015c C4F20003 		movt	r3, #:upper16:1073758219
 450 0160 4FF00402 		mov	r2, #4
 451 0164 1A70     		strb	r2, [r3, #0]
 300:.\Generated_Source\PSoC5/cyfitter_cfg.c **** 
 301:.\Generated_Source\PSoC5/cyfitter_cfg.c **** 	CY_SET_XTND_REG8((void CYFAR *)(CYREG_PM_ACT_CFG2), ((CY_GET_XTND_REG8(CYREG_PM_ACT_CFG2) | 0x01))
 452              		.loc 1 301 0
 453 0166 44F2A233 		movw	r3, #:lower16:1073759138
 454 016a C4F20003 		movt	r3, #:upper16:1073759138
 455 016e 44F2A232 		movw	r2, #:lower16:1073759138
 456 0172 C4F20002 		movt	r2, #:upper16:1073759138
 457 0176 1278     		ldrb	r2, [r2, #0]
 458 0178 D2B2     		uxtb	r2, r2
 459 017a 42F00102 		orr	r2, r2, #1
 460 017e D2B2     		uxtb	r2, r2
 461 0180 1A70     		strb	r2, [r3, #0]
 302:.\Generated_Source\PSoC5/cyfitter_cfg.c **** 	CY_SET_XTND_REG8((void CYFAR *)(CYREG_PM_ACT_CFG1), ((CY_GET_XTND_REG8(CYREG_PM_ACT_CFG1) | 0x01))
 462              		.loc 1 302 0
 463 0182 44F2A133 		movw	r3, #:lower16:1073759137
 464 0186 C4F20003 		movt	r3, #:upper16:1073759137
 465 018a 44F2A132 		movw	r2, #:lower16:1073759137
 466 018e C4F20002 		movt	r2, #:upper16:1073759137
 467 0192 1278     		ldrb	r2, [r2, #0]
 468 0194 D2B2     		uxtb	r2, r2
 469 0196 42F00102 		orr	r2, r2, #1
 470 019a D2B2     		uxtb	r2, r2
 471 019c 1A70     		strb	r2, [r3, #0]
 303:.\Generated_Source\PSoC5/cyfitter_cfg.c **** }
 472              		.loc 1 303 0
 473 019e 07F11007 		add	r7, r7, #16
 474 01a2 BD46     		mov	sp, r7
 475 01a4 80BD     		pop	{r7, pc}
 476              		.cfi_endproc
 477              	.LFE4:
 478              		.size	ClockSetup, .-ClockSetup
 479 01a6 00BF     		.section	.text.AnalogSetDefault,"ax",%progbits
 480              		.align	2
 481              		.global	AnalogSetDefault
 482              		.thumb
 483              		.thumb_func
 484              		.type	AnalogSetDefault, %function
 485              	AnalogSetDefault:
 486              	.LFB5:
 304:.\Generated_Source\PSoC5/cyfitter_cfg.c **** 
 305:.\Generated_Source\PSoC5/cyfitter_cfg.c **** 
 306:.\Generated_Source\PSoC5/cyfitter_cfg.c **** /* Analog API Functions */
 307:.\Generated_Source\PSoC5/cyfitter_cfg.c **** 
 308:.\Generated_Source\PSoC5/cyfitter_cfg.c **** /*******************************************************************************
ARM GAS  C:\Users\arh\AppData\Local\Temp\cc67iDyk.s 			page 15


 309:.\Generated_Source\PSoC5/cyfitter_cfg.c **** * Function Name: AnalogSetDefault
 310:.\Generated_Source\PSoC5/cyfitter_cfg.c **** ********************************************************************************
 311:.\Generated_Source\PSoC5/cyfitter_cfg.c **** *
 312:.\Generated_Source\PSoC5/cyfitter_cfg.c **** * Summary:
 313:.\Generated_Source\PSoC5/cyfitter_cfg.c **** *  Sets up the analog portions of the chip to default values based on chip
 314:.\Generated_Source\PSoC5/cyfitter_cfg.c **** *  configuration options from the project.
 315:.\Generated_Source\PSoC5/cyfitter_cfg.c **** *
 316:.\Generated_Source\PSoC5/cyfitter_cfg.c **** * Parameters:
 317:.\Generated_Source\PSoC5/cyfitter_cfg.c **** *  void
 318:.\Generated_Source\PSoC5/cyfitter_cfg.c **** *
 319:.\Generated_Source\PSoC5/cyfitter_cfg.c **** * Return:
 320:.\Generated_Source\PSoC5/cyfitter_cfg.c **** *  void
 321:.\Generated_Source\PSoC5/cyfitter_cfg.c **** *
 322:.\Generated_Source\PSoC5/cyfitter_cfg.c **** *******************************************************************************/
 323:.\Generated_Source\PSoC5/cyfitter_cfg.c **** void AnalogSetDefault(void)
 324:.\Generated_Source\PSoC5/cyfitter_cfg.c **** {
 487              		.loc 1 324 0
 488              		.cfi_startproc
 489              		@ args = 0, pretend = 0, frame = 0
 490              		@ frame_needed = 1, uses_anonymous_args = 0
 491              		@ link register save eliminated.
 492 0000 80B4     		push	{r7}
 493              	.LCFI15:
 494              		.cfi_def_cfa_offset 4
 495 0002 00AF     		add	r7, sp, #0
 496              		.cfi_offset 7, -4
 497              	.LCFI16:
 498              		.cfi_def_cfa_register 7
 325:.\Generated_Source\PSoC5/cyfitter_cfg.c **** 	CY_SET_XTND_REG16(CYREG_PM_ACT_CFG10, 0x0310);
 499              		.loc 1 325 0
 500 0004 44F2AA33 		movw	r3, #:lower16:1073759146
 501 0008 C4F20003 		movt	r3, #:upper16:1073759146
 502 000c 4FF44472 		mov	r2, #784
 503 0010 1A80     		strh	r2, [r3, #0]	@ movhi
 326:.\Generated_Source\PSoC5/cyfitter_cfg.c **** 	CY_SET_XTND_REG8(CYREG_PRT0_AG, 0x02);
 504              		.loc 1 326 0
 505 0012 45F20D13 		movw	r3, #:lower16:1073762573
 506 0016 C4F20003 		movt	r3, #:upper16:1073762573
 507 001a 4FF00202 		mov	r2, #2
 508 001e 1A70     		strb	r2, [r3, #0]
 327:.\Generated_Source\PSoC5/cyfitter_cfg.c **** 	CY_SET_XTND_REG8(CYREG_DAC0_CR0, 0x1E);
 509              		.loc 1 327 0
 510 0020 45F62003 		movw	r3, #:lower16:1073764384
 511 0024 C4F20003 		movt	r3, #:upper16:1073764384
 512 0028 4FF01E02 		mov	r2, #30
 513 002c 1A70     		strb	r2, [r3, #0]
 328:.\Generated_Source\PSoC5/cyfitter_cfg.c **** 	CY_SET_XTND_REG8(CYREG_DAC1_CR0, 0x1E);
 514              		.loc 1 328 0
 515 002e 45F62403 		movw	r3, #:lower16:1073764388
 516 0032 C4F20003 		movt	r3, #:upper16:1073764388
 517 0036 4FF01E02 		mov	r2, #30
 518 003a 1A70     		strb	r2, [r3, #0]
 329:.\Generated_Source\PSoC5/cyfitter_cfg.c **** 	CY_SET_XTND_REG8(CYREG_DAC2_CR0, 0x1E);
 519              		.loc 1 329 0
 520 003c 45F62803 		movw	r3, #:lower16:1073764392
 521 0040 C4F20003 		movt	r3, #:upper16:1073764392
 522 0044 4FF01E02 		mov	r2, #30
ARM GAS  C:\Users\arh\AppData\Local\Temp\cc67iDyk.s 			page 16


 523 0048 1A70     		strb	r2, [r3, #0]
 330:.\Generated_Source\PSoC5/cyfitter_cfg.c **** 	CY_SET_XTND_REG8(CYREG_DAC3_CR0, 0x1E);
 524              		.loc 1 330 0
 525 004a 45F62C03 		movw	r3, #:lower16:1073764396
 526 004e C4F20003 		movt	r3, #:upper16:1073764396
 527 0052 4FF01E02 		mov	r2, #30
 528 0056 1A70     		strb	r2, [r3, #0]
 331:.\Generated_Source\PSoC5/cyfitter_cfg.c **** 	CY_SET_XTND_REG8(CYREG_SAR0_CSR0, 0xC0);
 529              		.loc 1 331 0
 530 0058 45F60013 		movw	r3, #:lower16:1073764608
 531 005c C4F20003 		movt	r3, #:upper16:1073764608
 532 0060 6FF03F02 		mvn	r2, #63
 533 0064 1A70     		strb	r2, [r3, #0]
 332:.\Generated_Source\PSoC5/cyfitter_cfg.c **** 	CY_SET_XTND_REG8(CYREG_SAR0_CSR3, 0x0C);
 534              		.loc 1 332 0
 535 0066 45F60313 		movw	r3, #:lower16:1073764611
 536 006a C4F20003 		movt	r3, #:upper16:1073764611
 537 006e 4FF00C02 		mov	r2, #12
 538 0072 1A70     		strb	r2, [r3, #0]
 333:.\Generated_Source\PSoC5/cyfitter_cfg.c **** 	CY_SET_XTND_REG8(CYREG_SAR1_CSR0, 0xC0);
 539              		.loc 1 333 0
 540 0074 45F60813 		movw	r3, #:lower16:1073764616
 541 0078 C4F20003 		movt	r3, #:upper16:1073764616
 542 007c 6FF03F02 		mvn	r2, #63
 543 0080 1A70     		strb	r2, [r3, #0]
 334:.\Generated_Source\PSoC5/cyfitter_cfg.c **** 	CY_SET_XTND_REG8(CYREG_SAR1_CSR3, 0x0C);
 544              		.loc 1 334 0
 545 0082 45F60B13 		movw	r3, #:lower16:1073764619
 546 0086 C4F20003 		movt	r3, #:upper16:1073764619
 547 008a 4FF00C02 		mov	r2, #12
 548 008e 1A70     		strb	r2, [r3, #0]
 335:.\Generated_Source\PSoC5/cyfitter_cfg.c **** 	CY_SET_XTND_REG8(CYREG_PUMP_CR0, 0x44);
 549              		.loc 1 335 0
 550 0090 45F67603 		movw	r3, #:lower16:1073764470
 551 0094 C4F20003 		movt	r3, #:upper16:1073764470
 552 0098 4FF04402 		mov	r2, #68
 553 009c 1A70     		strb	r2, [r3, #0]
 336:.\Generated_Source\PSoC5/cyfitter_cfg.c **** }
 554              		.loc 1 336 0
 555 009e BD46     		mov	sp, r7
 556 00a0 80BC     		pop	{r7}
 557 00a2 7047     		bx	lr
 558              		.cfi_endproc
 559              	.LFE5:
 560              		.size	AnalogSetDefault, .-AnalogSetDefault
 561              		.section	.text.SetAnalogRoutingPumps,"ax",%progbits
 562              		.align	2
 563              		.global	SetAnalogRoutingPumps
 564              		.thumb
 565              		.thumb_func
 566              		.type	SetAnalogRoutingPumps, %function
 567              	SetAnalogRoutingPumps:
 568              	.LFB6:
 337:.\Generated_Source\PSoC5/cyfitter_cfg.c **** 
 338:.\Generated_Source\PSoC5/cyfitter_cfg.c **** 
 339:.\Generated_Source\PSoC5/cyfitter_cfg.c **** /*******************************************************************************
 340:.\Generated_Source\PSoC5/cyfitter_cfg.c **** * Function Name: SetAnalogRoutingPumps
ARM GAS  C:\Users\arh\AppData\Local\Temp\cc67iDyk.s 			page 17


 341:.\Generated_Source\PSoC5/cyfitter_cfg.c **** ********************************************************************************
 342:.\Generated_Source\PSoC5/cyfitter_cfg.c **** *
 343:.\Generated_Source\PSoC5/cyfitter_cfg.c **** * Summary:
 344:.\Generated_Source\PSoC5/cyfitter_cfg.c **** * Enables or disables the analog pumps feeding analog routing switches.
 345:.\Generated_Source\PSoC5/cyfitter_cfg.c **** * Intended to be called at startup, based on the Vdda system configuration;
 346:.\Generated_Source\PSoC5/cyfitter_cfg.c **** * may be called during operation when the user informs us that the Vdda voltage crossed the pump th
 347:.\Generated_Source\PSoC5/cyfitter_cfg.c **** *
 348:.\Generated_Source\PSoC5/cyfitter_cfg.c **** * Parameters:
 349:.\Generated_Source\PSoC5/cyfitter_cfg.c **** *  enabled - 1 to enable the pumps, 0 to disable the pumps
 350:.\Generated_Source\PSoC5/cyfitter_cfg.c **** *
 351:.\Generated_Source\PSoC5/cyfitter_cfg.c **** * Return:
 352:.\Generated_Source\PSoC5/cyfitter_cfg.c **** *  void
 353:.\Generated_Source\PSoC5/cyfitter_cfg.c **** *
 354:.\Generated_Source\PSoC5/cyfitter_cfg.c **** *******************************************************************************/
 355:.\Generated_Source\PSoC5/cyfitter_cfg.c **** void SetAnalogRoutingPumps(uint8 enabled)
 356:.\Generated_Source\PSoC5/cyfitter_cfg.c **** {
 569              		.loc 1 356 0
 570              		.cfi_startproc
 571              		@ args = 0, pretend = 0, frame = 16
 572              		@ frame_needed = 1, uses_anonymous_args = 0
 573              		@ link register save eliminated.
 574 0000 80B4     		push	{r7}
 575              	.LCFI17:
 576              		.cfi_def_cfa_offset 4
 577 0002 85B0     		sub	sp, sp, #20
 578              	.LCFI18:
 579              		.cfi_def_cfa_offset 24
 580 0004 00AF     		add	r7, sp, #0
 581              		.cfi_offset 7, -4
 582              	.LCFI19:
 583              		.cfi_def_cfa_register 7
 584 0006 0346     		mov	r3, r0
 585 0008 FB71     		strb	r3, [r7, #7]
 357:.\Generated_Source\PSoC5/cyfitter_cfg.c **** 	uint8 regValue = CY_GET_XTND_REG8(CYREG_PUMP_CR0);
 586              		.loc 1 357 0
 587 000a 45F67603 		movw	r3, #:lower16:1073764470
 588 000e C4F20003 		movt	r3, #:upper16:1073764470
 589 0012 1B78     		ldrb	r3, [r3, #0]
 590 0014 FB73     		strb	r3, [r7, #15]
 358:.\Generated_Source\PSoC5/cyfitter_cfg.c **** 	if (enabled)
 591              		.loc 1 358 0
 592 0016 FB79     		ldrb	r3, [r7, #7]	@ zero_extendqisi2
 593 0018 002B     		cmp	r3, #0
 594 001a 04D0     		beq	.L26
 359:.\Generated_Source\PSoC5/cyfitter_cfg.c **** 		regValue |= 0x02;
 595              		.loc 1 359 0
 596 001c FB7B     		ldrb	r3, [r7, #15]
 597 001e 43F00203 		orr	r3, r3, #2
 598 0022 FB73     		strb	r3, [r7, #15]
 599 0024 03E0     		b	.L27
 600              	.L26:
 360:.\Generated_Source\PSoC5/cyfitter_cfg.c **** 	else
 361:.\Generated_Source\PSoC5/cyfitter_cfg.c **** 		regValue &= ~0x02;
 601              		.loc 1 361 0
 602 0026 FB7B     		ldrb	r3, [r7, #15]
 603 0028 23F00203 		bic	r3, r3, #2
 604 002c FB73     		strb	r3, [r7, #15]
ARM GAS  C:\Users\arh\AppData\Local\Temp\cc67iDyk.s 			page 18


 605              	.L27:
 362:.\Generated_Source\PSoC5/cyfitter_cfg.c **** 	CY_SET_XTND_REG8(CYREG_PUMP_CR0, regValue);
 606              		.loc 1 362 0
 607 002e 45F67603 		movw	r3, #:lower16:1073764470
 608 0032 C4F20003 		movt	r3, #:upper16:1073764470
 609 0036 FA7B     		ldrb	r2, [r7, #15]
 610 0038 1A70     		strb	r2, [r3, #0]
 363:.\Generated_Source\PSoC5/cyfitter_cfg.c **** }
 611              		.loc 1 363 0
 612 003a 07F11407 		add	r7, r7, #20
 613 003e BD46     		mov	sp, r7
 614 0040 80BC     		pop	{r7}
 615 0042 7047     		bx	lr
 616              		.cfi_endproc
 617              	.LFE6:
 618              		.size	SetAnalogRoutingPumps, .-SetAnalogRoutingPumps
 619              		.global	amux_CYAMUXSIDE_A__addrTable
 620              		.section	.rodata
 621 002a 0000     		.align	2
 622              		.type	amux_CYAMUXSIDE_A__addrTable, %object
 623              		.size	amux_CYAMUXSIDE_A__addrTable, 16
 624              	amux_CYAMUXSIDE_A__addrTable:
 625 002c 0D510040 		.word	1073762573
 626 0030 005B0040 		.word	1073765120
 627 0034 005B0040 		.word	1073765120
 628 0038 24430040 		.word	1073759012
 629              		.global	amux_CYAMUXSIDE_A__maskTable
 630              		.align	2
 631              		.type	amux_CYAMUXSIDE_A__maskTable, %object
 632              		.size	amux_CYAMUXSIDE_A__maskTable, 4
 633              	amux_CYAMUXSIDE_A__maskTable:
 634 003c 01       		.byte	1
 635 003d 10       		.byte	16
 636 003e 20       		.byte	32
 637 003f 00       		.byte	0
 638              		.section	.text.amux_CYAMUXSIDE_A_Set,"ax",%progbits
 639              		.align	2
 640              		.global	amux_CYAMUXSIDE_A_Set
 641              		.thumb
 642              		.thumb_func
 643              		.type	amux_CYAMUXSIDE_A_Set, %function
 644              	amux_CYAMUXSIDE_A_Set:
 645              	.LFB7:
 364:.\Generated_Source\PSoC5/cyfitter_cfg.c **** 
 365:.\Generated_Source\PSoC5/cyfitter_cfg.c **** #define CY_AMUX_UNUSED CYREG_BOOST_SR
 366:.\Generated_Source\PSoC5/cyfitter_cfg.c **** /* Table used to specify registers used to implement amux_CYAMUXSIDE_A */
 367:.\Generated_Source\PSoC5/cyfitter_cfg.c **** uint8 CYXDATA * const CYCODE amux_CYAMUXSIDE_A__addrTable[] = {
 368:.\Generated_Source\PSoC5/cyfitter_cfg.c **** 	(uint8 CYXDATA *)CYREG_PRT0_AG, (uint8 CYXDATA *)CYREG_DSM0_SW0, 
 369:.\Generated_Source\PSoC5/cyfitter_cfg.c **** 	(uint8 CYXDATA *)CYREG_DSM0_SW0, (uint8 CYXDATA *)CY_AMUX_UNUSED, 
 370:.\Generated_Source\PSoC5/cyfitter_cfg.c **** };
 371:.\Generated_Source\PSoC5/cyfitter_cfg.c **** 
 372:.\Generated_Source\PSoC5/cyfitter_cfg.c **** /* Table used to define bit masks used to enable inputs for amux_CYAMUXSIDE_A */
 373:.\Generated_Source\PSoC5/cyfitter_cfg.c **** const uint8 CYCODE amux_CYAMUXSIDE_A__maskTable[] = {
 374:.\Generated_Source\PSoC5/cyfitter_cfg.c **** 	0x01, 0x10, 
 375:.\Generated_Source\PSoC5/cyfitter_cfg.c **** 	0x20, 0x00, 
 376:.\Generated_Source\PSoC5/cyfitter_cfg.c **** };
 377:.\Generated_Source\PSoC5/cyfitter_cfg.c **** 
ARM GAS  C:\Users\arh\AppData\Local\Temp\cc67iDyk.s 			page 19


 378:.\Generated_Source\PSoC5/cyfitter_cfg.c **** /*******************************************************************************
 379:.\Generated_Source\PSoC5/cyfitter_cfg.c **** * Function Name: amux_CYAMUXSIDE_A_Set
 380:.\Generated_Source\PSoC5/cyfitter_cfg.c **** ********************************************************************************
 381:.\Generated_Source\PSoC5/cyfitter_cfg.c **** * Summary:
 382:.\Generated_Source\PSoC5/cyfitter_cfg.c **** *  This function is used to set a particular channel as active on the AMux.
 383:.\Generated_Source\PSoC5/cyfitter_cfg.c **** *
 384:.\Generated_Source\PSoC5/cyfitter_cfg.c **** * Parameters:  
 385:.\Generated_Source\PSoC5/cyfitter_cfg.c **** *   channel - The mux channel input to set as active
 386:.\Generated_Source\PSoC5/cyfitter_cfg.c **** *
 387:.\Generated_Source\PSoC5/cyfitter_cfg.c **** * Return:
 388:.\Generated_Source\PSoC5/cyfitter_cfg.c **** *   void
 389:.\Generated_Source\PSoC5/cyfitter_cfg.c **** *
 390:.\Generated_Source\PSoC5/cyfitter_cfg.c **** *******************************************************************************/
 391:.\Generated_Source\PSoC5/cyfitter_cfg.c **** void amux_CYAMUXSIDE_A_Set(uint8 channel)
 392:.\Generated_Source\PSoC5/cyfitter_cfg.c **** {
 646              		.loc 1 392 0
 647              		.cfi_startproc
 648              		@ args = 0, pretend = 0, frame = 8
 649              		@ frame_needed = 1, uses_anonymous_args = 0
 650              		@ link register save eliminated.
 651 0000 80B4     		push	{r7}
 652              	.LCFI20:
 653              		.cfi_def_cfa_offset 4
 654 0002 83B0     		sub	sp, sp, #12
 655              	.LCFI21:
 656              		.cfi_def_cfa_offset 16
 657 0004 00AF     		add	r7, sp, #0
 658              		.cfi_offset 7, -4
 659              	.LCFI22:
 660              		.cfi_def_cfa_register 7
 661 0006 0346     		mov	r3, r0
 662 0008 FB71     		strb	r3, [r7, #7]
 393:.\Generated_Source\PSoC5/cyfitter_cfg.c **** 	if (channel >= 2)
 663              		.loc 1 393 0
 664 000a FB79     		ldrb	r3, [r7, #7]	@ zero_extendqisi2
 665 000c 012B     		cmp	r3, #1
 666 000e 3AD8     		bhi	.L33
 667              	.L30:
 394:.\Generated_Source\PSoC5/cyfitter_cfg.c **** 		return;
 395:.\Generated_Source\PSoC5/cyfitter_cfg.c **** 	channel += channel;
 668              		.loc 1 395 0
 669 0010 FA79     		ldrb	r2, [r7, #7]
 670 0012 FB79     		ldrb	r3, [r7, #7]
 671 0014 1344     		add	r3, r2, r3
 672 0016 FB71     		strb	r3, [r7, #7]
 396:.\Generated_Source\PSoC5/cyfitter_cfg.c **** 	*amux_CYAMUXSIDE_A__addrTable[channel] |= amux_CYAMUXSIDE_A__maskTable[channel];
 673              		.loc 1 396 0
 674 0018 FA79     		ldrb	r2, [r7, #7]	@ zero_extendqisi2
 675 001a 40F20003 		movw	r3, #:lower16:amux_CYAMUXSIDE_A__addrTable
 676 001e C0F20003 		movt	r3, #:upper16:amux_CYAMUXSIDE_A__addrTable
 677 0022 53F82220 		ldr	r2, [r3, r2, lsl #2]
 678 0026 F979     		ldrb	r1, [r7, #7]	@ zero_extendqisi2
 679 0028 40F20003 		movw	r3, #:lower16:amux_CYAMUXSIDE_A__addrTable
 680 002c C0F20003 		movt	r3, #:upper16:amux_CYAMUXSIDE_A__addrTable
 681 0030 53F82130 		ldr	r3, [r3, r1, lsl #2]
 682 0034 1978     		ldrb	r1, [r3, #0]	@ zero_extendqisi2
 683 0036 F879     		ldrb	r0, [r7, #7]	@ zero_extendqisi2
ARM GAS  C:\Users\arh\AppData\Local\Temp\cc67iDyk.s 			page 20


 684 0038 40F20003 		movw	r3, #:lower16:amux_CYAMUXSIDE_A__maskTable
 685 003c C0F20003 		movt	r3, #:upper16:amux_CYAMUXSIDE_A__maskTable
 686 0040 1B5C     		ldrb	r3, [r3, r0]	@ zero_extendqisi2
 687 0042 41EA0303 		orr	r3, r1, r3
 688 0046 DBB2     		uxtb	r3, r3
 689 0048 1370     		strb	r3, [r2, #0]
 397:.\Generated_Source\PSoC5/cyfitter_cfg.c **** 	channel++;
 690              		.loc 1 397 0
 691 004a FB79     		ldrb	r3, [r7, #7]
 692 004c 03F10103 		add	r3, r3, #1
 693 0050 FB71     		strb	r3, [r7, #7]
 398:.\Generated_Source\PSoC5/cyfitter_cfg.c **** 	*amux_CYAMUXSIDE_A__addrTable[channel] |= amux_CYAMUXSIDE_A__maskTable[channel];
 694              		.loc 1 398 0
 695 0052 FA79     		ldrb	r2, [r7, #7]	@ zero_extendqisi2
 696 0054 40F20003 		movw	r3, #:lower16:amux_CYAMUXSIDE_A__addrTable
 697 0058 C0F20003 		movt	r3, #:upper16:amux_CYAMUXSIDE_A__addrTable
 698 005c 53F82220 		ldr	r2, [r3, r2, lsl #2]
 699 0060 F979     		ldrb	r1, [r7, #7]	@ zero_extendqisi2
 700 0062 40F20003 		movw	r3, #:lower16:amux_CYAMUXSIDE_A__addrTable
 701 0066 C0F20003 		movt	r3, #:upper16:amux_CYAMUXSIDE_A__addrTable
 702 006a 53F82130 		ldr	r3, [r3, r1, lsl #2]
 703 006e 1978     		ldrb	r1, [r3, #0]	@ zero_extendqisi2
 704 0070 F879     		ldrb	r0, [r7, #7]	@ zero_extendqisi2
 705 0072 40F20003 		movw	r3, #:lower16:amux_CYAMUXSIDE_A__maskTable
 706 0076 C0F20003 		movt	r3, #:upper16:amux_CYAMUXSIDE_A__maskTable
 707 007a 1B5C     		ldrb	r3, [r3, r0]	@ zero_extendqisi2
 708 007c 41EA0303 		orr	r3, r1, r3
 709 0080 DBB2     		uxtb	r3, r3
 710 0082 1370     		strb	r3, [r2, #0]
 711 0084 00E0     		b	.L32
 712              	.L33:
 713              		.loc 1 394 0
 714 0086 00BF     		nop
 715              	.L32:
 399:.\Generated_Source\PSoC5/cyfitter_cfg.c **** }
 716              		.loc 1 399 0
 717 0088 07F10C07 		add	r7, r7, #12
 718 008c BD46     		mov	sp, r7
 719 008e 80BC     		pop	{r7}
 720 0090 7047     		bx	lr
 721              		.cfi_endproc
 722              	.LFE7:
 723              		.size	amux_CYAMUXSIDE_A_Set, .-amux_CYAMUXSIDE_A_Set
 724 0092 00BF     		.section	.text.amux_CYAMUXSIDE_A_Unset,"ax",%progbits
 725              		.align	2
 726              		.global	amux_CYAMUXSIDE_A_Unset
 727              		.thumb
 728              		.thumb_func
 729              		.type	amux_CYAMUXSIDE_A_Unset, %function
 730              	amux_CYAMUXSIDE_A_Unset:
 731              	.LFB8:
 400:.\Generated_Source\PSoC5/cyfitter_cfg.c **** 
 401:.\Generated_Source\PSoC5/cyfitter_cfg.c **** /*******************************************************************************
 402:.\Generated_Source\PSoC5/cyfitter_cfg.c **** * Function Name: amux_CYAMUXSIDE_A_Unset
 403:.\Generated_Source\PSoC5/cyfitter_cfg.c **** ********************************************************************************
 404:.\Generated_Source\PSoC5/cyfitter_cfg.c **** * Summary:
 405:.\Generated_Source\PSoC5/cyfitter_cfg.c **** *  This function is used to clear a particular channel from being active on the
ARM GAS  C:\Users\arh\AppData\Local\Temp\cc67iDyk.s 			page 21


 406:.\Generated_Source\PSoC5/cyfitter_cfg.c **** *  AMux.
 407:.\Generated_Source\PSoC5/cyfitter_cfg.c **** *
 408:.\Generated_Source\PSoC5/cyfitter_cfg.c **** * Parameters:  
 409:.\Generated_Source\PSoC5/cyfitter_cfg.c **** *   channel - The mux channel input to mark inactive
 410:.\Generated_Source\PSoC5/cyfitter_cfg.c **** *
 411:.\Generated_Source\PSoC5/cyfitter_cfg.c **** * Return:
 412:.\Generated_Source\PSoC5/cyfitter_cfg.c **** *   void
 413:.\Generated_Source\PSoC5/cyfitter_cfg.c **** *
 414:.\Generated_Source\PSoC5/cyfitter_cfg.c **** *******************************************************************************/
 415:.\Generated_Source\PSoC5/cyfitter_cfg.c **** void amux_CYAMUXSIDE_A_Unset(uint8 channel)
 416:.\Generated_Source\PSoC5/cyfitter_cfg.c **** {
 732              		.loc 1 416 0
 733              		.cfi_startproc
 734              		@ args = 0, pretend = 0, frame = 8
 735              		@ frame_needed = 1, uses_anonymous_args = 0
 736              		@ link register save eliminated.
 737 0000 80B4     		push	{r7}
 738              	.LCFI23:
 739              		.cfi_def_cfa_offset 4
 740 0002 83B0     		sub	sp, sp, #12
 741              	.LCFI24:
 742              		.cfi_def_cfa_offset 16
 743 0004 00AF     		add	r7, sp, #0
 744              		.cfi_offset 7, -4
 745              	.LCFI25:
 746              		.cfi_def_cfa_register 7
 747 0006 0346     		mov	r3, r0
 748 0008 FB71     		strb	r3, [r7, #7]
 417:.\Generated_Source\PSoC5/cyfitter_cfg.c **** 	if (channel >= 2)
 749              		.loc 1 417 0
 750 000a FB79     		ldrb	r3, [r7, #7]	@ zero_extendqisi2
 751 000c 012B     		cmp	r3, #1
 752 000e 44D8     		bhi	.L38
 753              	.L35:
 418:.\Generated_Source\PSoC5/cyfitter_cfg.c **** 		return;
 419:.\Generated_Source\PSoC5/cyfitter_cfg.c **** 	channel += channel;
 754              		.loc 1 419 0
 755 0010 FA79     		ldrb	r2, [r7, #7]
 756 0012 FB79     		ldrb	r3, [r7, #7]
 757 0014 1344     		add	r3, r2, r3
 758 0016 FB71     		strb	r3, [r7, #7]
 420:.\Generated_Source\PSoC5/cyfitter_cfg.c **** 	*amux_CYAMUXSIDE_A__addrTable[channel] &= ~amux_CYAMUXSIDE_A__maskTable[channel];
 759              		.loc 1 420 0
 760 0018 FA79     		ldrb	r2, [r7, #7]	@ zero_extendqisi2
 761 001a 40F20003 		movw	r3, #:lower16:amux_CYAMUXSIDE_A__addrTable
 762 001e C0F20003 		movt	r3, #:upper16:amux_CYAMUXSIDE_A__addrTable
 763 0022 53F82220 		ldr	r2, [r3, r2, lsl #2]
 764 0026 F979     		ldrb	r1, [r7, #7]	@ zero_extendqisi2
 765 0028 40F20003 		movw	r3, #:lower16:amux_CYAMUXSIDE_A__addrTable
 766 002c C0F20003 		movt	r3, #:upper16:amux_CYAMUXSIDE_A__addrTable
 767 0030 53F82130 		ldr	r3, [r3, r1, lsl #2]
 768 0034 1B78     		ldrb	r3, [r3, #0]	@ zero_extendqisi2
 769 0036 1946     		mov	r1, r3
 770 0038 F879     		ldrb	r0, [r7, #7]	@ zero_extendqisi2
 771 003a 40F20003 		movw	r3, #:lower16:amux_CYAMUXSIDE_A__maskTable
 772 003e C0F20003 		movt	r3, #:upper16:amux_CYAMUXSIDE_A__maskTable
 773 0042 1B5C     		ldrb	r3, [r3, r0]	@ zero_extendqisi2
ARM GAS  C:\Users\arh\AppData\Local\Temp\cc67iDyk.s 			page 22


 774 0044 6FEA0303 		mvn	r3, r3
 775 0048 DBB2     		uxtb	r3, r3
 776 004a 01EA0303 		and	r3, r1, r3
 777 004e DBB2     		uxtb	r3, r3
 778 0050 DBB2     		uxtb	r3, r3
 779 0052 1370     		strb	r3, [r2, #0]
 421:.\Generated_Source\PSoC5/cyfitter_cfg.c **** 	channel++;
 780              		.loc 1 421 0
 781 0054 FB79     		ldrb	r3, [r7, #7]
 782 0056 03F10103 		add	r3, r3, #1
 783 005a FB71     		strb	r3, [r7, #7]
 422:.\Generated_Source\PSoC5/cyfitter_cfg.c **** 	*amux_CYAMUXSIDE_A__addrTable[channel] &= ~amux_CYAMUXSIDE_A__maskTable[channel];
 784              		.loc 1 422 0
 785 005c FA79     		ldrb	r2, [r7, #7]	@ zero_extendqisi2
 786 005e 40F20003 		movw	r3, #:lower16:amux_CYAMUXSIDE_A__addrTable
 787 0062 C0F20003 		movt	r3, #:upper16:amux_CYAMUXSIDE_A__addrTable
 788 0066 53F82220 		ldr	r2, [r3, r2, lsl #2]
 789 006a F979     		ldrb	r1, [r7, #7]	@ zero_extendqisi2
 790 006c 40F20003 		movw	r3, #:lower16:amux_CYAMUXSIDE_A__addrTable
 791 0070 C0F20003 		movt	r3, #:upper16:amux_CYAMUXSIDE_A__addrTable
 792 0074 53F82130 		ldr	r3, [r3, r1, lsl #2]
 793 0078 1B78     		ldrb	r3, [r3, #0]	@ zero_extendqisi2
 794 007a 1946     		mov	r1, r3
 795 007c F879     		ldrb	r0, [r7, #7]	@ zero_extendqisi2
 796 007e 40F20003 		movw	r3, #:lower16:amux_CYAMUXSIDE_A__maskTable
 797 0082 C0F20003 		movt	r3, #:upper16:amux_CYAMUXSIDE_A__maskTable
 798 0086 1B5C     		ldrb	r3, [r3, r0]	@ zero_extendqisi2
 799 0088 6FEA0303 		mvn	r3, r3
 800 008c DBB2     		uxtb	r3, r3
 801 008e 01EA0303 		and	r3, r1, r3
 802 0092 DBB2     		uxtb	r3, r3
 803 0094 DBB2     		uxtb	r3, r3
 804 0096 1370     		strb	r3, [r2, #0]
 805 0098 00E0     		b	.L37
 806              	.L38:
 807              		.loc 1 418 0
 808 009a 00BF     		nop
 809              	.L37:
 423:.\Generated_Source\PSoC5/cyfitter_cfg.c **** }
 810              		.loc 1 423 0
 811 009c 07F10C07 		add	r7, r7, #12
 812 00a0 BD46     		mov	sp, r7
 813 00a2 80BC     		pop	{r7}
 814 00a4 7047     		bx	lr
 815              		.cfi_endproc
 816              	.LFE8:
 817              		.size	amux_CYAMUXSIDE_A_Unset, .-amux_CYAMUXSIDE_A_Unset
 818              		.global	amux_CYAMUXSIDE_B__addrTable
 819 00a6 00BF     		.section	.rodata
 820              		.align	2
 821              		.type	amux_CYAMUXSIDE_B__addrTable, %object
 822              		.size	amux_CYAMUXSIDE_B__addrTable, 8
 823              	amux_CYAMUXSIDE_B__addrTable:
 824 0040 045B0040 		.word	1073765124
 825 0044 045B0040 		.word	1073765124
 826              		.global	amux_CYAMUXSIDE_B__maskTable
 827              		.align	2
ARM GAS  C:\Users\arh\AppData\Local\Temp\cc67iDyk.s 			page 23


 828              		.type	amux_CYAMUXSIDE_B__maskTable, %object
 829              		.size	amux_CYAMUXSIDE_B__maskTable, 2
 830              	amux_CYAMUXSIDE_B__maskTable:
 831 0048 20       		.byte	32
 832 0049 20       		.byte	32
 833 004a 0000     		.section	.text.amux_CYAMUXSIDE_B_Set,"ax",%progbits
 834              		.align	2
 835              		.global	amux_CYAMUXSIDE_B_Set
 836              		.thumb
 837              		.thumb_func
 838              		.type	amux_CYAMUXSIDE_B_Set, %function
 839              	amux_CYAMUXSIDE_B_Set:
 840              	.LFB9:
 424:.\Generated_Source\PSoC5/cyfitter_cfg.c **** 
 425:.\Generated_Source\PSoC5/cyfitter_cfg.c **** /* Table used to specify registers used to implement amux_CYAMUXSIDE_B */
 426:.\Generated_Source\PSoC5/cyfitter_cfg.c **** uint8 CYXDATA * const CYCODE amux_CYAMUXSIDE_B__addrTable[] = {
 427:.\Generated_Source\PSoC5/cyfitter_cfg.c **** 	(uint8 CYXDATA *)CYREG_DSM0_SW4, 
 428:.\Generated_Source\PSoC5/cyfitter_cfg.c **** 	(uint8 CYXDATA *)CYREG_DSM0_SW4, 
 429:.\Generated_Source\PSoC5/cyfitter_cfg.c **** };
 430:.\Generated_Source\PSoC5/cyfitter_cfg.c **** 
 431:.\Generated_Source\PSoC5/cyfitter_cfg.c **** /* Table used to define bit masks used to enable inputs for amux_CYAMUXSIDE_B */
 432:.\Generated_Source\PSoC5/cyfitter_cfg.c **** const uint8 CYCODE amux_CYAMUXSIDE_B__maskTable[] = {
 433:.\Generated_Source\PSoC5/cyfitter_cfg.c **** 	0x20, 
 434:.\Generated_Source\PSoC5/cyfitter_cfg.c **** 	0x20, 
 435:.\Generated_Source\PSoC5/cyfitter_cfg.c **** };
 436:.\Generated_Source\PSoC5/cyfitter_cfg.c **** 
 437:.\Generated_Source\PSoC5/cyfitter_cfg.c **** /*******************************************************************************
 438:.\Generated_Source\PSoC5/cyfitter_cfg.c **** * Function Name: amux_CYAMUXSIDE_B_Set
 439:.\Generated_Source\PSoC5/cyfitter_cfg.c **** ********************************************************************************
 440:.\Generated_Source\PSoC5/cyfitter_cfg.c **** * Summary:
 441:.\Generated_Source\PSoC5/cyfitter_cfg.c **** *  This function is used to set a particular channel as active on the AMux.
 442:.\Generated_Source\PSoC5/cyfitter_cfg.c **** *
 443:.\Generated_Source\PSoC5/cyfitter_cfg.c **** * Parameters:  
 444:.\Generated_Source\PSoC5/cyfitter_cfg.c **** *   channel - The mux channel input to set as active
 445:.\Generated_Source\PSoC5/cyfitter_cfg.c **** *
 446:.\Generated_Source\PSoC5/cyfitter_cfg.c **** * Return:
 447:.\Generated_Source\PSoC5/cyfitter_cfg.c **** *   void
 448:.\Generated_Source\PSoC5/cyfitter_cfg.c **** *
 449:.\Generated_Source\PSoC5/cyfitter_cfg.c **** *******************************************************************************/
 450:.\Generated_Source\PSoC5/cyfitter_cfg.c **** void amux_CYAMUXSIDE_B_Set(uint8 channel)
 451:.\Generated_Source\PSoC5/cyfitter_cfg.c **** {
 841              		.loc 1 451 0
 842              		.cfi_startproc
 843              		@ args = 0, pretend = 0, frame = 8
 844              		@ frame_needed = 1, uses_anonymous_args = 0
 845              		@ link register save eliminated.
 846 0000 80B4     		push	{r7}
 847              	.LCFI26:
 848              		.cfi_def_cfa_offset 4
 849 0002 83B0     		sub	sp, sp, #12
 850              	.LCFI27:
 851              		.cfi_def_cfa_offset 16
 852 0004 00AF     		add	r7, sp, #0
 853              		.cfi_offset 7, -4
 854              	.LCFI28:
 855              		.cfi_def_cfa_register 7
 856 0006 0346     		mov	r3, r0
ARM GAS  C:\Users\arh\AppData\Local\Temp\cc67iDyk.s 			page 24


 857 0008 FB71     		strb	r3, [r7, #7]
 452:.\Generated_Source\PSoC5/cyfitter_cfg.c **** 	if (channel >= 2)
 858              		.loc 1 452 0
 859 000a FB79     		ldrb	r3, [r7, #7]	@ zero_extendqisi2
 860 000c 012B     		cmp	r3, #1
 861 000e 19D8     		bhi	.L43
 862              	.L40:
 453:.\Generated_Source\PSoC5/cyfitter_cfg.c **** 		return;
 454:.\Generated_Source\PSoC5/cyfitter_cfg.c **** 	*amux_CYAMUXSIDE_B__addrTable[channel] |= amux_CYAMUXSIDE_B__maskTable[channel];
 863              		.loc 1 454 0
 864 0010 FA79     		ldrb	r2, [r7, #7]	@ zero_extendqisi2
 865 0012 40F20003 		movw	r3, #:lower16:amux_CYAMUXSIDE_B__addrTable
 866 0016 C0F20003 		movt	r3, #:upper16:amux_CYAMUXSIDE_B__addrTable
 867 001a 53F82220 		ldr	r2, [r3, r2, lsl #2]
 868 001e F979     		ldrb	r1, [r7, #7]	@ zero_extendqisi2
 869 0020 40F20003 		movw	r3, #:lower16:amux_CYAMUXSIDE_B__addrTable
 870 0024 C0F20003 		movt	r3, #:upper16:amux_CYAMUXSIDE_B__addrTable
 871 0028 53F82130 		ldr	r3, [r3, r1, lsl #2]
 872 002c 1978     		ldrb	r1, [r3, #0]	@ zero_extendqisi2
 873 002e F879     		ldrb	r0, [r7, #7]	@ zero_extendqisi2
 874 0030 40F20003 		movw	r3, #:lower16:amux_CYAMUXSIDE_B__maskTable
 875 0034 C0F20003 		movt	r3, #:upper16:amux_CYAMUXSIDE_B__maskTable
 876 0038 1B5C     		ldrb	r3, [r3, r0]	@ zero_extendqisi2
 877 003a 41EA0303 		orr	r3, r1, r3
 878 003e DBB2     		uxtb	r3, r3
 879 0040 1370     		strb	r3, [r2, #0]
 880 0042 00E0     		b	.L42
 881              	.L43:
 882              		.loc 1 453 0
 883 0044 00BF     		nop
 884              	.L42:
 455:.\Generated_Source\PSoC5/cyfitter_cfg.c **** }
 885              		.loc 1 455 0
 886 0046 07F10C07 		add	r7, r7, #12
 887 004a BD46     		mov	sp, r7
 888 004c 80BC     		pop	{r7}
 889 004e 7047     		bx	lr
 890              		.cfi_endproc
 891              	.LFE9:
 892              		.size	amux_CYAMUXSIDE_B_Set, .-amux_CYAMUXSIDE_B_Set
 893              		.section	.text.amux_CYAMUXSIDE_B_Unset,"ax",%progbits
 894              		.align	2
 895              		.global	amux_CYAMUXSIDE_B_Unset
 896              		.thumb
 897              		.thumb_func
 898              		.type	amux_CYAMUXSIDE_B_Unset, %function
 899              	amux_CYAMUXSIDE_B_Unset:
 900              	.LFB10:
 456:.\Generated_Source\PSoC5/cyfitter_cfg.c **** 
 457:.\Generated_Source\PSoC5/cyfitter_cfg.c **** /*******************************************************************************
 458:.\Generated_Source\PSoC5/cyfitter_cfg.c **** * Function Name: amux_CYAMUXSIDE_B_Unset
 459:.\Generated_Source\PSoC5/cyfitter_cfg.c **** ********************************************************************************
 460:.\Generated_Source\PSoC5/cyfitter_cfg.c **** * Summary:
 461:.\Generated_Source\PSoC5/cyfitter_cfg.c **** *  This function is used to clear a particular channel from being active on the
 462:.\Generated_Source\PSoC5/cyfitter_cfg.c **** *  AMux.
 463:.\Generated_Source\PSoC5/cyfitter_cfg.c **** *
 464:.\Generated_Source\PSoC5/cyfitter_cfg.c **** * Parameters:  
ARM GAS  C:\Users\arh\AppData\Local\Temp\cc67iDyk.s 			page 25


 465:.\Generated_Source\PSoC5/cyfitter_cfg.c **** *   channel - The mux channel input to mark inactive
 466:.\Generated_Source\PSoC5/cyfitter_cfg.c **** *
 467:.\Generated_Source\PSoC5/cyfitter_cfg.c **** * Return:
 468:.\Generated_Source\PSoC5/cyfitter_cfg.c **** *   void
 469:.\Generated_Source\PSoC5/cyfitter_cfg.c **** *
 470:.\Generated_Source\PSoC5/cyfitter_cfg.c **** *******************************************************************************/
 471:.\Generated_Source\PSoC5/cyfitter_cfg.c **** void amux_CYAMUXSIDE_B_Unset(uint8 channel)
 472:.\Generated_Source\PSoC5/cyfitter_cfg.c **** {
 901              		.loc 1 472 0
 902              		.cfi_startproc
 903              		@ args = 0, pretend = 0, frame = 8
 904              		@ frame_needed = 1, uses_anonymous_args = 0
 905              		@ link register save eliminated.
 906 0000 80B4     		push	{r7}
 907              	.LCFI29:
 908              		.cfi_def_cfa_offset 4
 909 0002 83B0     		sub	sp, sp, #12
 910              	.LCFI30:
 911              		.cfi_def_cfa_offset 16
 912 0004 00AF     		add	r7, sp, #0
 913              		.cfi_offset 7, -4
 914              	.LCFI31:
 915              		.cfi_def_cfa_register 7
 916 0006 0346     		mov	r3, r0
 917 0008 FB71     		strb	r3, [r7, #7]
 473:.\Generated_Source\PSoC5/cyfitter_cfg.c **** 	if (channel >= 2)
 918              		.loc 1 473 0
 919 000a FB79     		ldrb	r3, [r7, #7]	@ zero_extendqisi2
 920 000c 012B     		cmp	r3, #1
 921 000e 1ED8     		bhi	.L48
 922              	.L45:
 474:.\Generated_Source\PSoC5/cyfitter_cfg.c **** 		return;
 475:.\Generated_Source\PSoC5/cyfitter_cfg.c **** 	*amux_CYAMUXSIDE_B__addrTable[channel] &= ~amux_CYAMUXSIDE_B__maskTable[channel];
 923              		.loc 1 475 0
 924 0010 FA79     		ldrb	r2, [r7, #7]	@ zero_extendqisi2
 925 0012 40F20003 		movw	r3, #:lower16:amux_CYAMUXSIDE_B__addrTable
 926 0016 C0F20003 		movt	r3, #:upper16:amux_CYAMUXSIDE_B__addrTable
 927 001a 53F82220 		ldr	r2, [r3, r2, lsl #2]
 928 001e F979     		ldrb	r1, [r7, #7]	@ zero_extendqisi2
 929 0020 40F20003 		movw	r3, #:lower16:amux_CYAMUXSIDE_B__addrTable
 930 0024 C0F20003 		movt	r3, #:upper16:amux_CYAMUXSIDE_B__addrTable
 931 0028 53F82130 		ldr	r3, [r3, r1, lsl #2]
 932 002c 1B78     		ldrb	r3, [r3, #0]	@ zero_extendqisi2
 933 002e 1946     		mov	r1, r3
 934 0030 F879     		ldrb	r0, [r7, #7]	@ zero_extendqisi2
 935 0032 40F20003 		movw	r3, #:lower16:amux_CYAMUXSIDE_B__maskTable
 936 0036 C0F20003 		movt	r3, #:upper16:amux_CYAMUXSIDE_B__maskTable
 937 003a 1B5C     		ldrb	r3, [r3, r0]	@ zero_extendqisi2
 938 003c 6FEA0303 		mvn	r3, r3
 939 0040 DBB2     		uxtb	r3, r3
 940 0042 01EA0303 		and	r3, r1, r3
 941 0046 DBB2     		uxtb	r3, r3
 942 0048 DBB2     		uxtb	r3, r3
 943 004a 1370     		strb	r3, [r2, #0]
 944 004c 00E0     		b	.L47
 945              	.L48:
 946              		.loc 1 474 0
ARM GAS  C:\Users\arh\AppData\Local\Temp\cc67iDyk.s 			page 26


 947 004e 00BF     		nop
 948              	.L47:
 476:.\Generated_Source\PSoC5/cyfitter_cfg.c **** }
 949              		.loc 1 476 0
 950 0050 07F10C07 		add	r7, r7, #12
 951 0054 BD46     		mov	sp, r7
 952 0056 80BC     		pop	{r7}
 953 0058 7047     		bx	lr
 954              		.cfi_endproc
 955              	.LFE10:
 956              		.size	amux_CYAMUXSIDE_B_Unset, .-amux_CYAMUXSIDE_B_Unset
 957 005a 00BF     		.section	.text.cyfitter_cfg,"ax",%progbits
 958              		.align	2
 959              		.global	cyfitter_cfg
 960              		.thumb
 961              		.thumb_func
 962              		.type	cyfitter_cfg, %function
 963              	cyfitter_cfg:
 964              	.LFB11:
 477:.\Generated_Source\PSoC5/cyfitter_cfg.c **** 
 478:.\Generated_Source\PSoC5/cyfitter_cfg.c **** 
 479:.\Generated_Source\PSoC5/cyfitter_cfg.c **** 
 480:.\Generated_Source\PSoC5/cyfitter_cfg.c **** /*******************************************************************************
 481:.\Generated_Source\PSoC5/cyfitter_cfg.c **** * Function Name: cyfitter_cfg
 482:.\Generated_Source\PSoC5/cyfitter_cfg.c **** ********************************************************************************
 483:.\Generated_Source\PSoC5/cyfitter_cfg.c **** * Summary:
 484:.\Generated_Source\PSoC5/cyfitter_cfg.c **** *  This function is called by the start-up code for the selected device. It
 485:.\Generated_Source\PSoC5/cyfitter_cfg.c **** *  performs all of the necessary device configuration based on the design
 486:.\Generated_Source\PSoC5/cyfitter_cfg.c **** *  settings.  This includes settings from the Design Wide Resources (DWR) such
 487:.\Generated_Source\PSoC5/cyfitter_cfg.c **** *  as Clocks and Pins as well as any component configuration that is necessary.
 488:.\Generated_Source\PSoC5/cyfitter_cfg.c **** *
 489:.\Generated_Source\PSoC5/cyfitter_cfg.c **** * Parameters:  
 490:.\Generated_Source\PSoC5/cyfitter_cfg.c **** *   void
 491:.\Generated_Source\PSoC5/cyfitter_cfg.c **** *
 492:.\Generated_Source\PSoC5/cyfitter_cfg.c **** * Return:
 493:.\Generated_Source\PSoC5/cyfitter_cfg.c **** *   void
 494:.\Generated_Source\PSoC5/cyfitter_cfg.c **** *
 495:.\Generated_Source\PSoC5/cyfitter_cfg.c **** *******************************************************************************/
 496:.\Generated_Source\PSoC5/cyfitter_cfg.c **** void cyfitter_cfg(void)
 497:.\Generated_Source\PSoC5/cyfitter_cfg.c **** {
 965              		.loc 1 497 0
 966              		.cfi_startproc
 967              		@ args = 0, pretend = 0, frame = 8
 968              		@ frame_needed = 1, uses_anonymous_args = 0
 969 0000 80B5     		push	{r7, lr}
 970              	.LCFI32:
 971              		.cfi_def_cfa_offset 8
 972 0002 82B0     		sub	sp, sp, #8
 973              	.LCFI33:
 974              		.cfi_def_cfa_offset 16
 975 0004 00AF     		add	r7, sp, #0
 976              		.cfi_offset 14, -4
 977              		.cfi_offset 7, -8
 978              	.LCFI34:
 979              		.cfi_def_cfa_register 7
 498:.\Generated_Source\PSoC5/cyfitter_cfg.c **** #ifdef CYGlobalIntDisable
 499:.\Generated_Source\PSoC5/cyfitter_cfg.c **** 	/* Disable interrupts by default. Let user enable if/when they want. */
ARM GAS  C:\Users\arh\AppData\Local\Temp\cc67iDyk.s 			page 27


 500:.\Generated_Source\PSoC5/cyfitter_cfg.c **** 	CYGlobalIntDisable;
 980              		.loc 1 500 0
 981              	@ 500 ".\Generated_Source\PSoC5\cyfitter_cfg.c" 1
 982 0006 72B6     		CPSID   i
 983              	@ 0 "" 2
 501:.\Generated_Source\PSoC5/cyfitter_cfg.c **** #endif
 502:.\Generated_Source\PSoC5/cyfitter_cfg.c **** 
 503:.\Generated_Source\PSoC5/cyfitter_cfg.c **** 
 504:.\Generated_Source\PSoC5/cyfitter_cfg.c **** 	/* Set Flash Cycles based on max possible frequency in case a glitch occurs during ClockSetup(). *
 505:.\Generated_Source\PSoC5/cyfitter_cfg.c **** 	CY_SET_XTND_REG8((void CYFAR *)(CYREG_CACHE_CC_CTL), ((CYDEV_INSTRUCT_CACHE_ENABLED) ? 0x00 : 0x01
 984              		.loc 1 505 0
 985              		.thumb
 986 0008 44F60003 		movw	r3, #:lower16:1073760256
 987 000c C4F20003 		movt	r3, #:upper16:1073760256
 988 0010 4FF00002 		mov	r2, #0
 989 0014 1A70     		strb	r2, [r3, #0]
 506:.\Generated_Source\PSoC5/cyfitter_cfg.c **** 	/* Setup clocks based on selections from Clock DWR */
 507:.\Generated_Source\PSoC5/cyfitter_cfg.c **** 	ClockSetup();
 990              		.loc 1 507 0
 991 0016 FFF7FEFF 		bl	ClockSetup
 508:.\Generated_Source\PSoC5/cyfitter_cfg.c **** 	/* Set Flash Cycles based on newly configured 24.00MHz Bus Clock. */
 509:.\Generated_Source\PSoC5/cyfitter_cfg.c **** 	CY_SET_XTND_REG8((void CYFAR *)(CYREG_CACHE_CC_CTL), ((CYDEV_INSTRUCT_CACHE_ENABLED) ? 0x80 : 0x81
 992              		.loc 1 509 0
 993 001a 44F60003 		movw	r3, #:lower16:1073760256
 994 001e C4F20003 		movt	r3, #:upper16:1073760256
 995 0022 6FF07F02 		mvn	r2, #127
 996 0026 1A70     		strb	r2, [r3, #0]
 510:.\Generated_Source\PSoC5/cyfitter_cfg.c **** 
 511:.\Generated_Source\PSoC5/cyfitter_cfg.c **** 	/* Disable DMA channels so they can be configured for chip initialization */
 512:.\Generated_Source\PSoC5/cyfitter_cfg.c **** 	CY_SET_XTND_REG8((void CYFAR *)(CYREG_PHUB_CH0_BASIC_CFG), 0x00);
 997              		.loc 1 512 0
 998 0028 47F21003 		movw	r3, #:lower16:1073770512
 999 002c C4F20003 		movt	r3, #:upper16:1073770512
 1000 0030 4FF00002 		mov	r2, #0
 1001 0034 1A70     		strb	r2, [r3, #0]
 513:.\Generated_Source\PSoC5/cyfitter_cfg.c **** 	CY_SET_XTND_REG8((void CYFAR *)(CYREG_PHUB_CH1_BASIC_CFG), 0x00);
 1002              		.loc 1 513 0
 1003 0036 47F22003 		movw	r3, #:lower16:1073770528
 1004 003a C4F20003 		movt	r3, #:upper16:1073770528
 1005 003e 4FF00002 		mov	r2, #0
 1006 0042 1A70     		strb	r2, [r3, #0]
 514:.\Generated_Source\PSoC5/cyfitter_cfg.c **** 
 515:.\Generated_Source\PSoC5/cyfitter_cfg.c **** 	/* Enable analog pulldown switches */
 516:.\Generated_Source\PSoC5/cyfitter_cfg.c **** 	CY_SET_XTND_REG8((void CYFAR *)(CYREG_ANAIF_CFG_MISC_CR0), 0x01);
 1007              		.loc 1 516 0
 1008 0044 45F67C03 		movw	r3, #:lower16:1073764476
 1009 0048 C4F20003 		movt	r3, #:upper16:1073764476
 1010 004c 4FF00102 		mov	r2, #1
 1011 0050 1A70     		strb	r2, [r3, #0]
 517:.\Generated_Source\PSoC5/cyfitter_cfg.c **** 
 518:.\Generated_Source\PSoC5/cyfitter_cfg.c **** 	/* Enable/Disable Debug functionality based on settings from System DWR */
 519:.\Generated_Source\PSoC5/cyfitter_cfg.c **** 	CY_SET_XTND_REG8(CYREG_MLOGIC_DBG_DBE, (CY_GET_XTND_REG8(CYREG_MLOGIC_DBG_DBE) | 0x01));
 1012              		.loc 1 519 0
 1013 0052 44F2E863 		movw	r3, #:lower16:1073759976
 1014 0056 C4F20003 		movt	r3, #:upper16:1073759976
 1015 005a 44F2E862 		movw	r2, #:lower16:1073759976
 1016 005e C4F20002 		movt	r2, #:upper16:1073759976
ARM GAS  C:\Users\arh\AppData\Local\Temp\cc67iDyk.s 			page 28


 1017 0062 1278     		ldrb	r2, [r2, #0]
 1018 0064 D2B2     		uxtb	r2, r2
 1019 0066 42F00102 		orr	r2, r2, #1
 1020 006a D2B2     		uxtb	r2, r2
 1021 006c 1A70     		strb	r2, [r3, #0]
 1022              	.LBB3:
 520:.\Generated_Source\PSoC5/cyfitter_cfg.c **** 
 521:.\Generated_Source\PSoC5/cyfitter_cfg.c **** 	{
 522:.\Generated_Source\PSoC5/cyfitter_cfg.c **** 		uint8 CYDATA i;
 523:.\Generated_Source\PSoC5/cyfitter_cfg.c **** 
 524:.\Generated_Source\PSoC5/cyfitter_cfg.c **** 		/* Zero out critical memory blocks before beginning configuration */
 525:.\Generated_Source\PSoC5/cyfitter_cfg.c **** 		for (i = 0; i < CFG_MEMSET_COUNT; i++)
 1023              		.loc 1 525 0
 1024 006e 4FF00003 		mov	r3, #0
 1025 0072 FB70     		strb	r3, [r7, #3]
 1026 0074 31E0     		b	.L50
 1027              	.L51:
 1028              	.LBB4:
 526:.\Generated_Source\PSoC5/cyfitter_cfg.c **** 		{
 527:.\Generated_Source\PSoC5/cyfitter_cfg.c **** 			const cfg_memset_t CYCODE * CYDATA ms = &cfg_memset_list[i];
 1029              		.loc 1 527 0
 1030 0076 FA78     		ldrb	r2, [r7, #3]	@ zero_extendqisi2
 1031 0078 1346     		mov	r3, r2
 1032 007a 4FEA4303 		lsl	r3, r3, #1
 1033 007e 1344     		add	r3, r3, r2
 1034 0080 4FEA4303 		lsl	r3, r3, #1
 1035 0084 1A46     		mov	r2, r3
 1036 0086 40F20003 		movw	r3, #:lower16:cfg_memset_list
 1037 008a C0F20003 		movt	r3, #:upper16:cfg_memset_list
 1038 008e 1344     		add	r3, r2, r3
 1039 0090 7B60     		str	r3, [r7, #4]
 528:.\Generated_Source\PSoC5/cyfitter_cfg.c **** 			CYMEMZERO(ms->address, ms->size);
 1040              		.loc 1 528 0
 1041 0092 7B68     		ldr	r3, [r7, #4]
 1042 0094 1A78     		ldrb	r2, [r3, #0]	@ zero_extendqisi2
 1043 0096 5978     		ldrb	r1, [r3, #1]	@ zero_extendqisi2
 1044 0098 4FEA0121 		lsl	r1, r1, #8
 1045 009c 41EA0202 		orr	r2, r1, r2
 1046 00a0 9978     		ldrb	r1, [r3, #2]	@ zero_extendqisi2
 1047 00a2 4FEA0141 		lsl	r1, r1, #16
 1048 00a6 41EA0202 		orr	r2, r1, r2
 1049 00aa DB78     		ldrb	r3, [r3, #3]	@ zero_extendqisi2
 1050 00ac 4FEA0363 		lsl	r3, r3, #24
 1051 00b0 43EA0203 		orr	r3, r3, r2
 1052 00b4 1A46     		mov	r2, r3
 1053 00b6 7B68     		ldr	r3, [r7, #4]
 1054 00b8 1979     		ldrb	r1, [r3, #4]	@ zero_extendqisi2
 1055 00ba 5B79     		ldrb	r3, [r3, #5]	@ zero_extendqisi2
 1056 00bc 4FEA0323 		lsl	r3, r3, #8
 1057 00c0 43EA0103 		orr	r3, r3, r1
 1058 00c4 9BB2     		uxth	r3, r3
 1059 00c6 1046     		mov	r0, r2
 1060 00c8 4FF00001 		mov	r1, #0
 1061 00cc 1A46     		mov	r2, r3
 1062 00ce FFF7FEFF 		bl	memset
 1063              	.LBE4:
 1064              		.loc 1 525 0
ARM GAS  C:\Users\arh\AppData\Local\Temp\cc67iDyk.s 			page 29


 1065 00d2 FB78     		ldrb	r3, [r7, #3]
 1066 00d4 03F10103 		add	r3, r3, #1
 1067 00d8 FB70     		strb	r3, [r7, #3]
 1068              	.L50:
 1069 00da FB78     		ldrb	r3, [r7, #3]	@ zero_extendqisi2
 1070 00dc 062B     		cmp	r3, #6
 1071 00de CAD9     		bls	.L51
 529:.\Generated_Source\PSoC5/cyfitter_cfg.c **** 		}
 530:.\Generated_Source\PSoC5/cyfitter_cfg.c **** 
 531:.\Generated_Source\PSoC5/cyfitter_cfg.c **** 		cfg_write_bytes32();
 1072              		.loc 1 531 0
 1073 00e0 FFF7FEFF 		bl	cfg_write_bytes32
 532:.\Generated_Source\PSoC5/cyfitter_cfg.c **** 
 533:.\Generated_Source\PSoC5/cyfitter_cfg.c **** 		/* Perform normal device configuration. Order is not critical for these items. */
 534:.\Generated_Source\PSoC5/cyfitter_cfg.c **** 		CYMEMZERO8((void CYFAR *)(CYDEV_PRTDSI_PRT0_BASE), 7);
 1074              		.loc 1 534 0
 1075 00e4 45F20020 		movw	r0, #:lower16:1073762816
 1076 00e8 C4F20000 		movt	r0, #:upper16:1073762816
 1077 00ec 4FF00701 		mov	r1, #7
 1078 00f0 FFF7FEFF 		bl	cymemzero8
 535:.\Generated_Source\PSoC5/cyfitter_cfg.c **** 		CYMEMZERO8((void CYFAR *)(CYDEV_PRTDSI_PRT1_BASE), 7);
 1079              		.loc 1 535 0
 1080 00f4 45F20820 		movw	r0, #:lower16:1073762824
 1081 00f8 C4F20000 		movt	r0, #:upper16:1073762824
 1082 00fc 4FF00701 		mov	r1, #7
 1083 0100 FFF7FEFF 		bl	cymemzero8
 536:.\Generated_Source\PSoC5/cyfitter_cfg.c **** 		CYMEMZERO8((void CYFAR *)(CYDEV_PRTDSI_PRT2_BASE), 7);
 1084              		.loc 1 536 0
 1085 0104 45F21020 		movw	r0, #:lower16:1073762832
 1086 0108 C4F20000 		movt	r0, #:upper16:1073762832
 1087 010c 4FF00701 		mov	r1, #7
 1088 0110 FFF7FEFF 		bl	cymemzero8
 537:.\Generated_Source\PSoC5/cyfitter_cfg.c **** 		CYMEMZERO8((void CYFAR *)(CYDEV_PRTDSI_PRT3_BASE), 7);
 1089              		.loc 1 537 0
 1090 0114 45F21820 		movw	r0, #:lower16:1073762840
 1091 0118 C4F20000 		movt	r0, #:upper16:1073762840
 1092 011c 4FF00701 		mov	r1, #7
 1093 0120 FFF7FEFF 		bl	cymemzero8
 538:.\Generated_Source\PSoC5/cyfitter_cfg.c **** 		CYMEMZERO8((void CYFAR *)(CYDEV_PRTDSI_PRT4_BASE), 7);
 1094              		.loc 1 538 0
 1095 0124 45F22020 		movw	r0, #:lower16:1073762848
 1096 0128 C4F20000 		movt	r0, #:upper16:1073762848
 1097 012c 4FF00701 		mov	r1, #7
 1098 0130 FFF7FEFF 		bl	cymemzero8
 539:.\Generated_Source\PSoC5/cyfitter_cfg.c **** 		CYMEMZERO8((void CYFAR *)(CYDEV_PRTDSI_PRT5_BASE), 7);
 1099              		.loc 1 539 0
 1100 0134 45F22820 		movw	r0, #:lower16:1073762856
 1101 0138 C4F20000 		movt	r0, #:upper16:1073762856
 1102 013c 4FF00701 		mov	r1, #7
 1103 0140 FFF7FEFF 		bl	cymemzero8
 540:.\Generated_Source\PSoC5/cyfitter_cfg.c **** 		CYMEMZERO8((void CYFAR *)(CYDEV_PRTDSI_PRT6_BASE), 7);
 1104              		.loc 1 540 0
 1105 0144 45F23020 		movw	r0, #:lower16:1073762864
 1106 0148 C4F20000 		movt	r0, #:upper16:1073762864
 1107 014c 4FF00701 		mov	r1, #7
 1108 0150 FFF7FEFF 		bl	cymemzero8
 541:.\Generated_Source\PSoC5/cyfitter_cfg.c **** 		CYCONFIGCPY8((void CYFAR *)(CYDEV_PRTDSI_PRT12_BASE), (void CYFAR *)(BS_IOPORT_7_VAL), 6);
ARM GAS  C:\Users\arh\AppData\Local\Temp\cc67iDyk.s 			page 30


 1109              		.loc 1 541 0
 1110 0154 45F26020 		movw	r0, #:lower16:1073762912
 1111 0158 C4F20000 		movt	r0, #:upper16:1073762912
 1112 015c 40F21411 		movw	r1, #:lower16:1207959828
 1113 0160 C4F60001 		movt	r1, #:upper16:1207959828
 1114 0164 4FF00602 		mov	r2, #6
 1115 0168 FFF7FEFF 		bl	cymemcpy8
 542:.\Generated_Source\PSoC5/cyfitter_cfg.c **** 		CYMEMZERO8((void CYFAR *)(CYDEV_PRTDSI_PRT15_BASE), 7);
 1116              		.loc 1 542 0
 1117 016c 45F27820 		movw	r0, #:lower16:1073762936
 1118 0170 C4F20000 		movt	r0, #:upper16:1073762936
 1119 0174 4FF00701 		mov	r1, #7
 1120 0178 FFF7FEFF 		bl	cymemzero8
 543:.\Generated_Source\PSoC5/cyfitter_cfg.c **** 
 544:.\Generated_Source\PSoC5/cyfitter_cfg.c **** 		/* Enable digital routing */
 545:.\Generated_Source\PSoC5/cyfitter_cfg.c **** 		CY_SET_XTND_REG8(CYREG_BCTL0_BANK_CTL, CY_GET_XTND_REG8(CYREG_BCTL0_BANK_CTL) | 0x02u);
 1121              		.loc 1 545 0
 1122 017c 45F20303 		movw	r3, #:lower16:1073827843
 1123 0180 C4F20103 		movt	r3, #:upper16:1073827843
 1124 0184 45F20302 		movw	r2, #:lower16:1073827843
 1125 0188 C4F20102 		movt	r2, #:upper16:1073827843
 1126 018c 1278     		ldrb	r2, [r2, #0]
 1127 018e D2B2     		uxtb	r2, r2
 1128 0190 42F00202 		orr	r2, r2, #2
 1129 0194 D2B2     		uxtb	r2, r2
 1130 0196 1A70     		strb	r2, [r3, #0]
 546:.\Generated_Source\PSoC5/cyfitter_cfg.c **** 		CY_SET_XTND_REG8(CYREG_BCTL1_BANK_CTL, CY_GET_XTND_REG8(CYREG_BCTL1_BANK_CTL) | 0x02u);
 1131              		.loc 1 546 0
 1132 0198 45F21303 		movw	r3, #:lower16:1073827859
 1133 019c C4F20103 		movt	r3, #:upper16:1073827859
 1134 01a0 45F21302 		movw	r2, #:lower16:1073827859
 1135 01a4 C4F20102 		movt	r2, #:upper16:1073827859
 1136 01a8 1278     		ldrb	r2, [r2, #0]
 1137 01aa D2B2     		uxtb	r2, r2
 1138 01ac 42F00202 		orr	r2, r2, #2
 1139 01b0 D2B2     		uxtb	r2, r2
 1140 01b2 1A70     		strb	r2, [r3, #0]
 547:.\Generated_Source\PSoC5/cyfitter_cfg.c **** 
 548:.\Generated_Source\PSoC5/cyfitter_cfg.c **** 		/* Enable UDB array */
 549:.\Generated_Source\PSoC5/cyfitter_cfg.c **** 		CY_SET_XTND_REG8(CYREG_PM_ACT_CFG0, CY_GET_XTND_REG8(CYREG_PM_ACT_CFG0) | 0x40u);
 1141              		.loc 1 549 0
 1142 01b4 44F2A033 		movw	r3, #:lower16:1073759136
 1143 01b8 C4F20003 		movt	r3, #:upper16:1073759136
 1144 01bc 44F2A032 		movw	r2, #:lower16:1073759136
 1145 01c0 C4F20002 		movt	r2, #:upper16:1073759136
 1146 01c4 1278     		ldrb	r2, [r2, #0]
 1147 01c6 D2B2     		uxtb	r2, r2
 1148 01c8 42F04002 		orr	r2, r2, #64
 1149 01cc D2B2     		uxtb	r2, r2
 1150 01ce 1A70     		strb	r2, [r3, #0]
 550:.\Generated_Source\PSoC5/cyfitter_cfg.c **** 		CY_SET_XTND_REG8(CYREG_PM_AVAIL_CR2, CY_GET_XTND_REG8(CYREG_PM_AVAIL_CR2) | 0x10u);
 1151              		.loc 1 550 0
 1152 01d0 44F2C233 		movw	r3, #:lower16:1073759170
 1153 01d4 C4F20003 		movt	r3, #:upper16:1073759170
 1154 01d8 44F2C232 		movw	r2, #:lower16:1073759170
 1155 01dc C4F20002 		movt	r2, #:upper16:1073759170
 1156 01e0 1278     		ldrb	r2, [r2, #0]
ARM GAS  C:\Users\arh\AppData\Local\Temp\cc67iDyk.s 			page 31


 1157 01e2 D2B2     		uxtb	r2, r2
 1158 01e4 42F01002 		orr	r2, r2, #16
 1159 01e8 D2B2     		uxtb	r2, r2
 1160 01ea 1A70     		strb	r2, [r3, #0]
 1161              	.LBE3:
 551:.\Generated_Source\PSoC5/cyfitter_cfg.c **** 	}
 552:.\Generated_Source\PSoC5/cyfitter_cfg.c **** 
 553:.\Generated_Source\PSoC5/cyfitter_cfg.c **** 	/* Perform second pass device configuration. These items must be configured in specific order afte
 554:.\Generated_Source\PSoC5/cyfitter_cfg.c **** 	CYCONFIGCPY((void CYFAR *)(CYREG_PRT0_DM0), (void CYFAR *)(BS_IOPINS0_0_VAL), 8);
 1162              		.loc 1 554 0
 1163 01ec 45F20210 		movw	r0, #:lower16:1073762562
 1164 01f0 C4F20000 		movt	r0, #:upper16:1073762562
 1165 01f4 40F2F001 		movw	r1, #:lower16:1207959792
 1166 01f8 C4F60001 		movt	r1, #:upper16:1207959792
 1167 01fc 4FF00802 		mov	r2, #8
 1168 0200 FFF7FEFF 		bl	memcpy
 555:.\Generated_Source\PSoC5/cyfitter_cfg.c **** 	CYCONFIGCPY((void CYFAR *)(CYREG_PRT1_DM0), (void CYFAR *)(BS_IOPINS0_1_VAL), 8);
 1169              		.loc 1 555 0
 1170 0204 45F21210 		movw	r0, #:lower16:1073762578
 1171 0208 C4F20000 		movt	r0, #:upper16:1073762578
 1172 020c 40F2F801 		movw	r1, #:lower16:1207959800
 1173 0210 C4F60001 		movt	r1, #:upper16:1207959800
 1174 0214 4FF00802 		mov	r2, #8
 1175 0218 FFF7FEFF 		bl	memcpy
 556:.\Generated_Source\PSoC5/cyfitter_cfg.c **** 	CYCONFIGCPY8((void CYFAR *)(CYREG_PRT12_DR), (void CYFAR *)(BS_IOPINS0_7_VAL), 10);
 1176              		.loc 1 556 0
 1177 021c 45F2C010 		movw	r0, #:lower16:1073762752
 1178 0220 C4F20000 		movt	r0, #:upper16:1073762752
 1179 0224 40F20011 		movw	r1, #:lower16:1207959808
 1180 0228 C4F60001 		movt	r1, #:upper16:1207959808
 1181 022c 4FF00A02 		mov	r2, #10
 1182 0230 FFF7FEFF 		bl	cymemcpy8
 557:.\Generated_Source\PSoC5/cyfitter_cfg.c **** 	CYCONFIGCPY((void CYFAR *)(CYREG_PRT2_DM0), (void CYFAR *)(BS_IOPINS0_2_VAL), 8);
 1183              		.loc 1 557 0
 1184 0234 45F22210 		movw	r0, #:lower16:1073762594
 1185 0238 C4F20000 		movt	r0, #:upper16:1073762594
 1186 023c 40F20C11 		movw	r1, #:lower16:1207959820
 1187 0240 C4F60001 		movt	r1, #:upper16:1207959820
 1188 0244 4FF00802 		mov	r2, #8
 1189 0248 FFF7FEFF 		bl	memcpy
 558:.\Generated_Source\PSoC5/cyfitter_cfg.c **** 
 559:.\Generated_Source\PSoC5/cyfitter_cfg.c **** 
 560:.\Generated_Source\PSoC5/cyfitter_cfg.c **** 	/* Perform basic analog initialization to defaults */
 561:.\Generated_Source\PSoC5/cyfitter_cfg.c **** 	AnalogSetDefault();
 1190              		.loc 1 561 0
 1191 024c FFF7FEFF 		bl	AnalogSetDefault
 562:.\Generated_Source\PSoC5/cyfitter_cfg.c **** 
 563:.\Generated_Source\PSoC5/cyfitter_cfg.c **** 	/* Configure alternate active mode */
 564:.\Generated_Source\PSoC5/cyfitter_cfg.c **** 	CYCONFIGCPY((void CYFAR *)CYDEV_PM_STBY_BASE, (void CYFAR *)CYDEV_PM_ACT_BASE, 12);
 1192              		.loc 1 564 0
 1193 0250 44F2B030 		movw	r0, #:lower16:1073759152
 1194 0254 C4F20000 		movt	r0, #:upper16:1073759152
 1195 0258 44F2A031 		movw	r1, #:lower16:1073759136
 1196 025c C4F20001 		movt	r1, #:upper16:1073759136
 1197 0260 4FF00C02 		mov	r2, #12
 1198 0264 FFF7FEFF 		bl	memcpy
 565:.\Generated_Source\PSoC5/cyfitter_cfg.c **** 	CY_SET_XTND_REG8(CYREG_PM_STBY_CFG0, CY_GET_XTND_REG8(CYREG_PM_STBY_CFG0) & ~0x02u);	/* Disable CP
ARM GAS  C:\Users\arh\AppData\Local\Temp\cc67iDyk.s 			page 32


 1199              		.loc 1 565 0
 1200 0268 44F2B033 		movw	r3, #:lower16:1073759152
 1201 026c C4F20003 		movt	r3, #:upper16:1073759152
 1202 0270 44F2B032 		movw	r2, #:lower16:1073759152
 1203 0274 C4F20002 		movt	r2, #:upper16:1073759152
 1204 0278 1278     		ldrb	r2, [r2, #0]
 1205 027a D2B2     		uxtb	r2, r2
 1206 027c 02F0FD02 		and	r2, r2, #253
 1207 0280 1A70     		strb	r2, [r3, #0]
 566:.\Generated_Source\PSoC5/cyfitter_cfg.c **** }
 1208              		.loc 1 566 0
 1209 0282 07F10807 		add	r7, r7, #8
 1210 0286 BD46     		mov	sp, r7
 1211 0288 80BD     		pop	{r7, pc}
 1212              		.cfi_endproc
 1213              	.LFE11:
 1214              		.size	cyfitter_cfg, .-cyfitter_cfg
 1215 028a 00BF     		.text
 1216              	.Letext0: