ARM GAS  C:\Users\arh\AppData\Local\Temp\cceF9wuN.s 			page 1


   1              		.syntax unified
   2              		.cpu cortex-m3
   3              		.fpu softvfp
   4              		.eabi_attribute 20, 1
   5              		.eabi_attribute 21, 1
   6              		.eabi_attribute 23, 3
   7              		.eabi_attribute 24, 1
   8              		.eabi_attribute 25, 1
   9              		.eabi_attribute 26, 1
  10              		.eabi_attribute 30, 6
  11              		.eabi_attribute 18, 4
  12              		.thumb
  13              		.file	"i2c.c"
  20 0000 71010000 		.text
  20      02005C00 
  20      00000201 
  20      FB0E0D00 
  20      01010101 
  21              	.Ltext0:
  22              		.cfi_sections	.debug_frame
  23              		.global	i2c_initVar
  24              		.bss
  25              		.type	i2c_initVar, %object
  26              		.size	i2c_initVar, 1
  27              	i2c_initVar:
  28 0000 00       		.space	1
  29              		.section	.text.i2c_Start,"ax",%progbits
  30              		.align	2
  31              		.global	i2c_Start
  32              		.thumb
  33              		.thumb_func
  34              		.type	i2c_Start, %function
  35              	i2c_Start:
  36              	.LFB0:
  37              		.file 1 ".\\Generated_Source\\PSoC5\\i2c.c"
   1:.\Generated_Source\PSoC5/i2c.c **** /*******************************************************************************
   2:.\Generated_Source\PSoC5/i2c.c **** * File Name: i2c.c
   3:.\Generated_Source\PSoC5/i2c.c **** * Version 1.70
   4:.\Generated_Source\PSoC5/i2c.c **** *
   5:.\Generated_Source\PSoC5/i2c.c **** * Description:
   6:.\Generated_Source\PSoC5/i2c.c **** *  This file contains the setup, control and status commands for the EzI2C
   7:.\Generated_Source\PSoC5/i2c.c **** *  component.  Actual protocol and operation code resides in the interrupt
   8:.\Generated_Source\PSoC5/i2c.c **** *  service routine file.
   9:.\Generated_Source\PSoC5/i2c.c **** *
  10:.\Generated_Source\PSoC5/i2c.c **** ********************************************************************************
  11:.\Generated_Source\PSoC5/i2c.c **** * Copyright 2008-2012, Cypress Semiconductor Corporation.  All rights reserved.
  12:.\Generated_Source\PSoC5/i2c.c **** * You may use this file only in accordance with the license, terms, conditions,
  13:.\Generated_Source\PSoC5/i2c.c **** * disclaimers, and limitations in the end user license agreement accompanying
  14:.\Generated_Source\PSoC5/i2c.c **** * the software package with which this file was provided.
  15:.\Generated_Source\PSoC5/i2c.c **** *******************************************************************************/
  16:.\Generated_Source\PSoC5/i2c.c **** 
ARM GAS  C:\Users\arh\AppData\Local\Temp\cceF9wuN.s 			page 2


  17:.\Generated_Source\PSoC5/i2c.c **** #include "i2c.h"
  18:.\Generated_Source\PSoC5/i2c.c **** #include "CyLib.h"
  19:.\Generated_Source\PSoC5/i2c.c **** 
  20:.\Generated_Source\PSoC5/i2c.c **** /* Current state of I2C state machine */
  21:.\Generated_Source\PSoC5/i2c.c **** extern volatile uint8 i2c_curState;
  22:.\Generated_Source\PSoC5/i2c.c **** 
  23:.\Generated_Source\PSoC5/i2c.c **** /* Status byte */
  24:.\Generated_Source\PSoC5/i2c.c **** extern volatile uint8 i2c_curStatus;
  25:.\Generated_Source\PSoC5/i2c.c **** 
  26:.\Generated_Source\PSoC5/i2c.c **** /* Pointer to data exposed to I2C Master */
  27:.\Generated_Source\PSoC5/i2c.c **** extern volatile uint8 * i2c_dataPtrS1;
  28:.\Generated_Source\PSoC5/i2c.c **** 
  29:.\Generated_Source\PSoC5/i2c.c **** #if(CY_PSOC3)
  30:.\Generated_Source\PSoC5/i2c.c ****     extern i2c_BACKUP_STRUCT  i2c_backup;
  31:.\Generated_Source\PSoC5/i2c.c **** #endif  /* (CY_PSOC3) */
  32:.\Generated_Source\PSoC5/i2c.c **** 
  33:.\Generated_Source\PSoC5/i2c.c **** #if(i2c_SUBADDR_WIDTH == i2c_SUBADDR_8BIT)
  34:.\Generated_Source\PSoC5/i2c.c **** 
  35:.\Generated_Source\PSoC5/i2c.c ****     /* Offset for read and write operations, set at each write sequence */
  36:.\Generated_Source\PSoC5/i2c.c ****     extern volatile uint8   i2c_rwOffsetS1;
  37:.\Generated_Source\PSoC5/i2c.c **** 
  38:.\Generated_Source\PSoC5/i2c.c ****     /* Points to next value to be read or written */
  39:.\Generated_Source\PSoC5/i2c.c ****     extern volatile uint8   i2c_rwIndexS1;
  40:.\Generated_Source\PSoC5/i2c.c **** 
  41:.\Generated_Source\PSoC5/i2c.c ****     /* Offset where data is read only */
  42:.\Generated_Source\PSoC5/i2c.c ****     extern volatile uint8   i2c_wrProtectS1;
  43:.\Generated_Source\PSoC5/i2c.c **** 
  44:.\Generated_Source\PSoC5/i2c.c ****     /* Size of array between 1 and 255 */
  45:.\Generated_Source\PSoC5/i2c.c ****     extern volatile uint8   i2c_bufSizeS1;
  46:.\Generated_Source\PSoC5/i2c.c **** 
  47:.\Generated_Source\PSoC5/i2c.c **** #else   /* 16 bit sub-address */
  48:.\Generated_Source\PSoC5/i2c.c **** 
  49:.\Generated_Source\PSoC5/i2c.c ****     /* Offset for read and write operations, set at each write sequence */
  50:.\Generated_Source\PSoC5/i2c.c ****     extern volatile uint16  i2c_rwOffsetS1;
  51:.\Generated_Source\PSoC5/i2c.c **** 
  52:.\Generated_Source\PSoC5/i2c.c ****     /* Points to next value to be read or written */
  53:.\Generated_Source\PSoC5/i2c.c ****     extern volatile uint16  i2c_rwIndexS1;
  54:.\Generated_Source\PSoC5/i2c.c **** 
  55:.\Generated_Source\PSoC5/i2c.c ****     /* Offset where data is read only */
  56:.\Generated_Source\PSoC5/i2c.c ****     extern volatile uint16  i2c_wrProtectS1;
  57:.\Generated_Source\PSoC5/i2c.c **** 
  58:.\Generated_Source\PSoC5/i2c.c ****     /* Size of array between 1 and 65535 */
  59:.\Generated_Source\PSoC5/i2c.c ****     extern volatile uint16  i2c_bufSizeS1;
  60:.\Generated_Source\PSoC5/i2c.c **** 
  61:.\Generated_Source\PSoC5/i2c.c **** #endif  /* (i2c_SUBADDR_WIDTH == i2c_SUBADDR_8BIT) */
  62:.\Generated_Source\PSoC5/i2c.c **** 
  63:.\Generated_Source\PSoC5/i2c.c **** 
  64:.\Generated_Source\PSoC5/i2c.c **** #if(i2c_ADDRESSES == i2c_TWO_ADDRESSES)
  65:.\Generated_Source\PSoC5/i2c.c **** 
  66:.\Generated_Source\PSoC5/i2c.c ****     /* Pointer to data exposed to I2C Master */
  67:.\Generated_Source\PSoC5/i2c.c ****     extern volatile uint8 * i2c_dataPtrS2;
  68:.\Generated_Source\PSoC5/i2c.c **** 
  69:.\Generated_Source\PSoC5/i2c.c ****     /* Software address compare 1 */
  70:.\Generated_Source\PSoC5/i2c.c ****     extern volatile uint8   i2c_addrS1;
  71:.\Generated_Source\PSoC5/i2c.c **** 
  72:.\Generated_Source\PSoC5/i2c.c ****     /* Software address compare 2 */
  73:.\Generated_Source\PSoC5/i2c.c ****     extern volatile uint8   i2c_addrS2;
ARM GAS  C:\Users\arh\AppData\Local\Temp\cceF9wuN.s 			page 3


  74:.\Generated_Source\PSoC5/i2c.c **** 
  75:.\Generated_Source\PSoC5/i2c.c ****     #if(i2c_SUBADDR_WIDTH == i2c_SUBADDR_8BIT)
  76:.\Generated_Source\PSoC5/i2c.c **** 
  77:.\Generated_Source\PSoC5/i2c.c ****         /* Offset for read and write operations, set at each write sequence */
  78:.\Generated_Source\PSoC5/i2c.c ****         extern volatile uint8   i2c_rwOffsetS2;
  79:.\Generated_Source\PSoC5/i2c.c **** 
  80:.\Generated_Source\PSoC5/i2c.c ****         /* Points to next value to be read or written */
  81:.\Generated_Source\PSoC5/i2c.c ****         extern volatile uint8   i2c_rwIndexS2;
  82:.\Generated_Source\PSoC5/i2c.c **** 
  83:.\Generated_Source\PSoC5/i2c.c ****         /* Offset where data is read only */
  84:.\Generated_Source\PSoC5/i2c.c ****         extern volatile uint8   i2c_wrProtectS2;
  85:.\Generated_Source\PSoC5/i2c.c **** 
  86:.\Generated_Source\PSoC5/i2c.c ****         /* Size of array between 1 and 255 */
  87:.\Generated_Source\PSoC5/i2c.c ****         extern volatile uint8   i2c_bufSizeS2;
  88:.\Generated_Source\PSoC5/i2c.c **** 
  89:.\Generated_Source\PSoC5/i2c.c ****     #else /* 16 bit subaddress */
  90:.\Generated_Source\PSoC5/i2c.c **** 
  91:.\Generated_Source\PSoC5/i2c.c ****         /* Offset for read and write operations, set at each write sequence */
  92:.\Generated_Source\PSoC5/i2c.c ****         extern volatile uint16  i2c_rwOffsetS2;
  93:.\Generated_Source\PSoC5/i2c.c **** 
  94:.\Generated_Source\PSoC5/i2c.c ****         /* Points to next value to be read or written */
  95:.\Generated_Source\PSoC5/i2c.c ****         extern volatile uint16  i2c_rwIndexS2;
  96:.\Generated_Source\PSoC5/i2c.c **** 
  97:.\Generated_Source\PSoC5/i2c.c ****         /* Offset where data is read only */
  98:.\Generated_Source\PSoC5/i2c.c ****         extern volatile uint16  i2c_wrProtectS2;
  99:.\Generated_Source\PSoC5/i2c.c **** 
 100:.\Generated_Source\PSoC5/i2c.c ****         /* Size of array between 1 and 65535 */
 101:.\Generated_Source\PSoC5/i2c.c ****         extern volatile uint16  i2c_bufSizeS2;
 102:.\Generated_Source\PSoC5/i2c.c **** 
 103:.\Generated_Source\PSoC5/i2c.c ****     #endif /* (i2c_SUBADDR_WIDTH == i2c_SUBADDR_8BIT) */
 104:.\Generated_Source\PSoC5/i2c.c **** 
 105:.\Generated_Source\PSoC5/i2c.c **** #endif /* (i2c_ADDRESSES == i2c_TWO_ADDRESSES) */
 106:.\Generated_Source\PSoC5/i2c.c **** 
 107:.\Generated_Source\PSoC5/i2c.c **** uint8 i2c_initVar = 0u;
 108:.\Generated_Source\PSoC5/i2c.c **** 
 109:.\Generated_Source\PSoC5/i2c.c **** 
 110:.\Generated_Source\PSoC5/i2c.c **** /*******************************************************************************
 111:.\Generated_Source\PSoC5/i2c.c **** * Function Name: i2c_Start
 112:.\Generated_Source\PSoC5/i2c.c **** ********************************************************************************
 113:.\Generated_Source\PSoC5/i2c.c **** *
 114:.\Generated_Source\PSoC5/i2c.c **** * Summary:
 115:.\Generated_Source\PSoC5/i2c.c **** *  Starts the component and enables the interupt. If this function is called at
 116:.\Generated_Source\PSoC5/i2c.c **** *  first (or i2c_initVar was cleared, then i2c_Init()
 117:.\Generated_Source\PSoC5/i2c.c **** *  function is called and all offsets and pointers are reset. Anyway, the
 118:.\Generated_Source\PSoC5/i2c.c **** *  state machine state is set to IDLE, status variable is cleared and the
 119:.\Generated_Source\PSoC5/i2c.c **** *  interrupt is enabled.
 120:.\Generated_Source\PSoC5/i2c.c **** *
 121:.\Generated_Source\PSoC5/i2c.c **** * Parameters:
 122:.\Generated_Source\PSoC5/i2c.c **** *  None
 123:.\Generated_Source\PSoC5/i2c.c **** *
 124:.\Generated_Source\PSoC5/i2c.c **** * Return:
 125:.\Generated_Source\PSoC5/i2c.c **** *  None
 126:.\Generated_Source\PSoC5/i2c.c **** *
 127:.\Generated_Source\PSoC5/i2c.c **** * Global variables:
 128:.\Generated_Source\PSoC5/i2c.c **** *  i2c_initVar - is used to indicate initial configuration
 129:.\Generated_Source\PSoC5/i2c.c **** *  of this component.  The variable is initialized to zero and set to 1
 130:.\Generated_Source\PSoC5/i2c.c **** *  the first time i2c_Start() is called. This allows for component
ARM GAS  C:\Users\arh\AppData\Local\Temp\cceF9wuN.s 			page 4


 131:.\Generated_Source\PSoC5/i2c.c **** *  initialization without re-initialization in all subsequent calls
 132:.\Generated_Source\PSoC5/i2c.c **** *  to the i2c_Start() routine.
 133:.\Generated_Source\PSoC5/i2c.c **** *
 134:.\Generated_Source\PSoC5/i2c.c **** *  i2c_dataPtrS1 global variable, which stores pointer to the
 135:.\Generated_Source\PSoC5/i2c.c **** *  data exposed to an I2C master for the first slave address is reset if
 136:.\Generated_Source\PSoC5/i2c.c **** *  i2c_initVar is set 0 by i2c_initVar function call.
 137:.\Generated_Source\PSoC5/i2c.c **** *
 138:.\Generated_Source\PSoC5/i2c.c **** *  i2c_rwOffsetS1 - global variable, which stores offset for read
 139:.\Generated_Source\PSoC5/i2c.c **** *  and write operations, is set at each write sequence of the first slave
 140:.\Generated_Source\PSoC5/i2c.c **** *  address is reset if i2c_initVar is 0, by
 141:.\Generated_Source\PSoC5/i2c.c **** *  i2c_initVar function call.
 142:.\Generated_Source\PSoC5/i2c.c **** *
 143:.\Generated_Source\PSoC5/i2c.c **** *  i2c_rwIndexS1 - global variable, which stores pointer to the
 144:.\Generated_Source\PSoC5/i2c.c **** *  next value to be read or written for the first slave address is reset if
 145:.\Generated_Source\PSoC5/i2c.c **** *  i2c_initVar is 0, by i2c_initVar function call.
 146:.\Generated_Source\PSoC5/i2c.c **** *
 147:.\Generated_Source\PSoC5/i2c.c **** * i2c_wrProtectS1 - global variable, which stores offset where data
 148:.\Generated_Source\PSoC5/i2c.c **** *  is read only for the first slave address is reset if
 149:.\Generated_Source\PSoC5/i2c.c **** *  i2c_initVar is 0, by i2c_initVar function call.
 150:.\Generated_Source\PSoC5/i2c.c **** *
 151:.\Generated_Source\PSoC5/i2c.c **** * i2c_bufSizeS1 - global variable, which stores size of data array
 152:.\Generated_Source\PSoC5/i2c.c **** *  exposed to an I2C master for the first slave address is reset if
 153:.\Generated_Source\PSoC5/i2c.c **** *  i2c_initVar is 0, by i2c_initVar function call.
 154:.\Generated_Source\PSoC5/i2c.c **** *
 155:.\Generated_Source\PSoC5/i2c.c **** *  i2c_dataPtrS2 - global variable, which stores pointer to the
 156:.\Generated_Source\PSoC5/i2c.c **** *  data exposed to an I2C master for the second slave address is reset if
 157:.\Generated_Source\PSoC5/i2c.c **** *  i2c_initVar is 0, by i2c_initVar function call.
 158:.\Generated_Source\PSoC5/i2c.c **** *
 159:.\Generated_Source\PSoC5/i2c.c **** *  i2c_rwOffsetS2 - global variable, which stores offset for read
 160:.\Generated_Source\PSoC5/i2c.c **** *  and write operations, is set at each write sequence of the second slave
 161:.\Generated_Source\PSoC5/i2c.c **** *  device is reset if i2c_initVar is 0, by i2c_initVar
 162:.\Generated_Source\PSoC5/i2c.c **** *  function call.
 163:.\Generated_Source\PSoC5/i2c.c **** *
 164:.\Generated_Source\PSoC5/i2c.c **** *  i2c_rwIndexS2 - global variable, which stores pointer to the
 165:.\Generated_Source\PSoC5/i2c.c **** *  next value to be read or written for the second slave address is reset if
 166:.\Generated_Source\PSoC5/i2c.c **** *  i2c_initVar is 0, by i2c_initVar function call.
 167:.\Generated_Source\PSoC5/i2c.c **** *
 168:.\Generated_Source\PSoC5/i2c.c **** * i2c_wrProtectS2 - global variable, which stores offset where data
 169:.\Generated_Source\PSoC5/i2c.c **** *  is read only for the second slave address is reset if
 170:.\Generated_Source\PSoC5/i2c.c **** *  i2c_initVar is 0, by i2c_initVar function call.
 171:.\Generated_Source\PSoC5/i2c.c **** *
 172:.\Generated_Source\PSoC5/i2c.c **** * i2c_bufSizeS2 - global variable, which stores size of data array
 173:.\Generated_Source\PSoC5/i2c.c **** *  exposed to an I2C master for the second slave address is reset if
 174:.\Generated_Source\PSoC5/i2c.c **** *  i2c_initVar is 0, by i2c_initVar function call.
 175:.\Generated_Source\PSoC5/i2c.c **** *
 176:.\Generated_Source\PSoC5/i2c.c **** * Side Effects:
 177:.\Generated_Source\PSoC5/i2c.c **** *  This component automatically enables it's interrupt. If I2C is enabled
 178:.\Generated_Source\PSoC5/i2c.c **** *  without the interrupt enabled, it could lock up the I2C bus.
 179:.\Generated_Source\PSoC5/i2c.c **** *
 180:.\Generated_Source\PSoC5/i2c.c **** * Reentrant:
 181:.\Generated_Source\PSoC5/i2c.c **** *  No
 182:.\Generated_Source\PSoC5/i2c.c **** *
 183:.\Generated_Source\PSoC5/i2c.c **** *******************************************************************************/
 184:.\Generated_Source\PSoC5/i2c.c **** void i2c_Start(void) 
 185:.\Generated_Source\PSoC5/i2c.c **** {
  38              		.loc 1 185 0
  39              		.cfi_startproc
ARM GAS  C:\Users\arh\AppData\Local\Temp\cceF9wuN.s 			page 5


  40              		@ args = 0, pretend = 0, frame = 0
  41              		@ frame_needed = 1, uses_anonymous_args = 0
  42 0000 80B5     		push	{r7, lr}
  43              	.LCFI0:
  44              		.cfi_def_cfa_offset 8
  45 0002 00AF     		add	r7, sp, #0
  46              		.cfi_offset 14, -4
  47              		.cfi_offset 7, -8
  48              	.LCFI1:
  49              		.cfi_def_cfa_register 7
 186:.\Generated_Source\PSoC5/i2c.c ****     if(0u == i2c_initVar)
  50              		.loc 1 186 0
  51 0004 40F20003 		movw	r3, #:lower16:i2c_initVar
  52 0008 C0F20003 		movt	r3, #:upper16:i2c_initVar
  53 000c 1B78     		ldrb	r3, [r3, #0]	@ zero_extendqisi2
  54 000e 002B     		cmp	r3, #0
  55 0010 08D1     		bne	.L2
 187:.\Generated_Source\PSoC5/i2c.c ****     {
 188:.\Generated_Source\PSoC5/i2c.c ****         /* Initialize component's parameters */
 189:.\Generated_Source\PSoC5/i2c.c ****         i2c_Init();
  56              		.loc 1 189 0
  57 0012 FFF7FEFF 		bl	i2c_Init
 190:.\Generated_Source\PSoC5/i2c.c **** 
 191:.\Generated_Source\PSoC5/i2c.c ****         /* Set init flag */
 192:.\Generated_Source\PSoC5/i2c.c ****         i2c_initVar = 1u;
  58              		.loc 1 192 0
  59 0016 40F20003 		movw	r3, #:lower16:i2c_initVar
  60 001a C0F20003 		movt	r3, #:upper16:i2c_initVar
  61 001e 4FF00102 		mov	r2, #1
  62 0022 1A70     		strb	r2, [r3, #0]
  63              	.L2:
 193:.\Generated_Source\PSoC5/i2c.c ****     }
 194:.\Generated_Source\PSoC5/i2c.c **** 
 195:.\Generated_Source\PSoC5/i2c.c ****     /* Enable slave mode for the device */
 196:.\Generated_Source\PSoC5/i2c.c ****     i2c_Enable();
  64              		.loc 1 196 0
  65 0024 FFF7FEFF 		bl	i2c_Enable
 197:.\Generated_Source\PSoC5/i2c.c **** }
  66              		.loc 1 197 0
  67 0028 80BD     		pop	{r7, pc}
  68              		.cfi_endproc
  69              	.LFE0:
  70              		.size	i2c_Start, .-i2c_Start
  71 002a 00BF     		.section	.text.i2c_Stop,"ax",%progbits
  72              		.align	2
  73              		.global	i2c_Stop
  74              		.thumb
  75              		.thumb_func
  76              		.type	i2c_Stop, %function
  77              	i2c_Stop:
  78              	.LFB1:
 198:.\Generated_Source\PSoC5/i2c.c **** 
 199:.\Generated_Source\PSoC5/i2c.c **** 
 200:.\Generated_Source\PSoC5/i2c.c **** /*******************************************************************************
 201:.\Generated_Source\PSoC5/i2c.c **** * Function Name: i2c_Stop
 202:.\Generated_Source\PSoC5/i2c.c **** ********************************************************************************
 203:.\Generated_Source\PSoC5/i2c.c **** *
ARM GAS  C:\Users\arh\AppData\Local\Temp\cceF9wuN.s 			page 6


 204:.\Generated_Source\PSoC5/i2c.c **** * Summary:
 205:.\Generated_Source\PSoC5/i2c.c **** *  Disable the I2C block's slave operation and the corresponding interrupt.
 206:.\Generated_Source\PSoC5/i2c.c **** *
 207:.\Generated_Source\PSoC5/i2c.c **** * Parameters:
 208:.\Generated_Source\PSoC5/i2c.c **** *  None
 209:.\Generated_Source\PSoC5/i2c.c **** *
 210:.\Generated_Source\PSoC5/i2c.c **** * Return:
 211:.\Generated_Source\PSoC5/i2c.c **** *  None
 212:.\Generated_Source\PSoC5/i2c.c **** *
 213:.\Generated_Source\PSoC5/i2c.c **** *******************************************************************************/
 214:.\Generated_Source\PSoC5/i2c.c **** void i2c_Stop(void) 
 215:.\Generated_Source\PSoC5/i2c.c **** {
  79              		.loc 1 215 0
  80              		.cfi_startproc
  81              		@ args = 0, pretend = 0, frame = 8
  82              		@ frame_needed = 1, uses_anonymous_args = 0
  83 0000 80B5     		push	{r7, lr}
  84              	.LCFI2:
  85              		.cfi_def_cfa_offset 8
  86 0002 82B0     		sub	sp, sp, #8
  87              	.LCFI3:
  88              		.cfi_def_cfa_offset 16
  89 0004 00AF     		add	r7, sp, #0
  90              		.cfi_offset 14, -4
  91              		.cfi_offset 7, -8
  92              	.LCFI4:
  93              		.cfi_def_cfa_register 7
 216:.\Generated_Source\PSoC5/i2c.c ****     uint8 interruptState;
 217:.\Generated_Source\PSoC5/i2c.c **** 
 218:.\Generated_Source\PSoC5/i2c.c ****     /* Disable Interrupt */
 219:.\Generated_Source\PSoC5/i2c.c ****     i2c_DisableInt();
  94              		.loc 1 219 0
  95 0006 FFF7FEFF 		bl	i2c_DisableInt
 220:.\Generated_Source\PSoC5/i2c.c **** 
 221:.\Generated_Source\PSoC5/i2c.c ****     #if(CY_PSOC3)
 222:.\Generated_Source\PSoC5/i2c.c **** 
 223:.\Generated_Source\PSoC5/i2c.c ****         /* Store resgisters which are held in reset when Slave is disabled */
 224:.\Generated_Source\PSoC5/i2c.c ****         i2c_backup.adr = i2c_ADDR_REG;
 225:.\Generated_Source\PSoC5/i2c.c ****         i2c_backup.clkDiv1  = i2c_CLKDIV1_REG;
 226:.\Generated_Source\PSoC5/i2c.c ****         i2c_backup.clkDiv2  = i2c_CLKDIV2_REG;
 227:.\Generated_Source\PSoC5/i2c.c **** 
 228:.\Generated_Source\PSoC5/i2c.c ****         /* Reset fixed-function block */
 229:.\Generated_Source\PSoC5/i2c.c ****         i2c_CFG_REG &= ~i2c_CFG_EN_SLAVE;
 230:.\Generated_Source\PSoC5/i2c.c ****         i2c_CFG_REG |= i2c_CFG_EN_SLAVE;
 231:.\Generated_Source\PSoC5/i2c.c **** 
 232:.\Generated_Source\PSoC5/i2c.c ****         /* Restore registers */
 233:.\Generated_Source\PSoC5/i2c.c ****         i2c_ADDR_REG = i2c_backup.adr;
 234:.\Generated_Source\PSoC5/i2c.c ****         i2c_CLKDIV1_REG = i2c_backup.clkDiv1;
 235:.\Generated_Source\PSoC5/i2c.c ****         i2c_CLKDIV2_REG = i2c_backup.clkDiv2;
 236:.\Generated_Source\PSoC5/i2c.c **** 
 237:.\Generated_Source\PSoC5/i2c.c ****     #endif  /* (CY_PSOC3) */
 238:.\Generated_Source\PSoC5/i2c.c **** 
 239:.\Generated_Source\PSoC5/i2c.c ****     /* Enter critical section */
 240:.\Generated_Source\PSoC5/i2c.c ****     interruptState = CyEnterCriticalSection();
  96              		.loc 1 240 0
  97 000a FFF7FEFF 		bl	CyEnterCriticalSection
  98 000e 0346     		mov	r3, r0
ARM GAS  C:\Users\arh\AppData\Local\Temp\cceF9wuN.s 			page 7


  99 0010 FB71     		strb	r3, [r7, #7]
 241:.\Generated_Source\PSoC5/i2c.c **** 
 242:.\Generated_Source\PSoC5/i2c.c ****     /* Disable I2C block in Active mode template */
 243:.\Generated_Source\PSoC5/i2c.c ****     i2c_PM_ACT_CFG_REG &= ~i2c_ACT_PWR_EN;
 100              		.loc 1 243 0
 101 0012 44F2A533 		movw	r3, #:lower16:1073759141
 102 0016 C4F20003 		movt	r3, #:upper16:1073759141
 103 001a 44F2A532 		movw	r2, #:lower16:1073759141
 104 001e C4F20002 		movt	r2, #:upper16:1073759141
 105 0022 1278     		ldrb	r2, [r2, #0]
 106 0024 D2B2     		uxtb	r2, r2
 107 0026 02F0FB02 		and	r2, r2, #251
 108 002a 1A70     		strb	r2, [r3, #0]
 244:.\Generated_Source\PSoC5/i2c.c **** 
 245:.\Generated_Source\PSoC5/i2c.c ****     /* Disable I2C block in Alternate Active (Standby) mode template */
 246:.\Generated_Source\PSoC5/i2c.c ****     i2c_PM_STBY_CFG_REG &= ~i2c_STBY_PWR_EN;
 109              		.loc 1 246 0
 110 002c 44F2B533 		movw	r3, #:lower16:1073759157
 111 0030 C4F20003 		movt	r3, #:upper16:1073759157
 112 0034 44F2B532 		movw	r2, #:lower16:1073759157
 113 0038 C4F20002 		movt	r2, #:upper16:1073759157
 114 003c 1278     		ldrb	r2, [r2, #0]
 115 003e D2B2     		uxtb	r2, r2
 116 0040 02F0FB02 		and	r2, r2, #251
 117 0044 1A70     		strb	r2, [r3, #0]
 247:.\Generated_Source\PSoC5/i2c.c **** 
 248:.\Generated_Source\PSoC5/i2c.c ****     /* Exit critical section */
 249:.\Generated_Source\PSoC5/i2c.c ****     CyExitCriticalSection(interruptState);
 118              		.loc 1 249 0
 119 0046 FB79     		ldrb	r3, [r7, #7]	@ zero_extendqisi2
 120 0048 1846     		mov	r0, r3
 121 004a FFF7FEFF 		bl	CyExitCriticalSection
 250:.\Generated_Source\PSoC5/i2c.c **** }
 122              		.loc 1 250 0
 123 004e 07F10807 		add	r7, r7, #8
 124 0052 BD46     		mov	sp, r7
 125 0054 80BD     		pop	{r7, pc}
 126              		.cfi_endproc
 127              	.LFE1:
 128              		.size	i2c_Stop, .-i2c_Stop
 129 0056 00BF     		.section	.text.i2c_EnableInt,"ax",%progbits
 130              		.align	2
 131              		.global	i2c_EnableInt
 132              		.thumb
 133              		.thumb_func
 134              		.type	i2c_EnableInt, %function
 135              	i2c_EnableInt:
 136              	.LFB2:
 251:.\Generated_Source\PSoC5/i2c.c **** 
 252:.\Generated_Source\PSoC5/i2c.c **** 
 253:.\Generated_Source\PSoC5/i2c.c **** /*******************************************************************************
 254:.\Generated_Source\PSoC5/i2c.c **** * Function Name: i2c_EnableInt
 255:.\Generated_Source\PSoC5/i2c.c **** ********************************************************************************
 256:.\Generated_Source\PSoC5/i2c.c **** *
 257:.\Generated_Source\PSoC5/i2c.c **** * Summary:
 258:.\Generated_Source\PSoC5/i2c.c **** *  Enables the interrupt service routine for the component.  This is normally
 259:.\Generated_Source\PSoC5/i2c.c **** *  handled with the start command.
ARM GAS  C:\Users\arh\AppData\Local\Temp\cceF9wuN.s 			page 8


 260:.\Generated_Source\PSoC5/i2c.c **** *
 261:.\Generated_Source\PSoC5/i2c.c **** * Parameters:
 262:.\Generated_Source\PSoC5/i2c.c **** *  None
 263:.\Generated_Source\PSoC5/i2c.c **** *
 264:.\Generated_Source\PSoC5/i2c.c **** * Return:
 265:.\Generated_Source\PSoC5/i2c.c **** *  None
 266:.\Generated_Source\PSoC5/i2c.c **** *
 267:.\Generated_Source\PSoC5/i2c.c **** *******************************************************************************/
 268:.\Generated_Source\PSoC5/i2c.c **** void i2c_EnableInt(void) 
 269:.\Generated_Source\PSoC5/i2c.c **** {
 137              		.loc 1 269 0
 138              		.cfi_startproc
 139              		@ args = 0, pretend = 0, frame = 0
 140              		@ frame_needed = 1, uses_anonymous_args = 0
 141 0000 80B5     		push	{r7, lr}
 142              	.LCFI5:
 143              		.cfi_def_cfa_offset 8
 144 0002 00AF     		add	r7, sp, #0
 145              		.cfi_offset 14, -4
 146              		.cfi_offset 7, -8
 147              	.LCFI6:
 148              		.cfi_def_cfa_register 7
 270:.\Generated_Source\PSoC5/i2c.c ****     /* Enable interrupt */
 271:.\Generated_Source\PSoC5/i2c.c ****     CyIntEnable(i2c_ISR_NUMBER);
 149              		.loc 1 271 0
 150 0004 4FF00000 		mov	r0, #0
 151 0008 FFF7FEFF 		bl	CyIntEnable
 272:.\Generated_Source\PSoC5/i2c.c **** }
 152              		.loc 1 272 0
 153 000c 80BD     		pop	{r7, pc}
 154              		.cfi_endproc
 155              	.LFE2:
 156              		.size	i2c_EnableInt, .-i2c_EnableInt
 157 000e 00BF     		.section	.text.i2c_DisableInt,"ax",%progbits
 158              		.align	2
 159              		.global	i2c_DisableInt
 160              		.thumb
 161              		.thumb_func
 162              		.type	i2c_DisableInt, %function
 163              	i2c_DisableInt:
 164              	.LFB3:
 273:.\Generated_Source\PSoC5/i2c.c **** 
 274:.\Generated_Source\PSoC5/i2c.c **** 
 275:.\Generated_Source\PSoC5/i2c.c **** /*******************************************************************************
 276:.\Generated_Source\PSoC5/i2c.c **** * Function Name: i2c_DisableInt
 277:.\Generated_Source\PSoC5/i2c.c **** ********************************************************************************
 278:.\Generated_Source\PSoC5/i2c.c **** *
 279:.\Generated_Source\PSoC5/i2c.c **** * Summary:
 280:.\Generated_Source\PSoC5/i2c.c **** *  Disable I2C interrupts. Normally this function is not required since the
 281:.\Generated_Source\PSoC5/i2c.c **** *  Stop function disables the interrupt. If the I2C interrupt is disabled while
 282:.\Generated_Source\PSoC5/i2c.c **** *  the I2C master is still running, it may cause the I2C bus to lock up.
 283:.\Generated_Source\PSoC5/i2c.c **** *
 284:.\Generated_Source\PSoC5/i2c.c **** * Parameters:
 285:.\Generated_Source\PSoC5/i2c.c **** *  None
 286:.\Generated_Source\PSoC5/i2c.c **** *
 287:.\Generated_Source\PSoC5/i2c.c **** * Return:
 288:.\Generated_Source\PSoC5/i2c.c **** *  None
ARM GAS  C:\Users\arh\AppData\Local\Temp\cceF9wuN.s 			page 9


 289:.\Generated_Source\PSoC5/i2c.c **** *
 290:.\Generated_Source\PSoC5/i2c.c **** * Side Effects:
 291:.\Generated_Source\PSoC5/i2c.c **** *  If the I2C interrupt is disabled and the master is addressing the current
 292:.\Generated_Source\PSoC5/i2c.c **** *  slave, the bus will be locked until the interrupt is re-enabled.
 293:.\Generated_Source\PSoC5/i2c.c **** *
 294:.\Generated_Source\PSoC5/i2c.c **** *******************************************************************************/
 295:.\Generated_Source\PSoC5/i2c.c **** void i2c_DisableInt(void) 
 296:.\Generated_Source\PSoC5/i2c.c **** {
 165              		.loc 1 296 0
 166              		.cfi_startproc
 167              		@ args = 0, pretend = 0, frame = 0
 168              		@ frame_needed = 1, uses_anonymous_args = 0
 169 0000 80B5     		push	{r7, lr}
 170              	.LCFI7:
 171              		.cfi_def_cfa_offset 8
 172 0002 00AF     		add	r7, sp, #0
 173              		.cfi_offset 14, -4
 174              		.cfi_offset 7, -8
 175              	.LCFI8:
 176              		.cfi_def_cfa_register 7
 297:.\Generated_Source\PSoC5/i2c.c ****     /* Disable interrupt */
 298:.\Generated_Source\PSoC5/i2c.c ****     CyIntDisable(i2c_ISR_NUMBER);
 177              		.loc 1 298 0
 178 0004 4FF00000 		mov	r0, #0
 179 0008 FFF7FEFF 		bl	CyIntDisable
 299:.\Generated_Source\PSoC5/i2c.c **** }
 180              		.loc 1 299 0
 181 000c 80BD     		pop	{r7, pc}
 182              		.cfi_endproc
 183              	.LFE3:
 184              		.size	i2c_DisableInt, .-i2c_DisableInt
 185 000e 00BF     		.section	.text.i2c_SetAddress1,"ax",%progbits
 186              		.align	2
 187              		.global	i2c_SetAddress1
 188              		.thumb
 189              		.thumb_func
 190              		.type	i2c_SetAddress1, %function
 191              	i2c_SetAddress1:
 192              	.LFB4:
 300:.\Generated_Source\PSoC5/i2c.c **** 
 301:.\Generated_Source\PSoC5/i2c.c **** 
 302:.\Generated_Source\PSoC5/i2c.c **** /*******************************************************************************
 303:.\Generated_Source\PSoC5/i2c.c **** * Function Name: i2c_SetAddress1
 304:.\Generated_Source\PSoC5/i2c.c **** ********************************************************************************
 305:.\Generated_Source\PSoC5/i2c.c **** *
 306:.\Generated_Source\PSoC5/i2c.c **** * Summary:
 307:.\Generated_Source\PSoC5/i2c.c **** *  This function sets the main address of this I2C slave device. This value may
 308:.\Generated_Source\PSoC5/i2c.c **** *  be any value between 0 and 127.
 309:.\Generated_Source\PSoC5/i2c.c **** *
 310:.\Generated_Source\PSoC5/i2c.c **** * Parameters:
 311:.\Generated_Source\PSoC5/i2c.c **** *  address:  The 7-bit slave address between 0 and 127.
 312:.\Generated_Source\PSoC5/i2c.c **** *
 313:.\Generated_Source\PSoC5/i2c.c **** * Return:
 314:.\Generated_Source\PSoC5/i2c.c **** *  None
 315:.\Generated_Source\PSoC5/i2c.c **** *
 316:.\Generated_Source\PSoC5/i2c.c **** * Global variables:
 317:.\Generated_Source\PSoC5/i2c.c **** *  i2c_addrS1 - the new slave address for the first slave device is
ARM GAS  C:\Users\arh\AppData\Local\Temp\cceF9wuN.s 			page 10


 318:.\Generated_Source\PSoC5/i2c.c **** *  saved in it, if the component is configured to act as two slave devices.
 319:.\Generated_Source\PSoC5/i2c.c **** *
 320:.\Generated_Source\PSoC5/i2c.c **** * Reentrant:
 321:.\Generated_Source\PSoC5/i2c.c **** *  No, if two addresses are used.
 322:.\Generated_Source\PSoC5/i2c.c **** *
 323:.\Generated_Source\PSoC5/i2c.c **** *******************************************************************************/
 324:.\Generated_Source\PSoC5/i2c.c **** void i2c_SetAddress1(uint8 address) 
 325:.\Generated_Source\PSoC5/i2c.c **** {
 193              		.loc 1 325 0
 194              		.cfi_startproc
 195              		@ args = 0, pretend = 0, frame = 8
 196              		@ frame_needed = 1, uses_anonymous_args = 0
 197              		@ link register save eliminated.
 198 0000 80B4     		push	{r7}
 199              	.LCFI9:
 200              		.cfi_def_cfa_offset 4
 201 0002 83B0     		sub	sp, sp, #12
 202              	.LCFI10:
 203              		.cfi_def_cfa_offset 16
 204 0004 00AF     		add	r7, sp, #0
 205              		.cfi_offset 7, -4
 206              	.LCFI11:
 207              		.cfi_def_cfa_register 7
 208 0006 0346     		mov	r3, r0
 209 0008 FB71     		strb	r3, [r7, #7]
 326:.\Generated_Source\PSoC5/i2c.c ****     #if(i2c_ADDRESSES == i2c_TWO_ADDRESSES)
 327:.\Generated_Source\PSoC5/i2c.c **** 
 328:.\Generated_Source\PSoC5/i2c.c ****         /* Address is stored in variable */
 329:.\Generated_Source\PSoC5/i2c.c ****         i2c_addrS1  = address & i2c_SADDR_MASK;
 330:.\Generated_Source\PSoC5/i2c.c **** 
 331:.\Generated_Source\PSoC5/i2c.c ****     #else
 332:.\Generated_Source\PSoC5/i2c.c **** 
 333:.\Generated_Source\PSoC5/i2c.c ****         /* Address is stored in hardware */
 334:.\Generated_Source\PSoC5/i2c.c ****         i2c_ADDR_REG = address & i2c_SADDR_MASK;
 210              		.loc 1 334 0
 211 000a 44F6CA13 		movw	r3, #:lower16:1073760714
 212 000e C4F20003 		movt	r3, #:upper16:1073760714
 213 0012 FA79     		ldrb	r2, [r7, #7]	@ zero_extendqisi2
 214 0014 02F07F02 		and	r2, r2, #127
 215 0018 1A70     		strb	r2, [r3, #0]
 335:.\Generated_Source\PSoC5/i2c.c **** 
 336:.\Generated_Source\PSoC5/i2c.c ****     #endif /* (i2c_ADDRESSES == i2c_TWO_ADDRESSES) */
 337:.\Generated_Source\PSoC5/i2c.c **** }
 216              		.loc 1 337 0
 217 001a 07F10C07 		add	r7, r7, #12
 218 001e BD46     		mov	sp, r7
 219 0020 80BC     		pop	{r7}
 220 0022 7047     		bx	lr
 221              		.cfi_endproc
 222              	.LFE4:
 223              		.size	i2c_SetAddress1, .-i2c_SetAddress1
 224              		.section	.text.i2c_GetAddress1,"ax",%progbits
 225              		.align	2
 226              		.global	i2c_GetAddress1
 227              		.thumb
 228              		.thumb_func
 229              		.type	i2c_GetAddress1, %function
ARM GAS  C:\Users\arh\AppData\Local\Temp\cceF9wuN.s 			page 11


 230              	i2c_GetAddress1:
 231              	.LFB5:
 338:.\Generated_Source\PSoC5/i2c.c **** 
 339:.\Generated_Source\PSoC5/i2c.c **** 
 340:.\Generated_Source\PSoC5/i2c.c **** /*******************************************************************************
 341:.\Generated_Source\PSoC5/i2c.c **** * Function Name: i2c_GetAddress1
 342:.\Generated_Source\PSoC5/i2c.c **** ********************************************************************************
 343:.\Generated_Source\PSoC5/i2c.c **** *
 344:.\Generated_Source\PSoC5/i2c.c **** * Summary:
 345:.\Generated_Source\PSoC5/i2c.c **** *  Returns address of the first slave device.
 346:.\Generated_Source\PSoC5/i2c.c **** *
 347:.\Generated_Source\PSoC5/i2c.c **** * Parameters:
 348:.\Generated_Source\PSoC5/i2c.c **** *  None
 349:.\Generated_Source\PSoC5/i2c.c **** *
 350:.\Generated_Source\PSoC5/i2c.c **** * Return:
 351:.\Generated_Source\PSoC5/i2c.c **** *  If the component is configured to has two slave addresses than primary
 352:.\Generated_Source\PSoC5/i2c.c **** *  address is returned, otherwise address from the the address register is
 353:.\Generated_Source\PSoC5/i2c.c **** *  returned.
 354:.\Generated_Source\PSoC5/i2c.c **** *
 355:.\Generated_Source\PSoC5/i2c.c **** * Global variables:
 356:.\Generated_Source\PSoC5/i2c.c **** *  i2c_addrS1 - if component is configured to has two slave
 357:.\Generated_Source\PSoC5/i2c.c **** *  addresses than primary address is saved here, otherwise address is written to
 358:.\Generated_Source\PSoC5/i2c.c **** *  the register.
 359:.\Generated_Source\PSoC5/i2c.c **** *
 360:.\Generated_Source\PSoC5/i2c.c **** * Reentrant:
 361:.\Generated_Source\PSoC5/i2c.c **** *  No
 362:.\Generated_Source\PSoC5/i2c.c **** *
 363:.\Generated_Source\PSoC5/i2c.c **** *******************************************************************************/
 364:.\Generated_Source\PSoC5/i2c.c **** uint8 i2c_GetAddress1(void) 
 365:.\Generated_Source\PSoC5/i2c.c **** {
 232              		.loc 1 365 0
 233              		.cfi_startproc
 234              		@ args = 0, pretend = 0, frame = 0
 235              		@ frame_needed = 1, uses_anonymous_args = 0
 236              		@ link register save eliminated.
 237 0000 80B4     		push	{r7}
 238              	.LCFI12:
 239              		.cfi_def_cfa_offset 4
 240 0002 00AF     		add	r7, sp, #0
 241              		.cfi_offset 7, -4
 242              	.LCFI13:
 243              		.cfi_def_cfa_register 7
 366:.\Generated_Source\PSoC5/i2c.c ****     /* Get 1st slave address */
 367:.\Generated_Source\PSoC5/i2c.c ****     #if(i2c_ADDRESSES == i2c_TWO_ADDRESSES)
 368:.\Generated_Source\PSoC5/i2c.c **** 
 369:.\Generated_Source\PSoC5/i2c.c ****         /* Return address from variable */
 370:.\Generated_Source\PSoC5/i2c.c ****         return(i2c_addrS1);
 371:.\Generated_Source\PSoC5/i2c.c **** 
 372:.\Generated_Source\PSoC5/i2c.c ****     #else
 373:.\Generated_Source\PSoC5/i2c.c **** 
 374:.\Generated_Source\PSoC5/i2c.c ****         /* Return address from hardware */
 375:.\Generated_Source\PSoC5/i2c.c ****         return(i2c_ADDR_REG);
 244              		.loc 1 375 0
 245 0004 44F6CA13 		movw	r3, #:lower16:1073760714
 246 0008 C4F20003 		movt	r3, #:upper16:1073760714
 247 000c 1B78     		ldrb	r3, [r3, #0]
 248 000e DBB2     		uxtb	r3, r3
ARM GAS  C:\Users\arh\AppData\Local\Temp\cceF9wuN.s 			page 12


 376:.\Generated_Source\PSoC5/i2c.c **** 
 377:.\Generated_Source\PSoC5/i2c.c ****     #endif /* (i2c_ADDRESSES == i2c_TWO_ADDRESSES) */
 378:.\Generated_Source\PSoC5/i2c.c **** }
 249              		.loc 1 378 0
 250 0010 1846     		mov	r0, r3
 251 0012 BD46     		mov	sp, r7
 252 0014 80BC     		pop	{r7}
 253 0016 7047     		bx	lr
 254              		.cfi_endproc
 255              	.LFE5:
 256              		.size	i2c_GetAddress1, .-i2c_GetAddress1
 257              		.section	.text.i2c_GetActivity,"ax",%progbits
 258              		.align	2
 259              		.global	i2c_GetActivity
 260              		.thumb
 261              		.thumb_func
 262              		.type	i2c_GetActivity, %function
 263              	i2c_GetActivity:
 264              	.LFB6:
 379:.\Generated_Source\PSoC5/i2c.c **** 
 380:.\Generated_Source\PSoC5/i2c.c **** 
 381:.\Generated_Source\PSoC5/i2c.c **** /*******************************************************************************
 382:.\Generated_Source\PSoC5/i2c.c **** * Function Name: i2c_GetActivity
 383:.\Generated_Source\PSoC5/i2c.c **** ********************************************************************************
 384:.\Generated_Source\PSoC5/i2c.c **** *
 385:.\Generated_Source\PSoC5/i2c.c **** * Summary:
 386:.\Generated_Source\PSoC5/i2c.c **** *  This function returns a nonzero value if the I2C read or write cycle
 387:.\Generated_Source\PSoC5/i2c.c **** *  occurred since the last time this function was called.  The activity
 388:.\Generated_Source\PSoC5/i2c.c **** *  flag resets to zero at the end of this function call.
 389:.\Generated_Source\PSoC5/i2c.c **** *  The Read and Write busy flags are cleared when read, but the "BUSY"
 390:.\Generated_Source\PSoC5/i2c.c **** *  flag is only cleared by an I2C Stop.
 391:.\Generated_Source\PSoC5/i2c.c **** *
 392:.\Generated_Source\PSoC5/i2c.c **** * Parameters:
 393:.\Generated_Source\PSoC5/i2c.c **** *  None
 394:.\Generated_Source\PSoC5/i2c.c **** *
 395:.\Generated_Source\PSoC5/i2c.c **** * Return:
 396:.\Generated_Source\PSoC5/i2c.c **** *  A non-zero value is returned if activity is detected:
 397:.\Generated_Source\PSoC5/i2c.c **** *   i2c_STATUS_READ1   Set if Read sequence is detected for first
 398:.\Generated_Source\PSoC5/i2c.c **** *                                   address. Cleared when status read.
 399:.\Generated_Source\PSoC5/i2c.c **** *
 400:.\Generated_Source\PSoC5/i2c.c **** *   i2c_STATUS_WRITE1  Set if Write sequence is detected for first
 401:.\Generated_Source\PSoC5/i2c.c **** *                                   address. Cleared when status read.
 402:.\Generated_Source\PSoC5/i2c.c **** *
 403:.\Generated_Source\PSoC5/i2c.c **** *   i2c_STATUS_READ2   Set if Read sequence is detected for second
 404:.\Generated_Source\PSoC5/i2c.c **** *                                   address (if enabled). Cleared when status
 405:.\Generated_Source\PSoC5/i2c.c **** *                                   read.
 406:.\Generated_Source\PSoC5/i2c.c **** *
 407:.\Generated_Source\PSoC5/i2c.c **** *   i2c_STATUS_WRITE2  Set if Write sequence is detected for second
 408:.\Generated_Source\PSoC5/i2c.c **** *                                   address (if enabled). Cleared when status
 409:.\Generated_Source\PSoC5/i2c.c **** *                                   read.
 410:.\Generated_Source\PSoC5/i2c.c **** *
 411:.\Generated_Source\PSoC5/i2c.c **** *   i2c_STATUS_BUSY    Set if Start detected, cleared when stop
 412:.\Generated_Source\PSoC5/i2c.c **** *                                   detected.
 413:.\Generated_Source\PSoC5/i2c.c **** *
 414:.\Generated_Source\PSoC5/i2c.c **** *   i2c_STATUS_ERR     Set when I2C hardware detected, cleared
 415:.\Generated_Source\PSoC5/i2c.c **** *                                   when status read.
 416:.\Generated_Source\PSoC5/i2c.c **** *
ARM GAS  C:\Users\arh\AppData\Local\Temp\cceF9wuN.s 			page 13


 417:.\Generated_Source\PSoC5/i2c.c **** * Global variables:
 418:.\Generated_Source\PSoC5/i2c.c **** *  i2c_curStatus - global variable, which stores the current
 419:.\Generated_Source\PSoC5/i2c.c **** *  component status.
 420:.\Generated_Source\PSoC5/i2c.c **** *
 421:.\Generated_Source\PSoC5/i2c.c **** * Reentrant:
 422:.\Generated_Source\PSoC5/i2c.c **** *  No
 423:.\Generated_Source\PSoC5/i2c.c **** *
 424:.\Generated_Source\PSoC5/i2c.c **** *******************************************************************************/
 425:.\Generated_Source\PSoC5/i2c.c **** uint8 i2c_GetActivity(void) 
 426:.\Generated_Source\PSoC5/i2c.c **** {
 265              		.loc 1 426 0
 266              		.cfi_startproc
 267              		@ args = 0, pretend = 0, frame = 8
 268              		@ frame_needed = 1, uses_anonymous_args = 0
 269              		@ link register save eliminated.
 270 0000 80B4     		push	{r7}
 271              	.LCFI14:
 272              		.cfi_def_cfa_offset 4
 273 0002 83B0     		sub	sp, sp, #12
 274              	.LCFI15:
 275              		.cfi_def_cfa_offset 16
 276 0004 00AF     		add	r7, sp, #0
 277              		.cfi_offset 7, -4
 278              	.LCFI16:
 279              		.cfi_def_cfa_register 7
 427:.\Generated_Source\PSoC5/i2c.c ****     uint8 tmpStatus;
 428:.\Generated_Source\PSoC5/i2c.c **** 
 429:.\Generated_Source\PSoC5/i2c.c ****     tmpStatus = i2c_curStatus;
 280              		.loc 1 429 0
 281 0006 40F20003 		movw	r3, #:lower16:i2c_curStatus
 282 000a C0F20003 		movt	r3, #:upper16:i2c_curStatus
 283 000e 1B78     		ldrb	r3, [r3, #0]
 284 0010 FB71     		strb	r3, [r7, #7]
 430:.\Generated_Source\PSoC5/i2c.c **** 
 431:.\Generated_Source\PSoC5/i2c.c ****     /* Clear status, but no Busy one */
 432:.\Generated_Source\PSoC5/i2c.c ****     i2c_curStatus &= i2c_STATUS_BUSY;
 285              		.loc 1 432 0
 286 0012 40F20003 		movw	r3, #:lower16:i2c_curStatus
 287 0016 C0F20003 		movt	r3, #:upper16:i2c_curStatus
 288 001a 1B78     		ldrb	r3, [r3, #0]
 289 001c DBB2     		uxtb	r3, r3
 290 001e 1A46     		mov	r2, r3
 291 0020 02F01002 		and	r2, r2, #16
 292 0024 40F20003 		movw	r3, #:lower16:i2c_curStatus
 293 0028 C0F20003 		movt	r3, #:upper16:i2c_curStatus
 294 002c 1A70     		strb	r2, [r3, #0]
 433:.\Generated_Source\PSoC5/i2c.c **** 
 434:.\Generated_Source\PSoC5/i2c.c ****     return(tmpStatus);
 295              		.loc 1 434 0
 296 002e FB79     		ldrb	r3, [r7, #7]	@ zero_extendqisi2
 435:.\Generated_Source\PSoC5/i2c.c **** }
 297              		.loc 1 435 0
 298 0030 1846     		mov	r0, r3
 299 0032 07F10C07 		add	r7, r7, #12
 300 0036 BD46     		mov	sp, r7
 301 0038 80BC     		pop	{r7}
 302 003a 7047     		bx	lr
ARM GAS  C:\Users\arh\AppData\Local\Temp\cceF9wuN.s 			page 14


 303              		.cfi_endproc
 304              	.LFE6:
 305              		.size	i2c_GetActivity, .-i2c_GetActivity
 306              		.section	.text.i2c_SetBuffer1,"ax",%progbits
 307              		.align	2
 308              		.global	i2c_SetBuffer1
 309              		.thumb
 310              		.thumb_func
 311              		.type	i2c_SetBuffer1, %function
 312              	i2c_SetBuffer1:
 313              	.LFB7:
 436:.\Generated_Source\PSoC5/i2c.c **** 
 437:.\Generated_Source\PSoC5/i2c.c **** 
 438:.\Generated_Source\PSoC5/i2c.c **** /*******************************************************************************
 439:.\Generated_Source\PSoC5/i2c.c **** * Function Name: i2c_SetBuffer1
 440:.\Generated_Source\PSoC5/i2c.c **** ********************************************************************************
 441:.\Generated_Source\PSoC5/i2c.c **** *
 442:.\Generated_Source\PSoC5/i2c.c **** * Summary:
 443:.\Generated_Source\PSoC5/i2c.c **** *  This function sets the buffer, size of the buffer, and the R/W boundry
 444:.\Generated_Source\PSoC5/i2c.c **** *  for the memory buffer.
 445:.\Generated_Source\PSoC5/i2c.c **** *
 446:.\Generated_Source\PSoC5/i2c.c **** * Parameters:
 447:.\Generated_Source\PSoC5/i2c.c **** *  size:  Size of the buffer in bytes.
 448:.\Generated_Source\PSoC5/i2c.c **** *
 449:.\Generated_Source\PSoC5/i2c.c **** *  rwBoundry: Sets how many bytes are writable in the beginning of the buffer.
 450:.\Generated_Source\PSoC5/i2c.c **** *  This value must be less than or equal to the buffer size.
 451:.\Generated_Source\PSoC5/i2c.c **** *
 452:.\Generated_Source\PSoC5/i2c.c **** *  dataPtr:  Pointer to the data buffer.
 453:.\Generated_Source\PSoC5/i2c.c **** *
 454:.\Generated_Source\PSoC5/i2c.c **** * Return:
 455:.\Generated_Source\PSoC5/i2c.c **** *  None
 456:.\Generated_Source\PSoC5/i2c.c **** *
 457:.\Generated_Source\PSoC5/i2c.c **** * Global variables:
 458:.\Generated_Source\PSoC5/i2c.c **** *  i2c_dataPtrS1 - stores pointer to the data exposed to an I2C
 459:.\Generated_Source\PSoC5/i2c.c **** *  master for the first slave address is modified with the the new pointer to
 460:.\Generated_Source\PSoC5/i2c.c **** *  data, passed by function parameter.
 461:.\Generated_Source\PSoC5/i2c.c **** *
 462:.\Generated_Source\PSoC5/i2c.c **** *  i2c_rwOffsetS1 - stores offset for read and write operations, is
 463:.\Generated_Source\PSoC5/i2c.c **** *  modified at each write sequence of the first slave address is reset.
 464:.\Generated_Source\PSoC5/i2c.c **** *
 465:.\Generated_Source\PSoC5/i2c.c **** *  i2c_rwIndexS1 - stores pointer to the next value to be read or
 466:.\Generated_Source\PSoC5/i2c.c **** *  written for the first slave address is set to 0.
 467:.\Generated_Source\PSoC5/i2c.c **** *
 468:.\Generated_Source\PSoC5/i2c.c **** * Reentrant:
 469:.\Generated_Source\PSoC5/i2c.c **** *  No
 470:.\Generated_Source\PSoC5/i2c.c **** *
 471:.\Generated_Source\PSoC5/i2c.c **** * Side Effects:
 472:.\Generated_Source\PSoC5/i2c.c **** *  It is recommended to disable component interrupt before calling this function
 473:.\Generated_Source\PSoC5/i2c.c **** *  and enable it afterwards for the proper component operation.
 474:.\Generated_Source\PSoC5/i2c.c **** *
 475:.\Generated_Source\PSoC5/i2c.c **** *******************************************************************************/
 476:.\Generated_Source\PSoC5/i2c.c **** void i2c_SetBuffer1(uint16 bufSize, uint16 rwBoundry, void * dataPtr) 
 477:.\Generated_Source\PSoC5/i2c.c **** {
 314              		.loc 1 477 0
 315              		.cfi_startproc
 316              		@ args = 0, pretend = 0, frame = 8
 317              		@ frame_needed = 1, uses_anonymous_args = 0
ARM GAS  C:\Users\arh\AppData\Local\Temp\cceF9wuN.s 			page 15


 318              		@ link register save eliminated.
 319 0000 80B4     		push	{r7}
 320              	.LCFI17:
 321              		.cfi_def_cfa_offset 4
 322 0002 83B0     		sub	sp, sp, #12
 323              	.LCFI18:
 324              		.cfi_def_cfa_offset 16
 325 0004 00AF     		add	r7, sp, #0
 326              		.cfi_offset 7, -4
 327              	.LCFI19:
 328              		.cfi_def_cfa_register 7
 329 0006 0B46     		mov	r3, r1
 330 0008 3A60     		str	r2, [r7, #0]
 331 000a 0246     		mov	r2, r0	@ movhi
 332 000c FA80     		strh	r2, [r7, #6]	@ movhi
 333 000e BB80     		strh	r3, [r7, #4]	@ movhi
 478:.\Generated_Source\PSoC5/i2c.c ****     /* Set pointer to data and clear index and offset. */
 479:.\Generated_Source\PSoC5/i2c.c ****     i2c_dataPtrS1   = dataPtr;
 334              		.loc 1 479 0
 335 0010 3A68     		ldr	r2, [r7, #0]
 336 0012 40F20003 		movw	r3, #:lower16:i2c_dataPtrS1
 337 0016 C0F20003 		movt	r3, #:upper16:i2c_dataPtrS1
 338 001a 1A60     		str	r2, [r3, #0]
 480:.\Generated_Source\PSoC5/i2c.c ****     i2c_rwOffsetS1  = 0u;
 339              		.loc 1 480 0
 340 001c 40F20003 		movw	r3, #:lower16:i2c_rwOffsetS1
 341 0020 C0F20003 		movt	r3, #:upper16:i2c_rwOffsetS1
 342 0024 4FF00002 		mov	r2, #0
 343 0028 1A70     		strb	r2, [r3, #0]
 481:.\Generated_Source\PSoC5/i2c.c ****     i2c_rwIndexS1   = 0u;
 344              		.loc 1 481 0
 345 002a 40F20003 		movw	r3, #:lower16:i2c_rwIndexS1
 346 002e C0F20003 		movt	r3, #:upper16:i2c_rwIndexS1
 347 0032 4FF00002 		mov	r2, #0
 348 0036 1A70     		strb	r2, [r3, #0]
 482:.\Generated_Source\PSoC5/i2c.c **** 
 483:.\Generated_Source\PSoC5/i2c.c ****     #if(i2c_SUBADDR_WIDTH == i2c_SUBADDR_8BIT)
 484:.\Generated_Source\PSoC5/i2c.c ****         i2c_bufSizeS1   = (uint8) bufSize;
 349              		.loc 1 484 0
 350 0038 FB88     		ldrh	r3, [r7, #6]	@ movhi
 351 003a DAB2     		uxtb	r2, r3
 352 003c 40F20003 		movw	r3, #:lower16:i2c_bufSizeS1
 353 0040 C0F20003 		movt	r3, #:upper16:i2c_bufSizeS1
 354 0044 1A70     		strb	r2, [r3, #0]
 485:.\Generated_Source\PSoC5/i2c.c ****         i2c_wrProtectS1 = (uint8) rwBoundry;
 355              		.loc 1 485 0
 356 0046 BB88     		ldrh	r3, [r7, #4]	@ movhi
 357 0048 DAB2     		uxtb	r2, r3
 358 004a 40F20003 		movw	r3, #:lower16:i2c_wrProtectS1
 359 004e C0F20003 		movt	r3, #:upper16:i2c_wrProtectS1
 360 0052 1A70     		strb	r2, [r3, #0]
 486:.\Generated_Source\PSoC5/i2c.c ****     #else
 487:.\Generated_Source\PSoC5/i2c.c ****         i2c_bufSizeS1   = bufSize;
 488:.\Generated_Source\PSoC5/i2c.c ****         i2c_wrProtectS1 = rwBoundry;
 489:.\Generated_Source\PSoC5/i2c.c ****     #endif /* (i2c_SUBADDR_WIDTH == i2c_SUBADDR_8BIT) */
 490:.\Generated_Source\PSoC5/i2c.c **** }
 361              		.loc 1 490 0
ARM GAS  C:\Users\arh\AppData\Local\Temp\cceF9wuN.s 			page 16


 362 0054 07F10C07 		add	r7, r7, #12
 363 0058 BD46     		mov	sp, r7
 364 005a 80BC     		pop	{r7}
 365 005c 7047     		bx	lr
 366              		.cfi_endproc
 367              	.LFE7:
 368              		.size	i2c_SetBuffer1, .-i2c_SetBuffer1
 369 005e 00BF     		.section	.text.i2c_SlaveSetSleepMode,"ax",%progbits
 370              		.align	2
 371              		.global	i2c_SlaveSetSleepMode
 372              		.thumb
 373              		.thumb_func
 374              		.type	i2c_SlaveSetSleepMode, %function
 375              	i2c_SlaveSetSleepMode:
 376              	.LFB8:
 491:.\Generated_Source\PSoC5/i2c.c **** 
 492:.\Generated_Source\PSoC5/i2c.c **** 
 493:.\Generated_Source\PSoC5/i2c.c **** #if (i2c_ADDRESSES == i2c_ONE_ADDRESS)
 494:.\Generated_Source\PSoC5/i2c.c ****     /*******************************************************************************
 495:.\Generated_Source\PSoC5/i2c.c ****     * Function Name: i2c_SlaveSetSleepMode
 496:.\Generated_Source\PSoC5/i2c.c ****     ********************************************************************************
 497:.\Generated_Source\PSoC5/i2c.c ****     *
 498:.\Generated_Source\PSoC5/i2c.c ****     * Summary:
 499:.\Generated_Source\PSoC5/i2c.c ****     *  Disables the run time I2C regulator and enables the sleep Slave I2C.
 500:.\Generated_Source\PSoC5/i2c.c ****     *  Should be called just prior to entering sleep. This function is only
 501:.\Generated_Source\PSoC5/i2c.c ****     *  provided if a single I2C address is used.
 502:.\Generated_Source\PSoC5/i2c.c ****     *
 503:.\Generated_Source\PSoC5/i2c.c ****     * Parameters:
 504:.\Generated_Source\PSoC5/i2c.c ****     *  None
 505:.\Generated_Source\PSoC5/i2c.c ****     *
 506:.\Generated_Source\PSoC5/i2c.c ****     * Return:
 507:.\Generated_Source\PSoC5/i2c.c ****     *  None
 508:.\Generated_Source\PSoC5/i2c.c ****     *
 509:.\Generated_Source\PSoC5/i2c.c ****     * Side Effects:
 510:.\Generated_Source\PSoC5/i2c.c ****     *  The I2C interrupt will be disabled if Wake up from Sleep mode option is
 511:.\Generated_Source\PSoC5/i2c.c ****     *  enabled (only for PSoC3).
 512:.\Generated_Source\PSoC5/i2c.c ****     *
 513:.\Generated_Source\PSoC5/i2c.c ****     *******************************************************************************/
 514:.\Generated_Source\PSoC5/i2c.c ****     void i2c_SlaveSetSleepMode(void) 
 515:.\Generated_Source\PSoC5/i2c.c ****     {
 377              		.loc 1 515 0
 378              		.cfi_startproc
 379              		@ args = 0, pretend = 0, frame = 0
 380              		@ frame_needed = 1, uses_anonymous_args = 0
 381              		@ link register save eliminated.
 382 0000 80B4     		push	{r7}
 383              	.LCFI20:
 384              		.cfi_def_cfa_offset 4
 385 0002 00AF     		add	r7, sp, #0
 386              		.cfi_offset 7, -4
 387              	.LCFI21:
 388              		.cfi_def_cfa_register 7
 516:.\Generated_Source\PSoC5/i2c.c ****         #if(CY_PSOC3 || CY_PSOC5A)
 517:.\Generated_Source\PSoC5/i2c.c **** 
 518:.\Generated_Source\PSoC5/i2c.c ****             /* if I2C block will be used as wake up source */
 519:.\Generated_Source\PSoC5/i2c.c ****             #if(i2c_ENABLE_WAKEUP == 1u)
 520:.\Generated_Source\PSoC5/i2c.c **** 
ARM GAS  C:\Users\arh\AppData\Local\Temp\cceF9wuN.s 			page 17


 521:.\Generated_Source\PSoC5/i2c.c ****                 uint8 interruptState;
 522:.\Generated_Source\PSoC5/i2c.c **** 
 523:.\Generated_Source\PSoC5/i2c.c ****                 /* Enter critical section */
 524:.\Generated_Source\PSoC5/i2c.c ****                 interruptState = CyEnterCriticalSection();
 525:.\Generated_Source\PSoC5/i2c.c **** 
 526:.\Generated_Source\PSoC5/i2c.c ****                 /* Enable the I2C regulator backup */
 527:.\Generated_Source\PSoC5/i2c.c ****                 i2c_PWRSYS_CR1_REG |= i2c_PWRSYS_CR1_I2C_BACKUP;
 528:.\Generated_Source\PSoC5/i2c.c **** 
 529:.\Generated_Source\PSoC5/i2c.c ****                 /* Exit critical section */
 530:.\Generated_Source\PSoC5/i2c.c ****                 CyExitCriticalSection(interruptState);
 531:.\Generated_Source\PSoC5/i2c.c **** 
 532:.\Generated_Source\PSoC5/i2c.c ****                 /* Set force nack before putting the device to power off mode.
 533:.\Generated_Source\PSoC5/i2c.c ****                 *  It is cleared on wake up.
 534:.\Generated_Source\PSoC5/i2c.c ****                 */
 535:.\Generated_Source\PSoC5/i2c.c ****                 i2c_XCFG_REG |= i2c_XCFG_FORCE_NACK;
 536:.\Generated_Source\PSoC5/i2c.c ****                 while(0u == (i2c_XCFG_REG & i2c_XCFG_SLEEP_READY))
 537:.\Generated_Source\PSoC5/i2c.c ****                 {
 538:.\Generated_Source\PSoC5/i2c.c ****                     /* Waits for ongoing transaction to be completed. */
 539:.\Generated_Source\PSoC5/i2c.c ****                 }
 540:.\Generated_Source\PSoC5/i2c.c **** 
 541:.\Generated_Source\PSoC5/i2c.c ****                 /* Disable interrupt for proper wake up procedure */
 542:.\Generated_Source\PSoC5/i2c.c ****                 i2c_DisableInt();
 543:.\Generated_Source\PSoC5/i2c.c **** 
 544:.\Generated_Source\PSoC5/i2c.c ****             #endif  /* (i2c_ENABLE_WAKEUP == 1u) */
 545:.\Generated_Source\PSoC5/i2c.c **** 
 546:.\Generated_Source\PSoC5/i2c.c ****         #endif  /* (CY_PSOC3 || CY_PSOC5A) */
 547:.\Generated_Source\PSoC5/i2c.c ****     }
 389              		.loc 1 547 0
 390 0004 BD46     		mov	sp, r7
 391 0006 80BC     		pop	{r7}
 392 0008 7047     		bx	lr
 393              		.cfi_endproc
 394              	.LFE8:
 395              		.size	i2c_SlaveSetSleepMode, .-i2c_SlaveSetSleepMode
 396 000a 00BF     		.section	.text.i2c_SlaveSetWakeMode,"ax",%progbits
 397              		.align	2
 398              		.global	i2c_SlaveSetWakeMode
 399              		.thumb
 400              		.thumb_func
 401              		.type	i2c_SlaveSetWakeMode, %function
 402              	i2c_SlaveSetWakeMode:
 403              	.LFB9:
 548:.\Generated_Source\PSoC5/i2c.c **** 
 549:.\Generated_Source\PSoC5/i2c.c **** 
 550:.\Generated_Source\PSoC5/i2c.c ****     /*******************************************************************************
 551:.\Generated_Source\PSoC5/i2c.c ****     * Function Name: i2c_SlaveSetWakeMode
 552:.\Generated_Source\PSoC5/i2c.c ****     ********************************************************************************
 553:.\Generated_Source\PSoC5/i2c.c ****     *
 554:.\Generated_Source\PSoC5/i2c.c ****     * Summary:
 555:.\Generated_Source\PSoC5/i2c.c ****     *  Disables the sleep EzI2C slave and re-enables the run time I2C.  Should be
 556:.\Generated_Source\PSoC5/i2c.c ****     *  called just after awaking from sleep.  Must preserve address to continue.
 557:.\Generated_Source\PSoC5/i2c.c ****     *  This function is only provided if a single I2C address is used.
 558:.\Generated_Source\PSoC5/i2c.c ****     *
 559:.\Generated_Source\PSoC5/i2c.c ****     * Parameters:
 560:.\Generated_Source\PSoC5/i2c.c ****     *  None
 561:.\Generated_Source\PSoC5/i2c.c ****     *
 562:.\Generated_Source\PSoC5/i2c.c ****     * Return:
ARM GAS  C:\Users\arh\AppData\Local\Temp\cceF9wuN.s 			page 18


 563:.\Generated_Source\PSoC5/i2c.c ****     *  None
 564:.\Generated_Source\PSoC5/i2c.c ****     *
 565:.\Generated_Source\PSoC5/i2c.c ****     * Side Effects:
 566:.\Generated_Source\PSoC5/i2c.c ****     *  The I2C interrupt will be enabled if Wake up from Sleep mode option is
 567:.\Generated_Source\PSoC5/i2c.c ****     *  enabled (only for PSoC3).
 568:.\Generated_Source\PSoC5/i2c.c ****     *
 569:.\Generated_Source\PSoC5/i2c.c ****     *******************************************************************************/
 570:.\Generated_Source\PSoC5/i2c.c ****     void i2c_SlaveSetWakeMode(void) 
 571:.\Generated_Source\PSoC5/i2c.c ****     {
 404              		.loc 1 571 0
 405              		.cfi_startproc
 406              		@ args = 0, pretend = 0, frame = 0
 407              		@ frame_needed = 1, uses_anonymous_args = 0
 408              		@ link register save eliminated.
 409 0000 80B4     		push	{r7}
 410              	.LCFI22:
 411              		.cfi_def_cfa_offset 4
 412 0002 00AF     		add	r7, sp, #0
 413              		.cfi_offset 7, -4
 414              	.LCFI23:
 415              		.cfi_def_cfa_register 7
 572:.\Generated_Source\PSoC5/i2c.c ****         #if(CY_PSOC3 || CY_PSOC5A)
 573:.\Generated_Source\PSoC5/i2c.c **** 
 574:.\Generated_Source\PSoC5/i2c.c ****             /* if I2C block will be used as wake up source */
 575:.\Generated_Source\PSoC5/i2c.c ****             #if(i2c_ENABLE_WAKEUP == 1u)
 576:.\Generated_Source\PSoC5/i2c.c **** 
 577:.\Generated_Source\PSoC5/i2c.c ****                 uint8 interruptState;
 578:.\Generated_Source\PSoC5/i2c.c **** 
 579:.\Generated_Source\PSoC5/i2c.c ****                 /* Enter critical section */
 580:.\Generated_Source\PSoC5/i2c.c ****                 interruptState = CyEnterCriticalSection();
 581:.\Generated_Source\PSoC5/i2c.c **** 
 582:.\Generated_Source\PSoC5/i2c.c ****                 /* Disable the I2C regulator backup */
 583:.\Generated_Source\PSoC5/i2c.c ****                 i2c_PWRSYS_CR1_REG &= ~i2c_PWRSYS_CR1_I2C_BACKUP;
 584:.\Generated_Source\PSoC5/i2c.c **** 
 585:.\Generated_Source\PSoC5/i2c.c ****                 /* Exit critical section */
 586:.\Generated_Source\PSoC5/i2c.c ****                 CyExitCriticalSection(interruptState);
 587:.\Generated_Source\PSoC5/i2c.c **** 
 588:.\Generated_Source\PSoC5/i2c.c ****                 /* Enable interrupt. The ISR is supposed to ready to be executed. */
 589:.\Generated_Source\PSoC5/i2c.c ****                 i2c_EnableInt();
 590:.\Generated_Source\PSoC5/i2c.c **** 
 591:.\Generated_Source\PSoC5/i2c.c ****             #endif  /* (i2c_ENABLE_WAKEUP == 1u) */
 592:.\Generated_Source\PSoC5/i2c.c **** 
 593:.\Generated_Source\PSoC5/i2c.c ****         #endif  /* (CY_PSOC3 || CY_PSOC5A) */ 
 594:.\Generated_Source\PSoC5/i2c.c ****     }
 416              		.loc 1 594 0
 417 0004 BD46     		mov	sp, r7
 418 0006 80BC     		pop	{r7}
 419 0008 7047     		bx	lr
 420              		.cfi_endproc
 421              	.LFE9:
 422              		.size	i2c_SlaveSetWakeMode, .-i2c_SlaveSetWakeMode
 423 000a 00BF     		.section	.text.i2c_Init,"ax",%progbits
 424              		.align	2
 425              		.global	i2c_Init
 426              		.thumb
 427              		.thumb_func
 428              		.type	i2c_Init, %function
ARM GAS  C:\Users\arh\AppData\Local\Temp\cceF9wuN.s 			page 19


 429              	i2c_Init:
 430              	.LFB10:
 595:.\Generated_Source\PSoC5/i2c.c **** 
 596:.\Generated_Source\PSoC5/i2c.c **** #endif /* (i2c_ADDRESSES == i2c_ONE_ADDRESS) */
 597:.\Generated_Source\PSoC5/i2c.c **** 
 598:.\Generated_Source\PSoC5/i2c.c **** 
 599:.\Generated_Source\PSoC5/i2c.c **** #if (i2c_ADDRESSES == i2c_TWO_ADDRESSES)
 600:.\Generated_Source\PSoC5/i2c.c ****     /*******************************************************************************
 601:.\Generated_Source\PSoC5/i2c.c ****     * Function Name: i2c_SetBuffer2
 602:.\Generated_Source\PSoC5/i2c.c ****     ********************************************************************************
 603:.\Generated_Source\PSoC5/i2c.c ****     *
 604:.\Generated_Source\PSoC5/i2c.c ****     * Summary:
 605:.\Generated_Source\PSoC5/i2c.c ****     *  This function sets the buffer pointer, size and read/write area for the
 606:.\Generated_Source\PSoC5/i2c.c ****     *  second slave data. This is the data that is exposed to the I2C Master
 607:.\Generated_Source\PSoC5/i2c.c ****     *  for the second I2C address. This function is only provided if two I2C
 608:.\Generated_Source\PSoC5/i2c.c ****     *  addresses have been selected in the user parameters.
 609:.\Generated_Source\PSoC5/i2c.c ****     *
 610:.\Generated_Source\PSoC5/i2c.c ****     * Parameters:
 611:.\Generated_Source\PSoC5/i2c.c ****     *  bufSize:  Size of the buffer exposed to the I2C master.
 612:.\Generated_Source\PSoC5/i2c.c ****     *
 613:.\Generated_Source\PSoC5/i2c.c ****     *  rwBoundry: Sets how many bytes are readable and writable by the the I2C
 614:.\Generated_Source\PSoC5/i2c.c ****     *  master. This value must be less than or equal to the buffer size. Data
 615:.\Generated_Source\PSoC5/i2c.c ****     *  located at offset rwBoundry and above are read only.
 616:.\Generated_Source\PSoC5/i2c.c ****     *
 617:.\Generated_Source\PSoC5/i2c.c ****     *  dataPtr:  This is a pointer to the data array or structure that is used
 618:.\Generated_Source\PSoC5/i2c.c ****     *  for the I2C data buffer.
 619:.\Generated_Source\PSoC5/i2c.c ****     *
 620:.\Generated_Source\PSoC5/i2c.c ****     * Return:
 621:.\Generated_Source\PSoC5/i2c.c ****     *  None
 622:.\Generated_Source\PSoC5/i2c.c ****     *
 623:.\Generated_Source\PSoC5/i2c.c ****     * Global variables:
 624:.\Generated_Source\PSoC5/i2c.c ****     *  i2c_dataPtrS2 - stores pointer to the data exposed to an I2C
 625:.\Generated_Source\PSoC5/i2c.c ****     *  master for the second slave address is modified with the the new pointer to
 626:.\Generated_Source\PSoC5/i2c.c ****     *  data, passed by function parameter.
 627:.\Generated_Source\PSoC5/i2c.c ****     *
 628:.\Generated_Source\PSoC5/i2c.c ****     *  i2c_rwOffsetS2 - stores offset for read and write operations,
 629:.\Generated_Source\PSoC5/i2c.c ****     *  is modified at each write sequence of the second slave address is reset.
 630:.\Generated_Source\PSoC5/i2c.c ****     *
 631:.\Generated_Source\PSoC5/i2c.c ****     *  i2c_rwIndexS2 - stores pointer to the next value to be read or
 632:.\Generated_Source\PSoC5/i2c.c ****     *  written for the second slave address is set to 0.
 633:.\Generated_Source\PSoC5/i2c.c ****     *
 634:.\Generated_Source\PSoC5/i2c.c ****     * Reentrant:
 635:.\Generated_Source\PSoC5/i2c.c ****     *  No
 636:.\Generated_Source\PSoC5/i2c.c ****     *
 637:.\Generated_Source\PSoC5/i2c.c ****     * Side Effects:
 638:.\Generated_Source\PSoC5/i2c.c ****     *  It is recommended to disable component interrupt before calling this
 639:.\Generated_Source\PSoC5/i2c.c ****     *  function and enable it afterwards for the proper component operation.
 640:.\Generated_Source\PSoC5/i2c.c ****     *
 641:.\Generated_Source\PSoC5/i2c.c ****     *******************************************************************************/
 642:.\Generated_Source\PSoC5/i2c.c ****     void i2c_SetBuffer2(uint16 bufSize, uint16 rwBoundry, void * dataPtr) 
 643:.\Generated_Source\PSoC5/i2c.c ****     {
 644:.\Generated_Source\PSoC5/i2c.c ****         /* Set pointer to data and clear index and offset. */
 645:.\Generated_Source\PSoC5/i2c.c ****         i2c_dataPtrS2   = dataPtr;
 646:.\Generated_Source\PSoC5/i2c.c ****         i2c_rwOffsetS2  = 0u;
 647:.\Generated_Source\PSoC5/i2c.c ****         i2c_rwIndexS2   = 0u;
 648:.\Generated_Source\PSoC5/i2c.c **** 
 649:.\Generated_Source\PSoC5/i2c.c ****         #if(i2c_SUBADDR_WIDTH == i2c_SUBADDR_8BIT)
ARM GAS  C:\Users\arh\AppData\Local\Temp\cceF9wuN.s 			page 20


 650:.\Generated_Source\PSoC5/i2c.c ****             i2c_bufSizeS2   = (uint8) bufSize;
 651:.\Generated_Source\PSoC5/i2c.c ****             i2c_wrProtectS2 = (uint8) rwBoundry;
 652:.\Generated_Source\PSoC5/i2c.c ****         #else
 653:.\Generated_Source\PSoC5/i2c.c ****             i2c_bufSizeS2   = bufSize;
 654:.\Generated_Source\PSoC5/i2c.c ****             i2c_wrProtectS2 = rwBoundry;
 655:.\Generated_Source\PSoC5/i2c.c ****         #endif /* (i2c_SUBADDR_WIDTH == i2c_SUBADDR_8BIT) */
 656:.\Generated_Source\PSoC5/i2c.c ****     }
 657:.\Generated_Source\PSoC5/i2c.c **** 
 658:.\Generated_Source\PSoC5/i2c.c **** 
 659:.\Generated_Source\PSoC5/i2c.c ****     /*******************************************************************************
 660:.\Generated_Source\PSoC5/i2c.c ****     * Function Name: i2c_SetAddress2
 661:.\Generated_Source\PSoC5/i2c.c ****     ********************************************************************************
 662:.\Generated_Source\PSoC5/i2c.c ****     *
 663:.\Generated_Source\PSoC5/i2c.c ****     * Summary:
 664:.\Generated_Source\PSoC5/i2c.c ****     *  Sets the I2C slave address for the second device. This value may be any
 665:.\Generated_Source\PSoC5/i2c.c ****     *  value between 0 and 127. This function is only provided if two I2C
 666:.\Generated_Source\PSoC5/i2c.c ****     *  addresses have been selected in the user parameters.
 667:.\Generated_Source\PSoC5/i2c.c ****     *
 668:.\Generated_Source\PSoC5/i2c.c ****     * Parameters:
 669:.\Generated_Source\PSoC5/i2c.c ****     *  address:  The 7-bit slave address between 0 and 127.
 670:.\Generated_Source\PSoC5/i2c.c ****     *
 671:.\Generated_Source\PSoC5/i2c.c ****     * Return:
 672:.\Generated_Source\PSoC5/i2c.c ****     *  None
 673:.\Generated_Source\PSoC5/i2c.c ****     *
 674:.\Generated_Source\PSoC5/i2c.c ****     * Global variables:
 675:.\Generated_Source\PSoC5/i2c.c ****     *  i2c_addrS2 - the secondary slave address is modified.
 676:.\Generated_Source\PSoC5/i2c.c ****     *
 677:.\Generated_Source\PSoC5/i2c.c ****     * Reentrant:
 678:.\Generated_Source\PSoC5/i2c.c ****     *  No
 679:.\Generated_Source\PSoC5/i2c.c ****     *
 680:.\Generated_Source\PSoC5/i2c.c ****     *******************************************************************************/
 681:.\Generated_Source\PSoC5/i2c.c ****     void i2c_SetAddress2(uint8 address) 
 682:.\Generated_Source\PSoC5/i2c.c ****     {
 683:.\Generated_Source\PSoC5/i2c.c ****         /* Set slave address */
 684:.\Generated_Source\PSoC5/i2c.c ****         i2c_addrS2  = address & i2c_SADDR_MASK;
 685:.\Generated_Source\PSoC5/i2c.c ****     }
 686:.\Generated_Source\PSoC5/i2c.c **** 
 687:.\Generated_Source\PSoC5/i2c.c **** 
 688:.\Generated_Source\PSoC5/i2c.c ****     /*******************************************************************************
 689:.\Generated_Source\PSoC5/i2c.c ****     * Function Name: i2c_GetAddress2
 690:.\Generated_Source\PSoC5/i2c.c ****     ********************************************************************************
 691:.\Generated_Source\PSoC5/i2c.c ****     *
 692:.\Generated_Source\PSoC5/i2c.c ****     * Summary:
 693:.\Generated_Source\PSoC5/i2c.c ****     *  Returns the I2C slave address for the second device. This function is only
 694:.\Generated_Source\PSoC5/i2c.c ****     *  provided if two I2C addresses have been selected in the user parameters.
 695:.\Generated_Source\PSoC5/i2c.c ****     *
 696:.\Generated_Source\PSoC5/i2c.c ****     * Parameters:
 697:.\Generated_Source\PSoC5/i2c.c ****     *  i2c_addrS2 - global variable, which stores the second I2C
 698:.\Generated_Source\PSoC5/i2c.c ****     *   address.
 699:.\Generated_Source\PSoC5/i2c.c ****     *
 700:.\Generated_Source\PSoC5/i2c.c ****     * Return:
 701:.\Generated_Source\PSoC5/i2c.c ****     *  The secondary I2C slave address.
 702:.\Generated_Source\PSoC5/i2c.c ****     *
 703:.\Generated_Source\PSoC5/i2c.c ****     * Global variables:
 704:.\Generated_Source\PSoC5/i2c.c ****     *  i2c_addrS2 - the secondary slave address is used.
 705:.\Generated_Source\PSoC5/i2c.c ****     *
 706:.\Generated_Source\PSoC5/i2c.c ****     * Reentrant:
ARM GAS  C:\Users\arh\AppData\Local\Temp\cceF9wuN.s 			page 21


 707:.\Generated_Source\PSoC5/i2c.c ****     *  No
 708:.\Generated_Source\PSoC5/i2c.c ****     *
 709:.\Generated_Source\PSoC5/i2c.c ****     *******************************************************************************/
 710:.\Generated_Source\PSoC5/i2c.c ****     uint8 i2c_GetAddress2(void) 
 711:.\Generated_Source\PSoC5/i2c.c ****     {
 712:.\Generated_Source\PSoC5/i2c.c ****         return(i2c_addrS2);
 713:.\Generated_Source\PSoC5/i2c.c ****     }
 714:.\Generated_Source\PSoC5/i2c.c **** 
 715:.\Generated_Source\PSoC5/i2c.c **** #endif  /* (i2c_ADDRESSES == i2c_TWO_ADDRESSES) */
 716:.\Generated_Source\PSoC5/i2c.c **** 
 717:.\Generated_Source\PSoC5/i2c.c **** 
 718:.\Generated_Source\PSoC5/i2c.c **** /*******************************************************************************
 719:.\Generated_Source\PSoC5/i2c.c **** * Function Name: i2c_Init
 720:.\Generated_Source\PSoC5/i2c.c **** ********************************************************************************
 721:.\Generated_Source\PSoC5/i2c.c **** *
 722:.\Generated_Source\PSoC5/i2c.c **** * Summary:
 723:.\Generated_Source\PSoC5/i2c.c **** *  Initializes/restores default EZI2C configuration provided with customizer.
 724:.\Generated_Source\PSoC5/i2c.c **** *  Usually called in i2c_Start().
 725:.\Generated_Source\PSoC5/i2c.c **** *
 726:.\Generated_Source\PSoC5/i2c.c **** * Parameters:
 727:.\Generated_Source\PSoC5/i2c.c **** *  None
 728:.\Generated_Source\PSoC5/i2c.c **** *
 729:.\Generated_Source\PSoC5/i2c.c **** * Return:
 730:.\Generated_Source\PSoC5/i2c.c **** *  None
 731:.\Generated_Source\PSoC5/i2c.c **** *
 732:.\Generated_Source\PSoC5/i2c.c **** * Global variables:
 733:.\Generated_Source\PSoC5/i2c.c **** *  i2c_addrS1 - the new slave address for the first slave device is
 734:.\Generated_Source\PSoC5/i2c.c **** *   saved.
 735:.\Generated_Source\PSoC5/i2c.c **** *
 736:.\Generated_Source\PSoC5/i2c.c **** *  i2c_addrS2 - the new slave address for the second slave device
 737:.\Generated_Source\PSoC5/i2c.c **** *   is saved, if EzI2C component is configured for two slave addresses.
 738:.\Generated_Source\PSoC5/i2c.c **** *
 739:.\Generated_Source\PSoC5/i2c.c **** * Reentrant:
 740:.\Generated_Source\PSoC5/i2c.c **** *  No
 741:.\Generated_Source\PSoC5/i2c.c **** *
 742:.\Generated_Source\PSoC5/i2c.c **** * Side Effects:
 743:.\Generated_Source\PSoC5/i2c.c **** *  All changes applied by API to the component's configuration will be reset.
 744:.\Generated_Source\PSoC5/i2c.c **** *
 745:.\Generated_Source\PSoC5/i2c.c **** *******************************************************************************/
 746:.\Generated_Source\PSoC5/i2c.c **** void i2c_Init(void) 
 747:.\Generated_Source\PSoC5/i2c.c **** {
 431              		.loc 1 747 0
 432              		.cfi_startproc
 433              		@ args = 0, pretend = 0, frame = 8
 434              		@ frame_needed = 1, uses_anonymous_args = 0
 435              		@ link register save eliminated.
 436 0000 80B4     		push	{r7}
 437              	.LCFI24:
 438              		.cfi_def_cfa_offset 4
 439 0002 83B0     		sub	sp, sp, #12
 440              	.LCFI25:
 441              		.cfi_def_cfa_offset 16
 442 0004 00AF     		add	r7, sp, #0
 443              		.cfi_offset 7, -4
 444              	.LCFI26:
 445              		.cfi_def_cfa_register 7
 748:.\Generated_Source\PSoC5/i2c.c ****     #if(CY_PSOC5A)
ARM GAS  C:\Users\arh\AppData\Local\Temp\cceF9wuN.s 			page 22


 749:.\Generated_Source\PSoC5/i2c.c **** 
 750:.\Generated_Source\PSoC5/i2c.c ****         uint8 clkSel;
 751:.\Generated_Source\PSoC5/i2c.c **** 
 752:.\Generated_Source\PSoC5/i2c.c ****     #endif  /* (CY_PSOC5A) */
 753:.\Generated_Source\PSoC5/i2c.c **** 
 754:.\Generated_Source\PSoC5/i2c.c ****     /* Clear Status register */
 755:.\Generated_Source\PSoC5/i2c.c ****     i2c_CSR_REG  = 0x00u;
 446              		.loc 1 755 0
 447 0006 44F6D713 		movw	r3, #:lower16:1073760727
 448 000a C4F20003 		movt	r3, #:upper16:1073760727
 449 000e 4FF00002 		mov	r2, #0
 450 0012 1A70     		strb	r2, [r3, #0]
 756:.\Generated_Source\PSoC5/i2c.c **** 
 757:.\Generated_Source\PSoC5/i2c.c ****     #if(CY_PSOC5A)
 758:.\Generated_Source\PSoC5/i2c.c **** 
 759:.\Generated_Source\PSoC5/i2c.c ****         /* Enable I2C block's slave operation */
 760:.\Generated_Source\PSoC5/i2c.c ****         i2c_CFG_REG |= i2c_CFG_EN_SLAVE;
 451              		.loc 1 760 0
 452 0014 44F6D613 		movw	r3, #:lower16:1073760726
 453 0018 C4F20003 		movt	r3, #:upper16:1073760726
 454 001c 44F6D612 		movw	r2, #:lower16:1073760726
 455 0020 C4F20002 		movt	r2, #:upper16:1073760726
 456 0024 1278     		ldrb	r2, [r2, #0]
 457 0026 D2B2     		uxtb	r2, r2
 458 0028 42F00102 		orr	r2, r2, #1
 459 002c D2B2     		uxtb	r2, r2
 460 002e 1A70     		strb	r2, [r3, #0]
 761:.\Generated_Source\PSoC5/i2c.c **** 
 762:.\Generated_Source\PSoC5/i2c.c ****         /* The resolution of generated I2C bus SCL frequencies is reduced. */
 763:.\Generated_Source\PSoC5/i2c.c **** 
 764:.\Generated_Source\PSoC5/i2c.c ****         /* Temprorary set CLK divider to 16 */
 765:.\Generated_Source\PSoC5/i2c.c ****         i2c_CLKDIV_REG  = i2c_CLK_DIV_16;
 461              		.loc 1 765 0
 462 0030 44F6DB13 		movw	r3, #:lower16:1073760731
 463 0034 C4F20003 		movt	r3, #:upper16:1073760731
 464 0038 4FF00402 		mov	r2, #4
 465 003c 1A70     		strb	r2, [r3, #0]
 766:.\Generated_Source\PSoC5/i2c.c **** 
 767:.\Generated_Source\PSoC5/i2c.c ****         /* Set clock divider for the I2C bus clock to be the closest HIGHER
 768:.\Generated_Source\PSoC5/i2c.c ****         *  clock to ensure it can work with an ideal master clock.
 769:.\Generated_Source\PSoC5/i2c.c ****         */
 770:.\Generated_Source\PSoC5/i2c.c ****         for(clkSel = 0u; clkSel <= 6u; clkSel++ )
 466              		.loc 1 770 0
 467 003e 4FF00003 		mov	r3, #0
 468 0042 FB71     		strb	r3, [r7, #7]
 469 0044 11E0     		b	.L23
 470              	.L26:
 771:.\Generated_Source\PSoC5/i2c.c ****         {
 772:.\Generated_Source\PSoC5/i2c.c ****             if((1u << clkSel) >= i2c_DEFAULT_CLKDIV)
 471              		.loc 1 772 0
 472 0046 FB79     		ldrb	r3, [r7, #7]	@ zero_extendqisi2
 473 0048 4FF00102 		mov	r2, #1
 474 004c 02FA03F3 		lsl	r3, r2, r3
 475 0050 0E2B     		cmp	r3, #14
 476 0052 06D9     		bls	.L24
 773:.\Generated_Source\PSoC5/i2c.c ****             {
 774:.\Generated_Source\PSoC5/i2c.c ****                 i2c_CLKDIV_REG  = clkSel;
ARM GAS  C:\Users\arh\AppData\Local\Temp\cceF9wuN.s 			page 23


 477              		.loc 1 774 0
 478 0054 44F6DB13 		movw	r3, #:lower16:1073760731
 479 0058 C4F20003 		movt	r3, #:upper16:1073760731
 480 005c FA79     		ldrb	r2, [r7, #7]
 481 005e 1A70     		strb	r2, [r3, #0]
 775:.\Generated_Source\PSoC5/i2c.c ****                 break;
 482              		.loc 1 775 0
 483 0060 06E0     		b	.L25
 484              	.L24:
 485              		.loc 1 770 0
 486 0062 FB79     		ldrb	r3, [r7, #7]
 487 0064 03F10103 		add	r3, r3, #1
 488 0068 FB71     		strb	r3, [r7, #7]
 489              	.L23:
 490 006a FB79     		ldrb	r3, [r7, #7]	@ zero_extendqisi2
 491 006c 062B     		cmp	r3, #6
 492 006e EAD9     		bls	.L26
 493              	.L25:
 776:.\Generated_Source\PSoC5/i2c.c ****             }
 777:.\Generated_Source\PSoC5/i2c.c ****         }
 778:.\Generated_Source\PSoC5/i2c.c **** 
 779:.\Generated_Source\PSoC5/i2c.c ****         /* Set clock rate to Fast mode 400k. This will give the Clock
 780:.\Generated_Source\PSoC5/i2c.c ****         *  divider sufficient range to work bewteen 50 and 400 kbps.
 781:.\Generated_Source\PSoC5/i2c.c ****         */
 782:.\Generated_Source\PSoC5/i2c.c ****         i2c_CFG_REG  |= i2c_CFG_CLK_RATE_400;
 494              		.loc 1 782 0
 495 0070 44F6D613 		movw	r3, #:lower16:1073760726
 496 0074 C4F20003 		movt	r3, #:upper16:1073760726
 497 0078 44F6D612 		movw	r2, #:lower16:1073760726
 498 007c C4F20002 		movt	r2, #:upper16:1073760726
 499 0080 1278     		ldrb	r2, [r2, #0]
 500 0082 D2B2     		uxtb	r2, r2
 501 0084 42F00402 		orr	r2, r2, #4
 502 0088 D2B2     		uxtb	r2, r2
 503 008a 1A70     		strb	r2, [r3, #0]
 783:.\Generated_Source\PSoC5/i2c.c **** 
 784:.\Generated_Source\PSoC5/i2c.c ****     #elif(CY_PSOC3 || CY_PSOC5LP)
 785:.\Generated_Source\PSoC5/i2c.c **** 
 786:.\Generated_Source\PSoC5/i2c.c ****         /* Enable I2C block's slave operation.
 787:.\Generated_Source\PSoC5/i2c.c ****         *  These revisions require slave to be enabled for registers to be
 788:.\Generated_Source\PSoC5/i2c.c ****         *  written.
 789:.\Generated_Source\PSoC5/i2c.c ****         */
 790:.\Generated_Source\PSoC5/i2c.c ****         i2c_CFG_REG |= i2c_CFG_EN_SLAVE;
 791:.\Generated_Source\PSoC5/i2c.c **** 
 792:.\Generated_Source\PSoC5/i2c.c ****         /* 8 LSB bits of the 10-bit are written with the divide factor */
 793:.\Generated_Source\PSoC5/i2c.c **** 		i2c_CLKDIV1_REG = LO8(i2c_DIVIDE_FACTOR);
 794:.\Generated_Source\PSoC5/i2c.c **** 
 795:.\Generated_Source\PSoC5/i2c.c ****         /* 2 MSB bits of the 10-bit are written with the divide factor */
 796:.\Generated_Source\PSoC5/i2c.c **** 		i2c_CLKDIV2_REG = HI8(i2c_DIVIDE_FACTOR);
 797:.\Generated_Source\PSoC5/i2c.c **** 
 798:.\Generated_Source\PSoC5/i2c.c ****         /* Define clock rate */
 799:.\Generated_Source\PSoC5/i2c.c ****         if(i2c_BUS_SPEED <= i2c_BUS_SPEED_50KHZ)
 800:.\Generated_Source\PSoC5/i2c.c ****         {   /* 50 kHz - 32 samples/bit */
 801:.\Generated_Source\PSoC5/i2c.c ****             i2c_CFG_REG |= i2c_CFG_CLK_RATE;
 802:.\Generated_Source\PSoC5/i2c.c ****         }
 803:.\Generated_Source\PSoC5/i2c.c ****         else
 804:.\Generated_Source\PSoC5/i2c.c ****         {   /* 100kHz or 400kHz - 16 samples/bit */
ARM GAS  C:\Users\arh\AppData\Local\Temp\cceF9wuN.s 			page 24


 805:.\Generated_Source\PSoC5/i2c.c ****             i2c_CFG_REG &= ~i2c_CFG_CLK_RATE;
 806:.\Generated_Source\PSoC5/i2c.c ****         }
 807:.\Generated_Source\PSoC5/i2c.c **** 
 808:.\Generated_Source\PSoC5/i2c.c ****         /* if I2C block will be used as wake up source, this availabe only for
 809:.\Generated_Source\PSoC5/i2c.c ****         * PSoC3 and PSoC5A.
 810:.\Generated_Source\PSoC5/i2c.c ****         */
 811:.\Generated_Source\PSoC5/i2c.c ****         #if(1u == i2c_ENABLE_WAKEUP)
 812:.\Generated_Source\PSoC5/i2c.c **** 
 813:.\Generated_Source\PSoC5/i2c.c ****             /* Configure I2C address match to act as wake-up source */
 814:.\Generated_Source\PSoC5/i2c.c ****            i2c_XCFG_REG |= i2c_XCFG_I2C_ON;
 815:.\Generated_Source\PSoC5/i2c.c **** 
 816:.\Generated_Source\PSoC5/i2c.c ****             /* Process sio_select and pselect */
 817:.\Generated_Source\PSoC5/i2c.c ****             #if(i2c_ADDRESSES == i2c_ONE_ADDRESS)
 818:.\Generated_Source\PSoC5/i2c.c ****                 if(i2c__ANY != i2c_BUS_PORT)
 819:.\Generated_Source\PSoC5/i2c.c ****                 {
 820:.\Generated_Source\PSoC5/i2c.c ****                     /* SCL and SDA lines get their inputs from SIO block */
 821:.\Generated_Source\PSoC5/i2c.c ****                     i2c_CFG_REG |= i2c_CFG_PSELECT;
 822:.\Generated_Source\PSoC5/i2c.c **** 
 823:.\Generated_Source\PSoC5/i2c.c ****                     if(i2c__I2C0 == i2c_BUS_PORT)
 824:.\Generated_Source\PSoC5/i2c.c ****                     {
 825:.\Generated_Source\PSoC5/i2c.c ****                         /* SCL and SDA lines get their inputs from SIO1 */
 826:.\Generated_Source\PSoC5/i2c.c ****                         i2c_CFG_REG &= ~i2c_CFG_SIO_SELECT;
 827:.\Generated_Source\PSoC5/i2c.c ****                     }
 828:.\Generated_Source\PSoC5/i2c.c ****                     else /* SIO2 */
 829:.\Generated_Source\PSoC5/i2c.c ****                     {
 830:.\Generated_Source\PSoC5/i2c.c ****                         /* SCL and SDA lines get their inputs from SIO2 */
 831:.\Generated_Source\PSoC5/i2c.c ****                         i2c_CFG_REG |= i2c_CFG_SIO_SELECT;
 832:.\Generated_Source\PSoC5/i2c.c ****                     }
 833:.\Generated_Source\PSoC5/i2c.c ****                 }
 834:.\Generated_Source\PSoC5/i2c.c ****                 else    /* GPIO is used */
 835:.\Generated_Source\PSoC5/i2c.c ****                 {
 836:.\Generated_Source\PSoC5/i2c.c ****                     /* SCL and SDA lines get their inputs from GPIO module. */
 837:.\Generated_Source\PSoC5/i2c.c ****                     i2c_CFG_REG &= ~i2c_CFG_PSELECT;
 838:.\Generated_Source\PSoC5/i2c.c ****                 }
 839:.\Generated_Source\PSoC5/i2c.c ****             #endif  /* (i2c_ADDRESSES == i2c_ONE_ADDRESS) */
 840:.\Generated_Source\PSoC5/i2c.c **** 
 841:.\Generated_Source\PSoC5/i2c.c ****         #endif /* (1u == i2c_ENABLE_WAKEUP) */
 842:.\Generated_Source\PSoC5/i2c.c **** 
 843:.\Generated_Source\PSoC5/i2c.c ****     #endif  /* (CY_PSOC5A) */
 844:.\Generated_Source\PSoC5/i2c.c **** 
 845:.\Generated_Source\PSoC5/i2c.c **** 
 846:.\Generated_Source\PSoC5/i2c.c ****     #if(i2c_ADDRESSES == i2c_ONE_ADDRESS)
 847:.\Generated_Source\PSoC5/i2c.c **** 
 848:.\Generated_Source\PSoC5/i2c.c ****         /* Set default slave address */
 849:.\Generated_Source\PSoC5/i2c.c ****         i2c_ADDR_REG  = i2c_DEFAULT_ADDR1;
 504              		.loc 1 849 0
 505 008c 44F6CA13 		movw	r3, #:lower16:1073760714
 506 0090 C4F20003 		movt	r3, #:upper16:1073760714
 507 0094 4FF00802 		mov	r2, #8
 508 0098 1A70     		strb	r2, [r3, #0]
 850:.\Generated_Source\PSoC5/i2c.c **** 
 851:.\Generated_Source\PSoC5/i2c.c ****         /* Turn on hardware address detection */
 852:.\Generated_Source\PSoC5/i2c.c ****         i2c_XCFG_REG  |= i2c_XCFG_HDWR_ADDR_EN;
 509              		.loc 1 852 0
 510 009a 44F6C813 		movw	r3, #:lower16:1073760712
 511 009e C4F20003 		movt	r3, #:upper16:1073760712
 512 00a2 44F6C812 		movw	r2, #:lower16:1073760712
ARM GAS  C:\Users\arh\AppData\Local\Temp\cceF9wuN.s 			page 25


 513 00a6 C4F20002 		movt	r2, #:upper16:1073760712
 514 00aa 1278     		ldrb	r2, [r2, #0]
 515 00ac D2B2     		uxtb	r2, r2
 516 00ae 42F00102 		orr	r2, r2, #1
 517 00b2 D2B2     		uxtb	r2, r2
 518 00b4 1A70     		strb	r2, [r3, #0]
 853:.\Generated_Source\PSoC5/i2c.c **** 
 854:.\Generated_Source\PSoC5/i2c.c ****     #else   /* Two devices */
 855:.\Generated_Source\PSoC5/i2c.c **** 
 856:.\Generated_Source\PSoC5/i2c.c ****         /* Set default slave addresses */
 857:.\Generated_Source\PSoC5/i2c.c ****         i2c_addrS1  = i2c_DEFAULT_ADDR1;
 858:.\Generated_Source\PSoC5/i2c.c ****         i2c_addrS2  = i2c_DEFAULT_ADDR2;
 859:.\Generated_Source\PSoC5/i2c.c **** 
 860:.\Generated_Source\PSoC5/i2c.c ****     #endif  /* End of (i2c_ADDRESSES == i2c_ONE_ADDRESS) */
 861:.\Generated_Source\PSoC5/i2c.c **** 
 862:.\Generated_Source\PSoC5/i2c.c ****     /* Reset offsets and pointers */
 863:.\Generated_Source\PSoC5/i2c.c ****     i2c_dataPtrS1 = (uint8 *)0x0000u;
 519              		.loc 1 863 0
 520 00b6 40F20003 		movw	r3, #:lower16:i2c_dataPtrS1
 521 00ba C0F20003 		movt	r3, #:upper16:i2c_dataPtrS1
 522 00be 4FF00002 		mov	r2, #0
 523 00c2 1A60     		str	r2, [r3, #0]
 864:.\Generated_Source\PSoC5/i2c.c ****     i2c_rwOffsetS1 = 0u;
 524              		.loc 1 864 0
 525 00c4 40F20003 		movw	r3, #:lower16:i2c_rwOffsetS1
 526 00c8 C0F20003 		movt	r3, #:upper16:i2c_rwOffsetS1
 527 00cc 4FF00002 		mov	r2, #0
 528 00d0 1A70     		strb	r2, [r3, #0]
 865:.\Generated_Source\PSoC5/i2c.c ****     i2c_rwIndexS1 = 0u;
 529              		.loc 1 865 0
 530 00d2 40F20003 		movw	r3, #:lower16:i2c_rwIndexS1
 531 00d6 C0F20003 		movt	r3, #:upper16:i2c_rwIndexS1
 532 00da 4FF00002 		mov	r2, #0
 533 00de 1A70     		strb	r2, [r3, #0]
 866:.\Generated_Source\PSoC5/i2c.c ****     i2c_wrProtectS1 = 0u;
 534              		.loc 1 866 0
 535 00e0 40F20003 		movw	r3, #:lower16:i2c_wrProtectS1
 536 00e4 C0F20003 		movt	r3, #:upper16:i2c_wrProtectS1
 537 00e8 4FF00002 		mov	r2, #0
 538 00ec 1A70     		strb	r2, [r3, #0]
 867:.\Generated_Source\PSoC5/i2c.c ****     i2c_bufSizeS1 = 0u;
 539              		.loc 1 867 0
 540 00ee 40F20003 		movw	r3, #:lower16:i2c_bufSizeS1
 541 00f2 C0F20003 		movt	r3, #:upper16:i2c_bufSizeS1
 542 00f6 4FF00002 		mov	r2, #0
 543 00fa 1A70     		strb	r2, [r3, #0]
 868:.\Generated_Source\PSoC5/i2c.c **** 
 869:.\Generated_Source\PSoC5/i2c.c ****     /* Reset offsets and pointers for 2nd slave address */
 870:.\Generated_Source\PSoC5/i2c.c ****     #if(i2c_ADDRESSES == i2c_TWO_ADDRESSES)
 871:.\Generated_Source\PSoC5/i2c.c ****         i2c_dataPtrS2 = (uint8 *)0x0000u;
 872:.\Generated_Source\PSoC5/i2c.c ****         i2c_rwOffsetS2 = 0u;
 873:.\Generated_Source\PSoC5/i2c.c ****         i2c_rwIndexS2 = 0u;
 874:.\Generated_Source\PSoC5/i2c.c ****         i2c_wrProtectS2 = 0u;
 875:.\Generated_Source\PSoC5/i2c.c ****         i2c_bufSizeS2 = 0u;
 876:.\Generated_Source\PSoC5/i2c.c ****     #endif  /* End of (i2c_ADDRESSES == i2c_TWO_ADDRESSES) */
 877:.\Generated_Source\PSoC5/i2c.c **** 
 878:.\Generated_Source\PSoC5/i2c.c ****     /* Enable the I2C block clock */
ARM GAS  C:\Users\arh\AppData\Local\Temp\cceF9wuN.s 			page 26


 879:.\Generated_Source\PSoC5/i2c.c ****     i2c_XCFG_REG  |= i2c_XCFG_CLK_EN;
 544              		.loc 1 879 0
 545 00fc 44F6C813 		movw	r3, #:lower16:1073760712
 546 0100 C4F20003 		movt	r3, #:upper16:1073760712
 547 0104 44F6C812 		movw	r2, #:lower16:1073760712
 548 0108 C4F20002 		movt	r2, #:upper16:1073760712
 549 010c 1278     		ldrb	r2, [r2, #0]
 550 010e D2B2     		uxtb	r2, r2
 551 0110 6FEA4262 		mvn	r2, r2, lsl #25
 552 0114 6FEA5262 		mvn	r2, r2, lsr #25
 553 0118 D2B2     		uxtb	r2, r2
 554 011a 1A70     		strb	r2, [r3, #0]
 880:.\Generated_Source\PSoC5/i2c.c **** }
 555              		.loc 1 880 0
 556 011c 07F10C07 		add	r7, r7, #12
 557 0120 BD46     		mov	sp, r7
 558 0122 80BC     		pop	{r7}
 559 0124 7047     		bx	lr
 560              		.cfi_endproc
 561              	.LFE10:
 562              		.size	i2c_Init, .-i2c_Init
 563 0126 00BF     		.section	.text.i2c_Enable,"ax",%progbits
 564              		.align	2
 565              		.global	i2c_Enable
 566              		.thumb
 567              		.thumb_func
 568              		.type	i2c_Enable, %function
 569              	i2c_Enable:
 570              	.LFB11:
 881:.\Generated_Source\PSoC5/i2c.c **** 
 882:.\Generated_Source\PSoC5/i2c.c **** 
 883:.\Generated_Source\PSoC5/i2c.c **** /*******************************************************************************
 884:.\Generated_Source\PSoC5/i2c.c **** * Function Name: i2c_Enable
 885:.\Generated_Source\PSoC5/i2c.c **** ********************************************************************************
 886:.\Generated_Source\PSoC5/i2c.c **** *
 887:.\Generated_Source\PSoC5/i2c.c **** * Summary:
 888:.\Generated_Source\PSoC5/i2c.c **** *  Enables the I2C block operation, sets interrupt priority, sets
 889:.\Generated_Source\PSoC5/i2c.c **** *  interrupt vector, clears pending interrupts and enables interrupts. Clears
 890:.\Generated_Source\PSoC5/i2c.c **** *  status variables and reset state machine variable.
 891:.\Generated_Source\PSoC5/i2c.c **** *
 892:.\Generated_Source\PSoC5/i2c.c **** * Parameters:
 893:.\Generated_Source\PSoC5/i2c.c **** *  None
 894:.\Generated_Source\PSoC5/i2c.c **** *
 895:.\Generated_Source\PSoC5/i2c.c **** * Return:
 896:.\Generated_Source\PSoC5/i2c.c **** *  None
 897:.\Generated_Source\PSoC5/i2c.c **** *
 898:.\Generated_Source\PSoC5/i2c.c **** * Global variables:
 899:.\Generated_Source\PSoC5/i2c.c **** *  i2c_curStatus - this global variable are cleared, it stores the
 900:.\Generated_Source\PSoC5/i2c.c **** *  current component status.
 901:.\Generated_Source\PSoC5/i2c.c **** *
 902:.\Generated_Source\PSoC5/i2c.c **** * i2c_curState - global variable are cleared, it stores the current
 903:.\Generated_Source\PSoC5/i2c.c **** *  state of the state machine.
 904:.\Generated_Source\PSoC5/i2c.c **** *
 905:.\Generated_Source\PSoC5/i2c.c **** * Reentrant:
 906:.\Generated_Source\PSoC5/i2c.c **** *  No
 907:.\Generated_Source\PSoC5/i2c.c **** *
 908:.\Generated_Source\PSoC5/i2c.c **** *******************************************************************************/
ARM GAS  C:\Users\arh\AppData\Local\Temp\cceF9wuN.s 			page 27


 909:.\Generated_Source\PSoC5/i2c.c **** void i2c_Enable(void) 
 910:.\Generated_Source\PSoC5/i2c.c **** {
 571              		.loc 1 910 0
 572              		.cfi_startproc
 573              		@ args = 0, pretend = 0, frame = 8
 574              		@ frame_needed = 1, uses_anonymous_args = 0
 575 0000 80B5     		push	{r7, lr}
 576              	.LCFI27:
 577              		.cfi_def_cfa_offset 8
 578 0002 82B0     		sub	sp, sp, #8
 579              	.LCFI28:
 580              		.cfi_def_cfa_offset 16
 581 0004 00AF     		add	r7, sp, #0
 582              		.cfi_offset 14, -4
 583              		.cfi_offset 7, -8
 584              	.LCFI29:
 585              		.cfi_def_cfa_register 7
 911:.\Generated_Source\PSoC5/i2c.c ****     uint8 interruptState;
 912:.\Generated_Source\PSoC5/i2c.c **** 
 913:.\Generated_Source\PSoC5/i2c.c ****     /* Enter critical section */
 914:.\Generated_Source\PSoC5/i2c.c ****     interruptState = CyEnterCriticalSection();
 586              		.loc 1 914 0
 587 0006 FFF7FEFF 		bl	CyEnterCriticalSection
 588 000a 0346     		mov	r3, r0
 589 000c FB71     		strb	r3, [r7, #7]
 915:.\Generated_Source\PSoC5/i2c.c **** 
 916:.\Generated_Source\PSoC5/i2c.c ****     /* Enable I2C block in Active mode template */
 917:.\Generated_Source\PSoC5/i2c.c ****     i2c_PM_ACT_CFG_REG |= i2c_ACT_PWR_EN;
 590              		.loc 1 917 0
 591 000e 44F2A533 		movw	r3, #:lower16:1073759141
 592 0012 C4F20003 		movt	r3, #:upper16:1073759141
 593 0016 44F2A532 		movw	r2, #:lower16:1073759141
 594 001a C4F20002 		movt	r2, #:upper16:1073759141
 595 001e 1278     		ldrb	r2, [r2, #0]
 596 0020 D2B2     		uxtb	r2, r2
 597 0022 42F00402 		orr	r2, r2, #4
 598 0026 D2B2     		uxtb	r2, r2
 599 0028 1A70     		strb	r2, [r3, #0]
 918:.\Generated_Source\PSoC5/i2c.c **** 
 919:.\Generated_Source\PSoC5/i2c.c ****     /* Enable I2C block in Alternate Active (Standby) mode template */
 920:.\Generated_Source\PSoC5/i2c.c ****     i2c_PM_STBY_CFG_REG |= i2c_STBY_PWR_EN;
 600              		.loc 1 920 0
 601 002a 44F2B533 		movw	r3, #:lower16:1073759157
 602 002e C4F20003 		movt	r3, #:upper16:1073759157
 603 0032 44F2B532 		movw	r2, #:lower16:1073759157
 604 0036 C4F20002 		movt	r2, #:upper16:1073759157
 605 003a 1278     		ldrb	r2, [r2, #0]
 606 003c D2B2     		uxtb	r2, r2
 607 003e 42F00402 		orr	r2, r2, #4
 608 0042 D2B2     		uxtb	r2, r2
 609 0044 1A70     		strb	r2, [r3, #0]
 921:.\Generated_Source\PSoC5/i2c.c **** 
 922:.\Generated_Source\PSoC5/i2c.c ****     /* Exit critical section */
 923:.\Generated_Source\PSoC5/i2c.c ****     CyExitCriticalSection(interruptState);
 610              		.loc 1 923 0
 611 0046 FB79     		ldrb	r3, [r7, #7]	@ zero_extendqisi2
 612 0048 1846     		mov	r0, r3
ARM GAS  C:\Users\arh\AppData\Local\Temp\cceF9wuN.s 			page 28


 613 004a FFF7FEFF 		bl	CyExitCriticalSection
 924:.\Generated_Source\PSoC5/i2c.c **** 
 925:.\Generated_Source\PSoC5/i2c.c ****     /* Set the interrupt priority */
 926:.\Generated_Source\PSoC5/i2c.c ****     CyIntSetPriority(i2c_ISR_NUMBER, i2c_ISR_PRIORITY);
 614              		.loc 1 926 0
 615 004e 4FF00000 		mov	r0, #0
 616 0052 4FF00701 		mov	r1, #7
 617 0056 FFF7FEFF 		bl	CyIntSetPriority
 927:.\Generated_Source\PSoC5/i2c.c **** 
 928:.\Generated_Source\PSoC5/i2c.c ****     /* Set the interrupt vector */
 929:.\Generated_Source\PSoC5/i2c.c ****     CyIntSetVector(i2c_ISR_NUMBER, i2c_ISR);
 618              		.loc 1 929 0
 619 005a 4FF00000 		mov	r0, #0
 620 005e 40F20001 		movw	r1, #:lower16:i2c_ISR
 621 0062 C0F20001 		movt	r1, #:upper16:i2c_ISR
 622 0066 FFF7FEFF 		bl	CyIntSetVector
 930:.\Generated_Source\PSoC5/i2c.c **** 
 931:.\Generated_Source\PSoC5/i2c.c ****     /* Clear any pending interrupt */
 932:.\Generated_Source\PSoC5/i2c.c ****     CyIntClearPending(i2c_ISR_NUMBER);
 623              		.loc 1 932 0
 624 006a 4FF00000 		mov	r0, #0
 625 006e FFF7FEFF 		bl	CyIntClearPending
 933:.\Generated_Source\PSoC5/i2c.c **** 
 934:.\Generated_Source\PSoC5/i2c.c ****     /* Reset State Machine to IDLE */
 935:.\Generated_Source\PSoC5/i2c.c ****     i2c_curState = i2c_SM_IDLE;
 626              		.loc 1 935 0
 627 0072 40F20003 		movw	r3, #:lower16:i2c_curState
 628 0076 C0F20003 		movt	r3, #:upper16:i2c_curState
 629 007a 4FF00002 		mov	r2, #0
 630 007e 1A70     		strb	r2, [r3, #0]
 936:.\Generated_Source\PSoC5/i2c.c **** 
 937:.\Generated_Source\PSoC5/i2c.c ****     /* Clear Status variable */
 938:.\Generated_Source\PSoC5/i2c.c ****     i2c_curStatus = 0x00u;
 631              		.loc 1 938 0
 632 0080 40F20003 		movw	r3, #:lower16:i2c_curStatus
 633 0084 C0F20003 		movt	r3, #:upper16:i2c_curStatus
 634 0088 4FF00002 		mov	r2, #0
 635 008c 1A70     		strb	r2, [r3, #0]
 939:.\Generated_Source\PSoC5/i2c.c **** 
 940:.\Generated_Source\PSoC5/i2c.c ****     /* Enable the interrupt */
 941:.\Generated_Source\PSoC5/i2c.c ****     i2c_EnableInt();
 636              		.loc 1 941 0
 637 008e FFF7FEFF 		bl	i2c_EnableInt
 942:.\Generated_Source\PSoC5/i2c.c **** }
 638              		.loc 1 942 0
 639 0092 07F10807 		add	r7, r7, #8
 640 0096 BD46     		mov	sp, r7
 641 0098 80BD     		pop	{r7, pc}
 642              		.cfi_endproc
 643              	.LFE11:
 644              		.size	i2c_Enable, .-i2c_Enable
 645 009a 00BF     		.text
 646              	.Letext0: