ARM GAS  C:\Users\arh\AppData\Local\Temp\ccfGlav7.s 			page 1


   1              		.syntax unified
   2              		.cpu cortex-m3
   3              		.fpu softvfp
   4              		.eabi_attribute 20, 1
   5              		.eabi_attribute 21, 1
   6              		.eabi_attribute 23, 3
   7              		.eabi_attribute 24, 1
   8              		.eabi_attribute 25, 1
   9              		.eabi_attribute 26, 1
  10              		.eabi_attribute 30, 6
  11              		.eabi_attribute 18, 4
  12              		.thumb
  13              		.file	"lcd.c"
  20 0000 D4010000 		.text
  20      02005C00 
  20      00000201 
  20      FB0E0D00 
  20      01010101 
  21              	.Ltext0:
  22              		.cfi_sections	.debug_frame
  23              		.global	lcd_enableState
  24              		.bss
  25              		.type	lcd_enableState, %object
  26              		.size	lcd_enableState, 1
  27              	lcd_enableState:
  28 0000 00       		.space	1
  29              		.global	lcd_initVar
  30              		.type	lcd_initVar, %object
  31              		.size	lcd_initVar, 1
  32              	lcd_initVar:
  33 0001 00       		.space	1
  34              		.global	lcd_hex
  35              		.section	.rodata
  36              		.align	2
  37              		.type	lcd_hex, %object
  38              		.size	lcd_hex, 16
  39              	lcd_hex:
  40 0000 30313233 		.ascii	"0123456789ABCDEF"
  40      34353637 
  40      38394142 
  40      43444546 
  41              		.section	.text.lcd_Init,"ax",%progbits
  42              		.align	2
  43              		.global	lcd_Init
  44              		.thumb
  45              		.thumb_func
  46              		.type	lcd_Init, %function
  47              	lcd_Init:
  48              	.LFB0:
  49              		.file 1 ".\\Generated_Source\\PSoC5\\lcd.c"
   1:.\Generated_Source\PSoC5/lcd.c **** /*******************************************************************************
ARM GAS  C:\Users\arh\AppData\Local\Temp\ccfGlav7.s 			page 2


   2:.\Generated_Source\PSoC5/lcd.c **** * File Name: lcd.c
   3:.\Generated_Source\PSoC5/lcd.c **** * Version 1.70
   4:.\Generated_Source\PSoC5/lcd.c **** *
   5:.\Generated_Source\PSoC5/lcd.c **** * Description:
   6:.\Generated_Source\PSoC5/lcd.c **** *  This file provides source code for the Character LCD component's API.
   7:.\Generated_Source\PSoC5/lcd.c **** *
   8:.\Generated_Source\PSoC5/lcd.c **** * Note:
   9:.\Generated_Source\PSoC5/lcd.c **** *
  10:.\Generated_Source\PSoC5/lcd.c **** ********************************************************************************
  11:.\Generated_Source\PSoC5/lcd.c **** * Copyright 2008-2012, Cypress Semiconductor Corporation.  All rights reserved.
  12:.\Generated_Source\PSoC5/lcd.c **** * You may use this file only in accordance with the license, terms, conditions,
  13:.\Generated_Source\PSoC5/lcd.c **** * disclaimers, and limitations in the end user license agreement accompanying
  14:.\Generated_Source\PSoC5/lcd.c **** * the software package with which this file was provided.
  15:.\Generated_Source\PSoC5/lcd.c **** *******************************************************************************/
  16:.\Generated_Source\PSoC5/lcd.c **** 
  17:.\Generated_Source\PSoC5/lcd.c **** #include "CyLib.h"
  18:.\Generated_Source\PSoC5/lcd.c **** #include "lcd.h"
  19:.\Generated_Source\PSoC5/lcd.c **** 
  20:.\Generated_Source\PSoC5/lcd.c **** 
  21:.\Generated_Source\PSoC5/lcd.c **** void lcd_Init(void) ;
  22:.\Generated_Source\PSoC5/lcd.c **** void lcd_Enable(void) ;
  23:.\Generated_Source\PSoC5/lcd.c **** 
  24:.\Generated_Source\PSoC5/lcd.c **** 
  25:.\Generated_Source\PSoC5/lcd.c **** uint8 lcd_enableState = 0u;
  26:.\Generated_Source\PSoC5/lcd.c **** 
  27:.\Generated_Source\PSoC5/lcd.c **** uint8 lcd_initVar = 0u;
  28:.\Generated_Source\PSoC5/lcd.c **** 
  29:.\Generated_Source\PSoC5/lcd.c **** char8 const CYCODE lcd_hex[16u] = "0123456789ABCDEF";
  30:.\Generated_Source\PSoC5/lcd.c **** 
  31:.\Generated_Source\PSoC5/lcd.c **** extern uint8 const CYCODE lcd_customFonts[];
  32:.\Generated_Source\PSoC5/lcd.c **** 
  33:.\Generated_Source\PSoC5/lcd.c **** 
  34:.\Generated_Source\PSoC5/lcd.c **** /*******************************************************************************
  35:.\Generated_Source\PSoC5/lcd.c **** * Function Name: lcd_Init
  36:.\Generated_Source\PSoC5/lcd.c **** ********************************************************************************
  37:.\Generated_Source\PSoC5/lcd.c **** *
  38:.\Generated_Source\PSoC5/lcd.c **** * Summary:
  39:.\Generated_Source\PSoC5/lcd.c **** *  Perform initialization required for components normal work.
  40:.\Generated_Source\PSoC5/lcd.c **** *  This function initializes the LCD hardware module as follows:
  41:.\Generated_Source\PSoC5/lcd.c **** *        Enable 4-bit interface
  42:.\Generated_Source\PSoC5/lcd.c **** *        Clear the display
  43:.\Generated_Source\PSoC5/lcd.c **** *        Enable auto cursor increment
  44:.\Generated_Source\PSoC5/lcd.c **** *        Resets the cursor to start position
  45:.\Generated_Source\PSoC5/lcd.c **** *  Also loads custom character set to LCD if it was defined in the customizer.
  46:.\Generated_Source\PSoC5/lcd.c **** *
  47:.\Generated_Source\PSoC5/lcd.c **** * Parameters:
  48:.\Generated_Source\PSoC5/lcd.c **** *  None.
  49:.\Generated_Source\PSoC5/lcd.c **** *
  50:.\Generated_Source\PSoC5/lcd.c **** * Return:
  51:.\Generated_Source\PSoC5/lcd.c **** *  None.
  52:.\Generated_Source\PSoC5/lcd.c **** *
  53:.\Generated_Source\PSoC5/lcd.c **** * Reentrant:
  54:.\Generated_Source\PSoC5/lcd.c **** *  No.
  55:.\Generated_Source\PSoC5/lcd.c **** *
  56:.\Generated_Source\PSoC5/lcd.c **** *******************************************************************************/
  57:.\Generated_Source\PSoC5/lcd.c **** void lcd_Init(void) 
  58:.\Generated_Source\PSoC5/lcd.c **** {
ARM GAS  C:\Users\arh\AppData\Local\Temp\ccfGlav7.s 			page 3


  50              		.loc 1 58 0
  51              		.cfi_startproc
  52              		@ args = 0, pretend = 0, frame = 0
  53              		@ frame_needed = 1, uses_anonymous_args = 0
  54 0000 80B5     		push	{r7, lr}
  55              	.LCFI0:
  56              		.cfi_def_cfa_offset 8
  57 0002 00AF     		add	r7, sp, #0
  58              		.cfi_offset 14, -4
  59              		.cfi_offset 7, -8
  60              	.LCFI1:
  61              		.cfi_def_cfa_register 7
  59:.\Generated_Source\PSoC5/lcd.c ****     /* INIT CODE */
  60:.\Generated_Source\PSoC5/lcd.c ****     CyDelay(40u);                                                        /* Delay 40 ms */
  62              		.loc 1 60 0
  63 0004 4FF02800 		mov	r0, #40
  64 0008 FFF7FEFF 		bl	CyDelay
  61:.\Generated_Source\PSoC5/lcd.c ****     lcd_WrCntrlNib(lcd_DISPLAY_8_BIT_INIT);   /* Selects 8-bit mode */
  65              		.loc 1 61 0
  66 000c 4FF00300 		mov	r0, #3
  67 0010 FFF7FEFF 		bl	lcd_WrCntrlNib
  62:.\Generated_Source\PSoC5/lcd.c ****     CyDelay(5u);                                                         /* Delay 5 ms */
  68              		.loc 1 62 0
  69 0014 4FF00500 		mov	r0, #5
  70 0018 FFF7FEFF 		bl	CyDelay
  63:.\Generated_Source\PSoC5/lcd.c ****     lcd_WrCntrlNib(lcd_DISPLAY_8_BIT_INIT);   /* Selects 8-bit mode */
  71              		.loc 1 63 0
  72 001c 4FF00300 		mov	r0, #3
  73 0020 FFF7FEFF 		bl	lcd_WrCntrlNib
  64:.\Generated_Source\PSoC5/lcd.c ****     CyDelay(15u);                                                        /* Delay 15 ms */
  74              		.loc 1 64 0
  75 0024 4FF00F00 		mov	r0, #15
  76 0028 FFF7FEFF 		bl	CyDelay
  65:.\Generated_Source\PSoC5/lcd.c ****     lcd_WrCntrlNib(lcd_DISPLAY_8_BIT_INIT);   /* Selects 8-bit mode */
  77              		.loc 1 65 0
  78 002c 4FF00300 		mov	r0, #3
  79 0030 FFF7FEFF 		bl	lcd_WrCntrlNib
  66:.\Generated_Source\PSoC5/lcd.c ****     CyDelay(1u);                                                         /* Delay 1 ms */
  80              		.loc 1 66 0
  81 0034 4FF00100 		mov	r0, #1
  82 0038 FFF7FEFF 		bl	CyDelay
  67:.\Generated_Source\PSoC5/lcd.c ****     lcd_WrCntrlNib(lcd_DISPLAY_4_BIT_INIT);   /* Selects 4-bit mode */
  83              		.loc 1 67 0
  84 003c 4FF00200 		mov	r0, #2
  85 0040 FFF7FEFF 		bl	lcd_WrCntrlNib
  68:.\Generated_Source\PSoC5/lcd.c ****     CyDelay(5u);                                                         /* Delay 5 ms */
  86              		.loc 1 68 0
  87 0044 4FF00500 		mov	r0, #5
  88 0048 FFF7FEFF 		bl	CyDelay
  69:.\Generated_Source\PSoC5/lcd.c **** 
  70:.\Generated_Source\PSoC5/lcd.c ****     lcd_WriteControl(lcd_CURSOR_AUTO_INCR_ON);    /* Incr Cursor After Writes */
  89              		.loc 1 70 0
  90 004c 4FF00600 		mov	r0, #6
  91 0050 FFF7FEFF 		bl	lcd_WriteControl
  71:.\Generated_Source\PSoC5/lcd.c ****     lcd_WriteControl(lcd_DISPLAY_CURSOR_ON);      /* Turn Display, Cursor ON */
  92              		.loc 1 71 0
  93 0054 4FF00E00 		mov	r0, #14
ARM GAS  C:\Users\arh\AppData\Local\Temp\ccfGlav7.s 			page 4


  94 0058 FFF7FEFF 		bl	lcd_WriteControl
  72:.\Generated_Source\PSoC5/lcd.c ****     lcd_WriteControl(lcd_DISPLAY_2_LINES_5x10);   /* 2 Lines by 5x10 Characters */
  95              		.loc 1 72 0
  96 005c 4FF02C00 		mov	r0, #44
  97 0060 FFF7FEFF 		bl	lcd_WriteControl
  73:.\Generated_Source\PSoC5/lcd.c ****     lcd_WriteControl(lcd_DISPLAY_CURSOR_OFF);     /* Turn Display, Cursor OFF */
  98              		.loc 1 73 0
  99 0064 4FF00800 		mov	r0, #8
 100 0068 FFF7FEFF 		bl	lcd_WriteControl
  74:.\Generated_Source\PSoC5/lcd.c ****     lcd_WriteControl(lcd_CLEAR_DISPLAY);          /* Clear LCD Screen */
 101              		.loc 1 74 0
 102 006c 4FF00100 		mov	r0, #1
 103 0070 FFF7FEFF 		bl	lcd_WriteControl
  75:.\Generated_Source\PSoC5/lcd.c ****     lcd_WriteControl(lcd_DISPLAY_ON_CURSOR_OFF);  /* Turn Display ON, Cursor OFF */
 104              		.loc 1 75 0
 105 0074 4FF00C00 		mov	r0, #12
 106 0078 FFF7FEFF 		bl	lcd_WriteControl
  76:.\Generated_Source\PSoC5/lcd.c ****     lcd_WriteControl(lcd_RESET_CURSOR_POSITION);  /* Set Cursor to 0,0 */
 107              		.loc 1 76 0
 108 007c 4FF00300 		mov	r0, #3
 109 0080 FFF7FEFF 		bl	lcd_WriteControl
  77:.\Generated_Source\PSoC5/lcd.c ****     CyDelay(5u);
 110              		.loc 1 77 0
 111 0084 4FF00500 		mov	r0, #5
 112 0088 FFF7FEFF 		bl	CyDelay
  78:.\Generated_Source\PSoC5/lcd.c **** 
  79:.\Generated_Source\PSoC5/lcd.c ****     #if(lcd_CUSTOM_CHAR_SET != lcd_NONE)
  80:.\Generated_Source\PSoC5/lcd.c ****         lcd_LoadCustomFonts(lcd_customFonts);
  81:.\Generated_Source\PSoC5/lcd.c ****     #endif /* lcd_CUSTOM_CHAR_SET != lcd_NONE */
  82:.\Generated_Source\PSoC5/lcd.c **** }
 113              		.loc 1 82 0
 114 008c 80BD     		pop	{r7, pc}
 115              		.cfi_endproc
 116              	.LFE0:
 117              		.size	lcd_Init, .-lcd_Init
 118 008e 00BF     		.section	.text.lcd_Enable,"ax",%progbits
 119              		.align	2
 120              		.global	lcd_Enable
 121              		.thumb
 122              		.thumb_func
 123              		.type	lcd_Enable, %function
 124              	lcd_Enable:
 125              	.LFB1:
  83:.\Generated_Source\PSoC5/lcd.c **** 
  84:.\Generated_Source\PSoC5/lcd.c **** 
  85:.\Generated_Source\PSoC5/lcd.c **** /*******************************************************************************
  86:.\Generated_Source\PSoC5/lcd.c **** * Function Name: lcd_Enable
  87:.\Generated_Source\PSoC5/lcd.c **** ********************************************************************************
  88:.\Generated_Source\PSoC5/lcd.c **** *
  89:.\Generated_Source\PSoC5/lcd.c **** * Summary:
  90:.\Generated_Source\PSoC5/lcd.c **** *  Turns on the display.
  91:.\Generated_Source\PSoC5/lcd.c **** *
  92:.\Generated_Source\PSoC5/lcd.c **** * Parameters:
  93:.\Generated_Source\PSoC5/lcd.c **** *  None.
  94:.\Generated_Source\PSoC5/lcd.c **** *
  95:.\Generated_Source\PSoC5/lcd.c **** * Return:
  96:.\Generated_Source\PSoC5/lcd.c **** *  None.
ARM GAS  C:\Users\arh\AppData\Local\Temp\ccfGlav7.s 			page 5


  97:.\Generated_Source\PSoC5/lcd.c **** *
  98:.\Generated_Source\PSoC5/lcd.c **** * Reentrant:
  99:.\Generated_Source\PSoC5/lcd.c **** *  No.
 100:.\Generated_Source\PSoC5/lcd.c **** *
 101:.\Generated_Source\PSoC5/lcd.c **** * Theory:
 102:.\Generated_Source\PSoC5/lcd.c **** *  This finction has no effect when it called first time as
 103:.\Generated_Source\PSoC5/lcd.c **** *  lcd_Init() turns on the LCD.
 104:.\Generated_Source\PSoC5/lcd.c **** *
 105:.\Generated_Source\PSoC5/lcd.c **** *******************************************************************************/
 106:.\Generated_Source\PSoC5/lcd.c **** void lcd_Enable(void) 
 107:.\Generated_Source\PSoC5/lcd.c **** {
 126              		.loc 1 107 0
 127              		.cfi_startproc
 128              		@ args = 0, pretend = 0, frame = 0
 129              		@ frame_needed = 1, uses_anonymous_args = 0
 130 0000 80B5     		push	{r7, lr}
 131              	.LCFI2:
 132              		.cfi_def_cfa_offset 8
 133 0002 00AF     		add	r7, sp, #0
 134              		.cfi_offset 14, -4
 135              		.cfi_offset 7, -8
 136              	.LCFI3:
 137              		.cfi_def_cfa_register 7
 108:.\Generated_Source\PSoC5/lcd.c ****     lcd_DisplayOn();
 138              		.loc 1 108 0
 139 0004 4FF00C00 		mov	r0, #12
 140 0008 FFF7FEFF 		bl	lcd_WriteControl
 109:.\Generated_Source\PSoC5/lcd.c ****     lcd_enableState = 1u;
 141              		.loc 1 109 0
 142 000c 40F20003 		movw	r3, #:lower16:lcd_enableState
 143 0010 C0F20003 		movt	r3, #:upper16:lcd_enableState
 144 0014 4FF00102 		mov	r2, #1
 145 0018 1A70     		strb	r2, [r3, #0]
 110:.\Generated_Source\PSoC5/lcd.c **** }
 146              		.loc 1 110 0
 147 001a 80BD     		pop	{r7, pc}
 148              		.cfi_endproc
 149              	.LFE1:
 150              		.size	lcd_Enable, .-lcd_Enable
 151              		.section	.text.lcd_Start,"ax",%progbits
 152              		.align	2
 153              		.global	lcd_Start
 154              		.thumb
 155              		.thumb_func
 156              		.type	lcd_Start, %function
 157              	lcd_Start:
 158              	.LFB2:
 111:.\Generated_Source\PSoC5/lcd.c **** 
 112:.\Generated_Source\PSoC5/lcd.c **** 
 113:.\Generated_Source\PSoC5/lcd.c **** /*******************************************************************************
 114:.\Generated_Source\PSoC5/lcd.c **** * Function Name: lcd_Start
 115:.\Generated_Source\PSoC5/lcd.c **** ********************************************************************************
 116:.\Generated_Source\PSoC5/lcd.c **** *
 117:.\Generated_Source\PSoC5/lcd.c **** * Summary:
 118:.\Generated_Source\PSoC5/lcd.c **** *  Perform initialization required for components normal work.
 119:.\Generated_Source\PSoC5/lcd.c **** *  This function initializes the LCD hardware module as follows:
 120:.\Generated_Source\PSoC5/lcd.c **** *        Enable 4-bit interface
ARM GAS  C:\Users\arh\AppData\Local\Temp\ccfGlav7.s 			page 6


 121:.\Generated_Source\PSoC5/lcd.c **** *        Clear the display
 122:.\Generated_Source\PSoC5/lcd.c **** *        Enable auto cursor increment
 123:.\Generated_Source\PSoC5/lcd.c **** *        Resets the cursor to start position
 124:.\Generated_Source\PSoC5/lcd.c **** *  Also loads custom character set to LCD if it was defined in the customizer.
 125:.\Generated_Source\PSoC5/lcd.c **** *  If it was not the first call in this project then it just turns on the
 126:.\Generated_Source\PSoC5/lcd.c **** *  display
 127:.\Generated_Source\PSoC5/lcd.c **** *
 128:.\Generated_Source\PSoC5/lcd.c **** *
 129:.\Generated_Source\PSoC5/lcd.c **** * Parameters:
 130:.\Generated_Source\PSoC5/lcd.c **** *  lcd_initVar - global variable.
 131:.\Generated_Source\PSoC5/lcd.c **** *
 132:.\Generated_Source\PSoC5/lcd.c **** * Return:
 133:.\Generated_Source\PSoC5/lcd.c **** *  lcd_initVar - global variable.
 134:.\Generated_Source\PSoC5/lcd.c **** *
 135:.\Generated_Source\PSoC5/lcd.c **** * Reentrant:
 136:.\Generated_Source\PSoC5/lcd.c **** *  No.
 137:.\Generated_Source\PSoC5/lcd.c **** *
 138:.\Generated_Source\PSoC5/lcd.c **** *******************************************************************************/
 139:.\Generated_Source\PSoC5/lcd.c **** void lcd_Start() 
 140:.\Generated_Source\PSoC5/lcd.c **** {
 159              		.loc 1 140 0
 160              		.cfi_startproc
 161              		@ args = 0, pretend = 0, frame = 0
 162              		@ frame_needed = 1, uses_anonymous_args = 0
 163 0000 80B5     		push	{r7, lr}
 164              	.LCFI4:
 165              		.cfi_def_cfa_offset 8
 166 0002 00AF     		add	r7, sp, #0
 167              		.cfi_offset 14, -4
 168              		.cfi_offset 7, -8
 169              	.LCFI5:
 170              		.cfi_def_cfa_register 7
 141:.\Generated_Source\PSoC5/lcd.c ****     /* If not initialized then perform initialization */
 142:.\Generated_Source\PSoC5/lcd.c ****     if(lcd_initVar == 0u)
 171              		.loc 1 142 0
 172 0004 40F20003 		movw	r3, #:lower16:lcd_initVar
 173 0008 C0F20003 		movt	r3, #:upper16:lcd_initVar
 174 000c 1B78     		ldrb	r3, [r3, #0]	@ zero_extendqisi2
 175 000e 002B     		cmp	r3, #0
 176 0010 08D1     		bne	.L6
 143:.\Generated_Source\PSoC5/lcd.c ****     {
 144:.\Generated_Source\PSoC5/lcd.c ****         lcd_Init();
 177              		.loc 1 144 0
 178 0012 FFF7FEFF 		bl	lcd_Init
 145:.\Generated_Source\PSoC5/lcd.c ****         lcd_initVar = 1u;
 179              		.loc 1 145 0
 180 0016 40F20003 		movw	r3, #:lower16:lcd_initVar
 181 001a C0F20003 		movt	r3, #:upper16:lcd_initVar
 182 001e 4FF00102 		mov	r2, #1
 183 0022 1A70     		strb	r2, [r3, #0]
 184              	.L6:
 146:.\Generated_Source\PSoC5/lcd.c ****     }
 147:.\Generated_Source\PSoC5/lcd.c **** 
 148:.\Generated_Source\PSoC5/lcd.c ****     /* Turn on the LCD */
 149:.\Generated_Source\PSoC5/lcd.c ****     lcd_Enable();
 185              		.loc 1 149 0
 186 0024 FFF7FEFF 		bl	lcd_Enable
ARM GAS  C:\Users\arh\AppData\Local\Temp\ccfGlav7.s 			page 7


 150:.\Generated_Source\PSoC5/lcd.c **** }
 187              		.loc 1 150 0
 188 0028 80BD     		pop	{r7, pc}
 189              		.cfi_endproc
 190              	.LFE2:
 191              		.size	lcd_Start, .-lcd_Start
 192 002a 00BF     		.section	.text.lcd_Stop,"ax",%progbits
 193              		.align	2
 194              		.global	lcd_Stop
 195              		.thumb
 196              		.thumb_func
 197              		.type	lcd_Stop, %function
 198              	lcd_Stop:
 199              	.LFB3:
 151:.\Generated_Source\PSoC5/lcd.c **** 
 152:.\Generated_Source\PSoC5/lcd.c **** 
 153:.\Generated_Source\PSoC5/lcd.c **** /*******************************************************************************
 154:.\Generated_Source\PSoC5/lcd.c **** * Function Name: lcd_Stop
 155:.\Generated_Source\PSoC5/lcd.c **** ********************************************************************************
 156:.\Generated_Source\PSoC5/lcd.c **** *
 157:.\Generated_Source\PSoC5/lcd.c **** * Summary:
 158:.\Generated_Source\PSoC5/lcd.c **** *  Turns off the display of the LCD screen.
 159:.\Generated_Source\PSoC5/lcd.c **** *
 160:.\Generated_Source\PSoC5/lcd.c **** * Parameters:
 161:.\Generated_Source\PSoC5/lcd.c **** *  None.
 162:.\Generated_Source\PSoC5/lcd.c **** *
 163:.\Generated_Source\PSoC5/lcd.c **** * Return:
 164:.\Generated_Source\PSoC5/lcd.c **** *  None.
 165:.\Generated_Source\PSoC5/lcd.c **** *
 166:.\Generated_Source\PSoC5/lcd.c **** * Reentrant:
 167:.\Generated_Source\PSoC5/lcd.c **** *  No.
 168:.\Generated_Source\PSoC5/lcd.c **** *
 169:.\Generated_Source\PSoC5/lcd.c **** *******************************************************************************/
 170:.\Generated_Source\PSoC5/lcd.c **** void lcd_Stop() 
 171:.\Generated_Source\PSoC5/lcd.c **** {
 200              		.loc 1 171 0
 201              		.cfi_startproc
 202              		@ args = 0, pretend = 0, frame = 0
 203              		@ frame_needed = 1, uses_anonymous_args = 0
 204 0000 80B5     		push	{r7, lr}
 205              	.LCFI6:
 206              		.cfi_def_cfa_offset 8
 207 0002 00AF     		add	r7, sp, #0
 208              		.cfi_offset 14, -4
 209              		.cfi_offset 7, -8
 210              	.LCFI7:
 211              		.cfi_def_cfa_register 7
 172:.\Generated_Source\PSoC5/lcd.c ****     /* Calls LCD Off Macro */
 173:.\Generated_Source\PSoC5/lcd.c ****     lcd_DisplayOff();
 212              		.loc 1 173 0
 213 0004 4FF00800 		mov	r0, #8
 214 0008 FFF7FEFF 		bl	lcd_WriteControl
 174:.\Generated_Source\PSoC5/lcd.c ****     lcd_enableState = 0u;
 215              		.loc 1 174 0
 216 000c 40F20003 		movw	r3, #:lower16:lcd_enableState
 217 0010 C0F20003 		movt	r3, #:upper16:lcd_enableState
 218 0014 4FF00002 		mov	r2, #0
ARM GAS  C:\Users\arh\AppData\Local\Temp\ccfGlav7.s 			page 8


 219 0018 1A70     		strb	r2, [r3, #0]
 175:.\Generated_Source\PSoC5/lcd.c **** }
 220              		.loc 1 175 0
 221 001a 80BD     		pop	{r7, pc}
 222              		.cfi_endproc
 223              	.LFE3:
 224              		.size	lcd_Stop, .-lcd_Stop
 225              		.section	.text.lcd_Position,"ax",%progbits
 226              		.align	2
 227              		.global	lcd_Position
 228              		.thumb
 229              		.thumb_func
 230              		.type	lcd_Position, %function
 231              	lcd_Position:
 232              	.LFB4:
 176:.\Generated_Source\PSoC5/lcd.c **** 
 177:.\Generated_Source\PSoC5/lcd.c **** 
 178:.\Generated_Source\PSoC5/lcd.c **** /*******************************************************************************
 179:.\Generated_Source\PSoC5/lcd.c **** *  Function Name: lcd_Position
 180:.\Generated_Source\PSoC5/lcd.c **** ********************************************************************************
 181:.\Generated_Source\PSoC5/lcd.c **** *
 182:.\Generated_Source\PSoC5/lcd.c **** * Summary:
 183:.\Generated_Source\PSoC5/lcd.c **** *  Moves active cursor location to a point specified by the input arguments
 184:.\Generated_Source\PSoC5/lcd.c **** *
 185:.\Generated_Source\PSoC5/lcd.c **** * Parameters:
 186:.\Generated_Source\PSoC5/lcd.c **** *  row:     Specific row of LCD module to be written
 187:.\Generated_Source\PSoC5/lcd.c **** *  column:  Column of LCD module to be written
 188:.\Generated_Source\PSoC5/lcd.c **** *
 189:.\Generated_Source\PSoC5/lcd.c **** * Return:
 190:.\Generated_Source\PSoC5/lcd.c **** *  None.
 191:.\Generated_Source\PSoC5/lcd.c **** *
 192:.\Generated_Source\PSoC5/lcd.c **** * Note:
 193:.\Generated_Source\PSoC5/lcd.c **** *  This only applies for LCD displays which use the 2X40 address mode.
 194:.\Generated_Source\PSoC5/lcd.c **** *  This results in Row 2 offset from row one by 0x28.
 195:.\Generated_Source\PSoC5/lcd.c **** *  When there are more than 2 rows, each row must be fewer than 20 characters.
 196:.\Generated_Source\PSoC5/lcd.c **** *
 197:.\Generated_Source\PSoC5/lcd.c **** *******************************************************************************/
 198:.\Generated_Source\PSoC5/lcd.c **** void lcd_Position(uint8 row, uint8 column) 
 199:.\Generated_Source\PSoC5/lcd.c **** {
 233              		.loc 1 199 0
 234              		.cfi_startproc
 235              		@ args = 0, pretend = 0, frame = 8
 236              		@ frame_needed = 1, uses_anonymous_args = 0
 237 0000 80B5     		push	{r7, lr}
 238              	.LCFI8:
 239              		.cfi_def_cfa_offset 8
 240 0002 82B0     		sub	sp, sp, #8
 241              	.LCFI9:
 242              		.cfi_def_cfa_offset 16
 243 0004 00AF     		add	r7, sp, #0
 244              		.cfi_offset 14, -4
 245              		.cfi_offset 7, -8
 246              	.LCFI10:
 247              		.cfi_def_cfa_register 7
 248 0006 0246     		mov	r2, r0
 249 0008 0B46     		mov	r3, r1
 250 000a FA71     		strb	r2, [r7, #7]
ARM GAS  C:\Users\arh\AppData\Local\Temp\ccfGlav7.s 			page 9


 251 000c BB71     		strb	r3, [r7, #6]
 200:.\Generated_Source\PSoC5/lcd.c ****     switch (row)
 252              		.loc 1 200 0
 253 000e FB79     		ldrb	r3, [r7, #7]	@ zero_extendqisi2
 254 0010 032B     		cmp	r3, #3
 255 0012 2AD8     		bhi	.L17
 256 0014 01A2     		adr	r2, .L16
 257 0016 52F823F0 		ldr	pc, [r2, r3, lsl #2]
 258 001a 00BF     		.align	2
 259              	.L16:
 260 001c 2D000000 		.word	.L12+1
 261 0020 3D000000 		.word	.L13+1
 262 0024 4D000000 		.word	.L14+1
 263 0028 5D000000 		.word	.L15+1
 264              	.L12:
 201:.\Generated_Source\PSoC5/lcd.c ****     {
 202:.\Generated_Source\PSoC5/lcd.c ****         case 0:
 203:.\Generated_Source\PSoC5/lcd.c ****             lcd_WriteControl(lcd_ROW_0_START + column);
 265              		.loc 1 203 0
 266 002c BB79     		ldrb	r3, [r7, #6]
 267 002e A3F18003 		sub	r3, r3, #128
 268 0032 DBB2     		uxtb	r3, r3
 269 0034 1846     		mov	r0, r3
 270 0036 FFF7FEFF 		bl	lcd_WriteControl
 204:.\Generated_Source\PSoC5/lcd.c ****             break;
 271              		.loc 1 204 0
 272 003a 16E0     		b	.L17
 273              	.L13:
 205:.\Generated_Source\PSoC5/lcd.c ****         case 1:
 206:.\Generated_Source\PSoC5/lcd.c ****             lcd_WriteControl(lcd_ROW_1_START + column);
 274              		.loc 1 206 0
 275 003c BB79     		ldrb	r3, [r7, #6]
 276 003e A3F14003 		sub	r3, r3, #64
 277 0042 DBB2     		uxtb	r3, r3
 278 0044 1846     		mov	r0, r3
 279 0046 FFF7FEFF 		bl	lcd_WriteControl
 207:.\Generated_Source\PSoC5/lcd.c ****             break;
 280              		.loc 1 207 0
 281 004a 0EE0     		b	.L17
 282              	.L14:
 208:.\Generated_Source\PSoC5/lcd.c ****         case 2:
 209:.\Generated_Source\PSoC5/lcd.c ****             lcd_WriteControl(lcd_ROW_2_START + column);
 283              		.loc 1 209 0
 284 004c BB79     		ldrb	r3, [r7, #6]
 285 004e A3F16C03 		sub	r3, r3, #108
 286 0052 DBB2     		uxtb	r3, r3
 287 0054 1846     		mov	r0, r3
 288 0056 FFF7FEFF 		bl	lcd_WriteControl
 210:.\Generated_Source\PSoC5/lcd.c ****             break;
 289              		.loc 1 210 0
 290 005a 06E0     		b	.L17
 291              	.L15:
 211:.\Generated_Source\PSoC5/lcd.c ****         case 3:
 212:.\Generated_Source\PSoC5/lcd.c ****             lcd_WriteControl(lcd_ROW_3_START + column);
 292              		.loc 1 212 0
 293 005c BB79     		ldrb	r3, [r7, #6]
 294 005e A3F12C03 		sub	r3, r3, #44
ARM GAS  C:\Users\arh\AppData\Local\Temp\ccfGlav7.s 			page 10


 295 0062 DBB2     		uxtb	r3, r3
 296 0064 1846     		mov	r0, r3
 297 0066 FFF7FEFF 		bl	lcd_WriteControl
 298              	.L17:
 213:.\Generated_Source\PSoC5/lcd.c ****             break;
 214:.\Generated_Source\PSoC5/lcd.c ****         default:
 215:.\Generated_Source\PSoC5/lcd.c ****             /* if default case is hit, invalid row argument was passed.*/
 216:.\Generated_Source\PSoC5/lcd.c ****             break;
 217:.\Generated_Source\PSoC5/lcd.c ****     }
 218:.\Generated_Source\PSoC5/lcd.c **** }
 299              		.loc 1 218 0
 300 006a 07F10807 		add	r7, r7, #8
 301 006e BD46     		mov	sp, r7
 302 0070 80BD     		pop	{r7, pc}
 303              		.cfi_endproc
 304              	.LFE4:
 305              		.size	lcd_Position, .-lcd_Position
 306 0072 00BF     		.section	.text.lcd_PrintString,"ax",%progbits
 307              		.align	2
 308              		.global	lcd_PrintString
 309              		.thumb
 310              		.thumb_func
 311              		.type	lcd_PrintString, %function
 312              	lcd_PrintString:
 313              	.LFB5:
 219:.\Generated_Source\PSoC5/lcd.c **** 
 220:.\Generated_Source\PSoC5/lcd.c **** 
 221:.\Generated_Source\PSoC5/lcd.c **** /*******************************************************************************
 222:.\Generated_Source\PSoC5/lcd.c **** * Function Name: lcd_PrintString
 223:.\Generated_Source\PSoC5/lcd.c **** ********************************************************************************
 224:.\Generated_Source\PSoC5/lcd.c **** *
 225:.\Generated_Source\PSoC5/lcd.c **** * Summary:
 226:.\Generated_Source\PSoC5/lcd.c **** *  Writes a zero terminated string to the LCD.
 227:.\Generated_Source\PSoC5/lcd.c **** *
 228:.\Generated_Source\PSoC5/lcd.c **** * Parameters:
 229:.\Generated_Source\PSoC5/lcd.c **** *  string:  pointer to head of char8 array to be written to the LCD module
 230:.\Generated_Source\PSoC5/lcd.c **** *
 231:.\Generated_Source\PSoC5/lcd.c **** * Return:
 232:.\Generated_Source\PSoC5/lcd.c **** *  None.
 233:.\Generated_Source\PSoC5/lcd.c **** *
 234:.\Generated_Source\PSoC5/lcd.c **** *******************************************************************************/
 235:.\Generated_Source\PSoC5/lcd.c **** void lcd_PrintString(char8 * string) 
 236:.\Generated_Source\PSoC5/lcd.c **** {
 314              		.loc 1 236 0
 315              		.cfi_startproc
 316              		@ args = 0, pretend = 0, frame = 16
 317              		@ frame_needed = 1, uses_anonymous_args = 0
 318 0000 80B5     		push	{r7, lr}
 319              	.LCFI11:
 320              		.cfi_def_cfa_offset 8
 321 0002 84B0     		sub	sp, sp, #16
 322              	.LCFI12:
 323              		.cfi_def_cfa_offset 24
 324 0004 00AF     		add	r7, sp, #0
 325              		.cfi_offset 14, -4
 326              		.cfi_offset 7, -8
 327              	.LCFI13:
ARM GAS  C:\Users\arh\AppData\Local\Temp\ccfGlav7.s 			page 11


 328              		.cfi_def_cfa_register 7
 329 0006 7860     		str	r0, [r7, #4]
 237:.\Generated_Source\PSoC5/lcd.c ****     uint8 indexU8 = 1u;
 330              		.loc 1 237 0
 331 0008 4FF00103 		mov	r3, #1
 332 000c BB73     		strb	r3, [r7, #14]
 238:.\Generated_Source\PSoC5/lcd.c ****     char8 current = *string;
 333              		.loc 1 238 0
 334 000e 7B68     		ldr	r3, [r7, #4]
 335 0010 1B78     		ldrb	r3, [r3, #0]
 336 0012 FB73     		strb	r3, [r7, #15]
 239:.\Generated_Source\PSoC5/lcd.c **** 
 240:.\Generated_Source\PSoC5/lcd.c ****     /* Until null is reached, print next character */
 241:.\Generated_Source\PSoC5/lcd.c ****     while(current != (char8) '\0')
 337              		.loc 1 241 0
 338 0014 0CE0     		b	.L19
 339              	.L20:
 242:.\Generated_Source\PSoC5/lcd.c ****     {
 243:.\Generated_Source\PSoC5/lcd.c ****         lcd_WriteData(current);
 340              		.loc 1 243 0
 341 0016 FB7B     		ldrb	r3, [r7, #15]	@ zero_extendqisi2
 342 0018 1846     		mov	r0, r3
 343 001a FFF7FEFF 		bl	lcd_WriteData
 244:.\Generated_Source\PSoC5/lcd.c ****         current = *(string + indexU8);
 344              		.loc 1 244 0
 345 001e BA7B     		ldrb	r2, [r7, #14]	@ zero_extendqisi2
 346 0020 7B68     		ldr	r3, [r7, #4]
 347 0022 1344     		add	r3, r2, r3
 348 0024 1B78     		ldrb	r3, [r3, #0]
 349 0026 FB73     		strb	r3, [r7, #15]
 245:.\Generated_Source\PSoC5/lcd.c ****         indexU8++;
 350              		.loc 1 245 0
 351 0028 BB7B     		ldrb	r3, [r7, #14]
 352 002a 03F10103 		add	r3, r3, #1
 353 002e BB73     		strb	r3, [r7, #14]
 354              	.L19:
 355              		.loc 1 241 0
 356 0030 FB7B     		ldrb	r3, [r7, #15]	@ zero_extendqisi2
 357 0032 002B     		cmp	r3, #0
 358 0034 EFD1     		bne	.L20
 246:.\Generated_Source\PSoC5/lcd.c ****     }
 247:.\Generated_Source\PSoC5/lcd.c **** }
 359              		.loc 1 247 0
 360 0036 07F11007 		add	r7, r7, #16
 361 003a BD46     		mov	sp, r7
 362 003c 80BD     		pop	{r7, pc}
 363              		.cfi_endproc
 364              	.LFE5:
 365              		.size	lcd_PrintString, .-lcd_PrintString
 366 003e 00BF     		.section	.text.lcd_PutChar,"ax",%progbits
 367              		.align	2
 368              		.global	lcd_PutChar
 369              		.thumb
 370              		.thumb_func
 371              		.type	lcd_PutChar, %function
 372              	lcd_PutChar:
 373              	.LFB6:
ARM GAS  C:\Users\arh\AppData\Local\Temp\ccfGlav7.s 			page 12


 248:.\Generated_Source\PSoC5/lcd.c **** 
 249:.\Generated_Source\PSoC5/lcd.c **** 
 250:.\Generated_Source\PSoC5/lcd.c **** /*******************************************************************************
 251:.\Generated_Source\PSoC5/lcd.c **** *  Function Name: lcd_PutChar
 252:.\Generated_Source\PSoC5/lcd.c **** ********************************************************************************
 253:.\Generated_Source\PSoC5/lcd.c **** *
 254:.\Generated_Source\PSoC5/lcd.c **** * Summary:
 255:.\Generated_Source\PSoC5/lcd.c **** *  Writes a single character to the current cursor position of the LCD module.
 256:.\Generated_Source\PSoC5/lcd.c **** *  Custom character names (_CUSTOM_0 through
 257:.\Generated_Source\PSoC5/lcd.c **** *  _CUSTOM_7) are acceptable as inputs.
 258:.\Generated_Source\PSoC5/lcd.c **** *
 259:.\Generated_Source\PSoC5/lcd.c **** * Parameters:
 260:.\Generated_Source\PSoC5/lcd.c **** *  character:  character to be written to the LCD
 261:.\Generated_Source\PSoC5/lcd.c **** *
 262:.\Generated_Source\PSoC5/lcd.c **** * Return:
 263:.\Generated_Source\PSoC5/lcd.c **** *  None.
 264:.\Generated_Source\PSoC5/lcd.c **** *
 265:.\Generated_Source\PSoC5/lcd.c **** *******************************************************************************/
 266:.\Generated_Source\PSoC5/lcd.c **** void lcd_PutChar(char8 character) 
 267:.\Generated_Source\PSoC5/lcd.c **** {
 374              		.loc 1 267 0
 375              		.cfi_startproc
 376              		@ args = 0, pretend = 0, frame = 8
 377              		@ frame_needed = 1, uses_anonymous_args = 0
 378 0000 80B5     		push	{r7, lr}
 379              	.LCFI14:
 380              		.cfi_def_cfa_offset 8
 381 0002 82B0     		sub	sp, sp, #8
 382              	.LCFI15:
 383              		.cfi_def_cfa_offset 16
 384 0004 00AF     		add	r7, sp, #0
 385              		.cfi_offset 14, -4
 386              		.cfi_offset 7, -8
 387              	.LCFI16:
 388              		.cfi_def_cfa_register 7
 389 0006 0346     		mov	r3, r0
 390 0008 FB71     		strb	r3, [r7, #7]
 268:.\Generated_Source\PSoC5/lcd.c ****     lcd_WriteData(character);
 391              		.loc 1 268 0
 392 000a FB79     		ldrb	r3, [r7, #7]	@ zero_extendqisi2
 393 000c 1846     		mov	r0, r3
 394 000e FFF7FEFF 		bl	lcd_WriteData
 269:.\Generated_Source\PSoC5/lcd.c **** }
 395              		.loc 1 269 0
 396 0012 07F10807 		add	r7, r7, #8
 397 0016 BD46     		mov	sp, r7
 398 0018 80BD     		pop	{r7, pc}
 399              		.cfi_endproc
 400              	.LFE6:
 401              		.size	lcd_PutChar, .-lcd_PutChar
 402 001a 00BF     		.section	.text.lcd_WriteData,"ax",%progbits
 403              		.align	2
 404              		.global	lcd_WriteData
 405              		.thumb
 406              		.thumb_func
 407              		.type	lcd_WriteData, %function
 408              	lcd_WriteData:
ARM GAS  C:\Users\arh\AppData\Local\Temp\ccfGlav7.s 			page 13


 409              	.LFB7:
 270:.\Generated_Source\PSoC5/lcd.c **** 
 271:.\Generated_Source\PSoC5/lcd.c **** 
 272:.\Generated_Source\PSoC5/lcd.c **** /*******************************************************************************
 273:.\Generated_Source\PSoC5/lcd.c **** *  Function Name: lcd_WriteData
 274:.\Generated_Source\PSoC5/lcd.c **** ********************************************************************************
 275:.\Generated_Source\PSoC5/lcd.c **** *
 276:.\Generated_Source\PSoC5/lcd.c **** * Summary:
 277:.\Generated_Source\PSoC5/lcd.c **** *  Writes a data byte to the LCD module's Data Display RAM.
 278:.\Generated_Source\PSoC5/lcd.c **** *
 279:.\Generated_Source\PSoC5/lcd.c **** * Parameters:
 280:.\Generated_Source\PSoC5/lcd.c **** *  dByte:  byte to be written to LCD module.
 281:.\Generated_Source\PSoC5/lcd.c **** *
 282:.\Generated_Source\PSoC5/lcd.c **** * Return:
 283:.\Generated_Source\PSoC5/lcd.c **** *  None.
 284:.\Generated_Source\PSoC5/lcd.c **** *
 285:.\Generated_Source\PSoC5/lcd.c **** *******************************************************************************/
 286:.\Generated_Source\PSoC5/lcd.c **** void lcd_WriteData(uint8 dByte) 
 287:.\Generated_Source\PSoC5/lcd.c **** {
 410              		.loc 1 287 0
 411              		.cfi_startproc
 412              		@ args = 0, pretend = 0, frame = 16
 413              		@ frame_needed = 1, uses_anonymous_args = 0
 414 0000 80B5     		push	{r7, lr}
 415              	.LCFI17:
 416              		.cfi_def_cfa_offset 8
 417 0002 84B0     		sub	sp, sp, #16
 418              	.LCFI18:
 419              		.cfi_def_cfa_offset 24
 420 0004 00AF     		add	r7, sp, #0
 421              		.cfi_offset 14, -4
 422              		.cfi_offset 7, -8
 423              	.LCFI19:
 424              		.cfi_def_cfa_register 7
 425 0006 0346     		mov	r3, r0
 426 0008 FB71     		strb	r3, [r7, #7]
 288:.\Generated_Source\PSoC5/lcd.c ****     uint8 nibble;
 289:.\Generated_Source\PSoC5/lcd.c **** 
 290:.\Generated_Source\PSoC5/lcd.c ****     lcd_IsReady();
 427              		.loc 1 290 0
 428 000a FFF7FEFF 		bl	lcd_IsReady
 291:.\Generated_Source\PSoC5/lcd.c ****     nibble = dByte >> lcd_NIBBLE_SHIFT;
 429              		.loc 1 291 0
 430 000e FB79     		ldrb	r3, [r7, #7]	@ zero_extendqisi2
 431 0010 4FEA1313 		lsr	r3, r3, #4
 432 0014 FB73     		strb	r3, [r7, #15]
 292:.\Generated_Source\PSoC5/lcd.c **** 
 293:.\Generated_Source\PSoC5/lcd.c ****     /* Write high nibble */
 294:.\Generated_Source\PSoC5/lcd.c ****     lcd_WrDatNib(nibble);
 433              		.loc 1 294 0
 434 0016 FB7B     		ldrb	r3, [r7, #15]	@ zero_extendqisi2
 435 0018 1846     		mov	r0, r3
 436 001a FFF7FEFF 		bl	lcd_WrDatNib
 295:.\Generated_Source\PSoC5/lcd.c **** 
 296:.\Generated_Source\PSoC5/lcd.c ****     nibble = dByte & lcd_NIBBLE_MASK;
 437              		.loc 1 296 0
 438 001e FB79     		ldrb	r3, [r7, #7]
ARM GAS  C:\Users\arh\AppData\Local\Temp\ccfGlav7.s 			page 14


 439 0020 03F00F03 		and	r3, r3, #15
 440 0024 FB73     		strb	r3, [r7, #15]
 297:.\Generated_Source\PSoC5/lcd.c ****     /* Write low nibble */
 298:.\Generated_Source\PSoC5/lcd.c ****     lcd_WrDatNib(nibble);
 441              		.loc 1 298 0
 442 0026 FB7B     		ldrb	r3, [r7, #15]	@ zero_extendqisi2
 443 0028 1846     		mov	r0, r3
 444 002a FFF7FEFF 		bl	lcd_WrDatNib
 299:.\Generated_Source\PSoC5/lcd.c **** }
 445              		.loc 1 299 0
 446 002e 07F11007 		add	r7, r7, #16
 447 0032 BD46     		mov	sp, r7
 448 0034 80BD     		pop	{r7, pc}
 449              		.cfi_endproc
 450              	.LFE7:
 451              		.size	lcd_WriteData, .-lcd_WriteData
 452 0036 00BF     		.section	.text.lcd_WriteControl,"ax",%progbits
 453              		.align	2
 454              		.global	lcd_WriteControl
 455              		.thumb
 456              		.thumb_func
 457              		.type	lcd_WriteControl, %function
 458              	lcd_WriteControl:
 459              	.LFB8:
 300:.\Generated_Source\PSoC5/lcd.c **** 
 301:.\Generated_Source\PSoC5/lcd.c **** 
 302:.\Generated_Source\PSoC5/lcd.c **** /*******************************************************************************
 303:.\Generated_Source\PSoC5/lcd.c **** *  Function Name: lcd_WriteControl
 304:.\Generated_Source\PSoC5/lcd.c **** ********************************************************************************
 305:.\Generated_Source\PSoC5/lcd.c **** *
 306:.\Generated_Source\PSoC5/lcd.c **** * Summary:
 307:.\Generated_Source\PSoC5/lcd.c **** *  Writes a command byte to the LCD module.
 308:.\Generated_Source\PSoC5/lcd.c **** *
 309:.\Generated_Source\PSoC5/lcd.c **** * Parameters:
 310:.\Generated_Source\PSoC5/lcd.c **** *  cByte:   byte to be written to LCD module.
 311:.\Generated_Source\PSoC5/lcd.c **** *
 312:.\Generated_Source\PSoC5/lcd.c **** * Return:
 313:.\Generated_Source\PSoC5/lcd.c **** *  None.
 314:.\Generated_Source\PSoC5/lcd.c **** *
 315:.\Generated_Source\PSoC5/lcd.c **** *******************************************************************************/
 316:.\Generated_Source\PSoC5/lcd.c **** void lcd_WriteControl(uint8 cByte) 
 317:.\Generated_Source\PSoC5/lcd.c **** {
 460              		.loc 1 317 0
 461              		.cfi_startproc
 462              		@ args = 0, pretend = 0, frame = 16
 463              		@ frame_needed = 1, uses_anonymous_args = 0
 464 0000 80B5     		push	{r7, lr}
 465              	.LCFI20:
 466              		.cfi_def_cfa_offset 8
 467 0002 84B0     		sub	sp, sp, #16
 468              	.LCFI21:
 469              		.cfi_def_cfa_offset 24
 470 0004 00AF     		add	r7, sp, #0
 471              		.cfi_offset 14, -4
 472              		.cfi_offset 7, -8
 473              	.LCFI22:
 474              		.cfi_def_cfa_register 7
ARM GAS  C:\Users\arh\AppData\Local\Temp\ccfGlav7.s 			page 15


 475 0006 0346     		mov	r3, r0
 476 0008 FB71     		strb	r3, [r7, #7]
 318:.\Generated_Source\PSoC5/lcd.c ****     uint8 nibble;
 319:.\Generated_Source\PSoC5/lcd.c **** 
 320:.\Generated_Source\PSoC5/lcd.c ****     nibble = cByte >> lcd_NIBBLE_SHIFT;
 477              		.loc 1 320 0
 478 000a FB79     		ldrb	r3, [r7, #7]	@ zero_extendqisi2
 479 000c 4FEA1313 		lsr	r3, r3, #4
 480 0010 FB73     		strb	r3, [r7, #15]
 321:.\Generated_Source\PSoC5/lcd.c **** 
 322:.\Generated_Source\PSoC5/lcd.c ****     lcd_IsReady();
 481              		.loc 1 322 0
 482 0012 FFF7FEFF 		bl	lcd_IsReady
 323:.\Generated_Source\PSoC5/lcd.c ****     nibble &= lcd_NIBBLE_MASK;
 483              		.loc 1 323 0
 484 0016 FB7B     		ldrb	r3, [r7, #15]
 485 0018 03F00F03 		and	r3, r3, #15
 486 001c FB73     		strb	r3, [r7, #15]
 324:.\Generated_Source\PSoC5/lcd.c **** 
 325:.\Generated_Source\PSoC5/lcd.c ****     /* WrCntrlNib(High Nibble) */
 326:.\Generated_Source\PSoC5/lcd.c ****     lcd_WrCntrlNib(nibble);
 487              		.loc 1 326 0
 488 001e FB7B     		ldrb	r3, [r7, #15]	@ zero_extendqisi2
 489 0020 1846     		mov	r0, r3
 490 0022 FFF7FEFF 		bl	lcd_WrCntrlNib
 327:.\Generated_Source\PSoC5/lcd.c ****     nibble = cByte & lcd_NIBBLE_MASK;
 491              		.loc 1 327 0
 492 0026 FB79     		ldrb	r3, [r7, #7]
 493 0028 03F00F03 		and	r3, r3, #15
 494 002c FB73     		strb	r3, [r7, #15]
 328:.\Generated_Source\PSoC5/lcd.c **** 
 329:.\Generated_Source\PSoC5/lcd.c ****     /* WrCntrlNib(Low Nibble) */
 330:.\Generated_Source\PSoC5/lcd.c ****     lcd_WrCntrlNib(nibble);
 495              		.loc 1 330 0
 496 002e FB7B     		ldrb	r3, [r7, #15]	@ zero_extendqisi2
 497 0030 1846     		mov	r0, r3
 498 0032 FFF7FEFF 		bl	lcd_WrCntrlNib
 331:.\Generated_Source\PSoC5/lcd.c **** }
 499              		.loc 1 331 0
 500 0036 07F11007 		add	r7, r7, #16
 501 003a BD46     		mov	sp, r7
 502 003c 80BD     		pop	{r7, pc}
 503              		.cfi_endproc
 504              	.LFE8:
 505              		.size	lcd_WriteControl, .-lcd_WriteControl
 506 003e 00BF     		.section	.text.lcd_IsReady,"ax",%progbits
 507              		.align	2
 508              		.global	lcd_IsReady
 509              		.thumb
 510              		.thumb_func
 511              		.type	lcd_IsReady, %function
 512              	lcd_IsReady:
 513              	.LFB9:
 332:.\Generated_Source\PSoC5/lcd.c **** 
 333:.\Generated_Source\PSoC5/lcd.c **** 
 334:.\Generated_Source\PSoC5/lcd.c **** /*******************************************************************************
 335:.\Generated_Source\PSoC5/lcd.c **** * Function Name: lcd_IsReady
ARM GAS  C:\Users\arh\AppData\Local\Temp\ccfGlav7.s 			page 16


 336:.\Generated_Source\PSoC5/lcd.c **** ********************************************************************************
 337:.\Generated_Source\PSoC5/lcd.c **** *
 338:.\Generated_Source\PSoC5/lcd.c **** * Summary:
 339:.\Generated_Source\PSoC5/lcd.c **** *  Polls LCD until the ready bit is set.
 340:.\Generated_Source\PSoC5/lcd.c **** *
 341:.\Generated_Source\PSoC5/lcd.c **** * Parameters:
 342:.\Generated_Source\PSoC5/lcd.c **** *  None.
 343:.\Generated_Source\PSoC5/lcd.c **** *
 344:.\Generated_Source\PSoC5/lcd.c **** * Return:
 345:.\Generated_Source\PSoC5/lcd.c **** *  None.
 346:.\Generated_Source\PSoC5/lcd.c **** *
 347:.\Generated_Source\PSoC5/lcd.c **** * Note:
 348:.\Generated_Source\PSoC5/lcd.c **** *  Changes pins to High-Z.
 349:.\Generated_Source\PSoC5/lcd.c **** *
 350:.\Generated_Source\PSoC5/lcd.c **** *******************************************************************************/
 351:.\Generated_Source\PSoC5/lcd.c **** void lcd_IsReady() 
 352:.\Generated_Source\PSoC5/lcd.c **** {
 514              		.loc 1 352 0
 515              		.cfi_startproc
 516              		@ args = 0, pretend = 0, frame = 8
 517              		@ frame_needed = 1, uses_anonymous_args = 0
 518 0000 80B5     		push	{r7, lr}
 519              	.LCFI23:
 520              		.cfi_def_cfa_offset 8
 521 0002 82B0     		sub	sp, sp, #8
 522              	.LCFI24:
 523              		.cfi_def_cfa_offset 16
 524 0004 00AF     		add	r7, sp, #0
 525              		.cfi_offset 14, -4
 526              		.cfi_offset 7, -8
 527              	.LCFI25:
 528              		.cfi_def_cfa_register 7
 353:.\Generated_Source\PSoC5/lcd.c ****     uint8 value = 0u;
 529              		.loc 1 353 0
 530 0006 4FF00003 		mov	r3, #0
 531 000a FB71     		strb	r3, [r7, #7]
 354:.\Generated_Source\PSoC5/lcd.c **** 
 355:.\Generated_Source\PSoC5/lcd.c ****     /* Clear the LCD port*/
 356:.\Generated_Source\PSoC5/lcd.c ****     lcd_PORT_DR_REG &= ~lcd_PORT_MASK ;
 532              		.loc 1 356 0
 533 000c 45F22013 		movw	r3, #:lower16:1073762592
 534 0010 C4F20003 		movt	r3, #:upper16:1073762592
 535 0014 45F22012 		movw	r2, #:lower16:1073762592
 536 0018 C4F20002 		movt	r2, #:upper16:1073762592
 537 001c 1278     		ldrb	r2, [r2, #0]
 538 001e D2B2     		uxtb	r2, r2
 539 0020 02F08002 		and	r2, r2, #128
 540 0024 1A70     		strb	r2, [r3, #0]
 357:.\Generated_Source\PSoC5/lcd.c **** 
 358:.\Generated_Source\PSoC5/lcd.c ****     /* Change Port to High-Z Status on data pins */
 359:.\Generated_Source\PSoC5/lcd.c **** 
 360:.\Generated_Source\PSoC5/lcd.c ****     /* Mask off data pins to clear old values out */
 361:.\Generated_Source\PSoC5/lcd.c ****     value = lcd_PORT_DM0_REG & ~lcd_DATA_MASK;
 541              		.loc 1 361 0
 542 0026 45F22213 		movw	r3, #:lower16:1073762594
 543 002a C4F20003 		movt	r3, #:upper16:1073762594
 544 002e 1B78     		ldrb	r3, [r3, #0]
ARM GAS  C:\Users\arh\AppData\Local\Temp\ccfGlav7.s 			page 17


 545 0030 DBB2     		uxtb	r3, r3
 546 0032 23F00F03 		bic	r3, r3, #15
 547 0036 FB71     		strb	r3, [r7, #7]
 362:.\Generated_Source\PSoC5/lcd.c ****     /* Load in high Z values for data pins, others unchanged */
 363:.\Generated_Source\PSoC5/lcd.c ****     lcd_PORT_DM0_REG = value | (lcd_HIGH_Z_DM0 & lcd_DATA_MASK);
 548              		.loc 1 363 0
 549 0038 45F22213 		movw	r3, #:lower16:1073762594
 550 003c C4F20003 		movt	r3, #:upper16:1073762594
 551 0040 FA79     		ldrb	r2, [r7, #7]
 552 0042 42F00F02 		orr	r2, r2, #15
 553 0046 D2B2     		uxtb	r2, r2
 554 0048 1A70     		strb	r2, [r3, #0]
 364:.\Generated_Source\PSoC5/lcd.c **** 
 365:.\Generated_Source\PSoC5/lcd.c ****     /* Mask off data pins to clear old values out */
 366:.\Generated_Source\PSoC5/lcd.c ****     value = lcd_PORT_DM1_REG & ~lcd_DATA_MASK;
 555              		.loc 1 366 0
 556 004a 45F22313 		movw	r3, #:lower16:1073762595
 557 004e C4F20003 		movt	r3, #:upper16:1073762595
 558 0052 1B78     		ldrb	r3, [r3, #0]
 559 0054 DBB2     		uxtb	r3, r3
 560 0056 23F00F03 		bic	r3, r3, #15
 561 005a FB71     		strb	r3, [r7, #7]
 367:.\Generated_Source\PSoC5/lcd.c ****     /* Load in high Z values for data pins, others unchanged */
 368:.\Generated_Source\PSoC5/lcd.c ****     lcd_PORT_DM1_REG = value | (lcd_HIGH_Z_DM1 & lcd_DATA_MASK);
 562              		.loc 1 368 0
 563 005c 45F22313 		movw	r3, #:lower16:1073762595
 564 0060 C4F20003 		movt	r3, #:upper16:1073762595
 565 0064 FA79     		ldrb	r2, [r7, #7]
 566 0066 1A70     		strb	r2, [r3, #0]
 369:.\Generated_Source\PSoC5/lcd.c **** 
 370:.\Generated_Source\PSoC5/lcd.c ****     /* Mask off data pins to clear old values out */
 371:.\Generated_Source\PSoC5/lcd.c ****     value = lcd_PORT_DM2_REG & ~lcd_DATA_MASK;
 567              		.loc 1 371 0
 568 0068 45F22413 		movw	r3, #:lower16:1073762596
 569 006c C4F20003 		movt	r3, #:upper16:1073762596
 570 0070 1B78     		ldrb	r3, [r3, #0]
 571 0072 DBB2     		uxtb	r3, r3
 572 0074 23F00F03 		bic	r3, r3, #15
 573 0078 FB71     		strb	r3, [r7, #7]
 372:.\Generated_Source\PSoC5/lcd.c ****     /* Load in high Z values for data pins, others unchanged */
 373:.\Generated_Source\PSoC5/lcd.c ****     lcd_PORT_DM2_REG = value | (lcd_HIGH_Z_DM2 & lcd_DATA_MASK);
 574              		.loc 1 373 0
 575 007a 45F22413 		movw	r3, #:lower16:1073762596
 576 007e C4F20003 		movt	r3, #:upper16:1073762596
 577 0082 FA79     		ldrb	r2, [r7, #7]
 578 0084 1A70     		strb	r2, [r3, #0]
 374:.\Generated_Source\PSoC5/lcd.c **** 
 375:.\Generated_Source\PSoC5/lcd.c ****     /* Make sure RS is low */
 376:.\Generated_Source\PSoC5/lcd.c ****     lcd_PORT_DR_REG &= ~lcd_RS;
 579              		.loc 1 376 0
 580 0086 45F22013 		movw	r3, #:lower16:1073762592
 581 008a C4F20003 		movt	r3, #:upper16:1073762592
 582 008e 45F22012 		movw	r2, #:lower16:1073762592
 583 0092 C4F20002 		movt	r2, #:upper16:1073762592
 584 0096 1278     		ldrb	r2, [r2, #0]
 585 0098 D2B2     		uxtb	r2, r2
 586 009a 02F0DF02 		and	r2, r2, #223
ARM GAS  C:\Users\arh\AppData\Local\Temp\ccfGlav7.s 			page 18


 587 009e 1A70     		strb	r2, [r3, #0]
 377:.\Generated_Source\PSoC5/lcd.c **** 
 378:.\Generated_Source\PSoC5/lcd.c ****     /* Set R/W high to read */
 379:.\Generated_Source\PSoC5/lcd.c ****     lcd_PORT_DR_REG |= lcd_RW;
 588              		.loc 1 379 0
 589 00a0 45F22013 		movw	r3, #:lower16:1073762592
 590 00a4 C4F20003 		movt	r3, #:upper16:1073762592
 591 00a8 45F22012 		movw	r2, #:lower16:1073762592
 592 00ac C4F20002 		movt	r2, #:upper16:1073762592
 593 00b0 1278     		ldrb	r2, [r2, #0]
 594 00b2 D2B2     		uxtb	r2, r2
 595 00b4 42F04002 		orr	r2, r2, #64
 596 00b8 D2B2     		uxtb	r2, r2
 597 00ba 1A70     		strb	r2, [r3, #0]
 598              	.L29:
 380:.\Generated_Source\PSoC5/lcd.c **** 
 381:.\Generated_Source\PSoC5/lcd.c ****     do
 382:.\Generated_Source\PSoC5/lcd.c ****     {
 383:.\Generated_Source\PSoC5/lcd.c ****         /* 40 ns delay required before rising Enable and 500ns between neighbour Enables */
 384:.\Generated_Source\PSoC5/lcd.c ****         CyDelayUs(0u);
 599              		.loc 1 384 0
 600 00bc 4FF00000 		mov	r0, #0
 601 00c0 FFF7FEFF 		bl	CyDelayUs
 385:.\Generated_Source\PSoC5/lcd.c **** 
 386:.\Generated_Source\PSoC5/lcd.c ****         /* Set E high */
 387:.\Generated_Source\PSoC5/lcd.c ****         lcd_PORT_DR_REG |= lcd_E;
 602              		.loc 1 387 0
 603 00c4 45F22013 		movw	r3, #:lower16:1073762592
 604 00c8 C4F20003 		movt	r3, #:upper16:1073762592
 605 00cc 45F22012 		movw	r2, #:lower16:1073762592
 606 00d0 C4F20002 		movt	r2, #:upper16:1073762592
 607 00d4 1278     		ldrb	r2, [r2, #0]
 608 00d6 D2B2     		uxtb	r2, r2
 609 00d8 42F01002 		orr	r2, r2, #16
 610 00dc D2B2     		uxtb	r2, r2
 611 00de 1A70     		strb	r2, [r3, #0]
 388:.\Generated_Source\PSoC5/lcd.c **** 
 389:.\Generated_Source\PSoC5/lcd.c ****         /* 360 ns delay the setup time for data pins */
 390:.\Generated_Source\PSoC5/lcd.c ****         CyDelayUs(1u);
 612              		.loc 1 390 0
 613 00e0 4FF00100 		mov	r0, #1
 614 00e4 FFF7FEFF 		bl	CyDelayUs
 391:.\Generated_Source\PSoC5/lcd.c **** 
 392:.\Generated_Source\PSoC5/lcd.c ****         /* Get port state */
 393:.\Generated_Source\PSoC5/lcd.c ****         value = lcd_PORT_PS_REG;
 615              		.loc 1 393 0
 616 00e8 45F22113 		movw	r3, #:lower16:1073762593
 617 00ec C4F20003 		movt	r3, #:upper16:1073762593
 618 00f0 1B78     		ldrb	r3, [r3, #0]
 619 00f2 FB71     		strb	r3, [r7, #7]
 394:.\Generated_Source\PSoC5/lcd.c **** 
 395:.\Generated_Source\PSoC5/lcd.c ****         /* Set enable low */
 396:.\Generated_Source\PSoC5/lcd.c ****         lcd_PORT_DR_REG &= ~lcd_E;
 620              		.loc 1 396 0
 621 00f4 45F22013 		movw	r3, #:lower16:1073762592
 622 00f8 C4F20003 		movt	r3, #:upper16:1073762592
 623 00fc 45F22012 		movw	r2, #:lower16:1073762592
ARM GAS  C:\Users\arh\AppData\Local\Temp\ccfGlav7.s 			page 19


 624 0100 C4F20002 		movt	r2, #:upper16:1073762592
 625 0104 1278     		ldrb	r2, [r2, #0]
 626 0106 D2B2     		uxtb	r2, r2
 627 0108 02F0EF02 		and	r2, r2, #239
 628 010c 1A70     		strb	r2, [r3, #0]
 397:.\Generated_Source\PSoC5/lcd.c **** 
 398:.\Generated_Source\PSoC5/lcd.c ****         /* Allow time for the enable signal to transition */
 399:.\Generated_Source\PSoC5/lcd.c ****         CyDelayUs(0u);
 629              		.loc 1 399 0
 630 010e 4FF00000 		mov	r0, #0
 631 0112 FFF7FEFF 		bl	CyDelayUs
 400:.\Generated_Source\PSoC5/lcd.c ****         
 401:.\Generated_Source\PSoC5/lcd.c ****         /* Extract ready bit */
 402:.\Generated_Source\PSoC5/lcd.c ****         value &= lcd_READY_BIT;
 632              		.loc 1 402 0
 633 0116 FB79     		ldrb	r3, [r7, #7]
 634 0118 03F00803 		and	r3, r3, #8
 635 011c FB71     		strb	r3, [r7, #7]
 403:.\Generated_Source\PSoC5/lcd.c **** 
 404:.\Generated_Source\PSoC5/lcd.c ****         /* Set E high as we in 4-bit interface we need extra oparation */
 405:.\Generated_Source\PSoC5/lcd.c ****         lcd_PORT_DR_REG |= lcd_E;
 636              		.loc 1 405 0
 637 011e 45F22013 		movw	r3, #:lower16:1073762592
 638 0122 C4F20003 		movt	r3, #:upper16:1073762592
 639 0126 45F22012 		movw	r2, #:lower16:1073762592
 640 012a C4F20002 		movt	r2, #:upper16:1073762592
 641 012e 1278     		ldrb	r2, [r2, #0]
 642 0130 D2B2     		uxtb	r2, r2
 643 0132 42F01002 		orr	r2, r2, #16
 644 0136 D2B2     		uxtb	r2, r2
 645 0138 1A70     		strb	r2, [r3, #0]
 406:.\Generated_Source\PSoC5/lcd.c **** 
 407:.\Generated_Source\PSoC5/lcd.c ****         /* 360 ns delay the setup time for data pins */
 408:.\Generated_Source\PSoC5/lcd.c ****         CyDelayUs(1u);
 646              		.loc 1 408 0
 647 013a 4FF00100 		mov	r0, #1
 648 013e FFF7FEFF 		bl	CyDelayUs
 409:.\Generated_Source\PSoC5/lcd.c **** 
 410:.\Generated_Source\PSoC5/lcd.c ****         /* Set enable low */
 411:.\Generated_Source\PSoC5/lcd.c ****         lcd_PORT_DR_REG &= ~lcd_E;
 649              		.loc 1 411 0
 650 0142 45F22013 		movw	r3, #:lower16:1073762592
 651 0146 C4F20003 		movt	r3, #:upper16:1073762592
 652 014a 45F22012 		movw	r2, #:lower16:1073762592
 653 014e C4F20002 		movt	r2, #:upper16:1073762592
 654 0152 1278     		ldrb	r2, [r2, #0]
 655 0154 D2B2     		uxtb	r2, r2
 656 0156 02F0EF02 		and	r2, r2, #239
 657 015a 1A70     		strb	r2, [r3, #0]
 412:.\Generated_Source\PSoC5/lcd.c **** 
 413:.\Generated_Source\PSoC5/lcd.c ****         /* Repeat until bit 4 is not zero. */
 414:.\Generated_Source\PSoC5/lcd.c **** 
 415:.\Generated_Source\PSoC5/lcd.c ****     } while (value != 0u);
 658              		.loc 1 415 0
 659 015c FB79     		ldrb	r3, [r7, #7]	@ zero_extendqisi2
 660 015e 002B     		cmp	r3, #0
 661 0160 ACD1     		bne	.L29
ARM GAS  C:\Users\arh\AppData\Local\Temp\ccfGlav7.s 			page 20


 416:.\Generated_Source\PSoC5/lcd.c **** 
 417:.\Generated_Source\PSoC5/lcd.c ****     /* Set R/W low to write */
 418:.\Generated_Source\PSoC5/lcd.c ****     lcd_PORT_DR_REG &= ~lcd_RW;
 662              		.loc 1 418 0
 663 0162 45F22013 		movw	r3, #:lower16:1073762592
 664 0166 C4F20003 		movt	r3, #:upper16:1073762592
 665 016a 45F22012 		movw	r2, #:lower16:1073762592
 666 016e C4F20002 		movt	r2, #:upper16:1073762592
 667 0172 1278     		ldrb	r2, [r2, #0]
 668 0174 D2B2     		uxtb	r2, r2
 669 0176 02F0BF02 		and	r2, r2, #191
 670 017a 1A70     		strb	r2, [r3, #0]
 419:.\Generated_Source\PSoC5/lcd.c **** 
 420:.\Generated_Source\PSoC5/lcd.c ****     /* Clear the LCD port*/
 421:.\Generated_Source\PSoC5/lcd.c ****     lcd_PORT_DR_REG &= ~lcd_PORT_MASK ;
 671              		.loc 1 421 0
 672 017c 45F22013 		movw	r3, #:lower16:1073762592
 673 0180 C4F20003 		movt	r3, #:upper16:1073762592
 674 0184 45F22012 		movw	r2, #:lower16:1073762592
 675 0188 C4F20002 		movt	r2, #:upper16:1073762592
 676 018c 1278     		ldrb	r2, [r2, #0]
 677 018e D2B2     		uxtb	r2, r2
 678 0190 02F08002 		and	r2, r2, #128
 679 0194 1A70     		strb	r2, [r3, #0]
 422:.\Generated_Source\PSoC5/lcd.c **** 
 423:.\Generated_Source\PSoC5/lcd.c ****     /* Change Port to Output (Strong) on data pins */
 424:.\Generated_Source\PSoC5/lcd.c **** 
 425:.\Generated_Source\PSoC5/lcd.c ****     /* Mask off data pins to clear high z values out */
 426:.\Generated_Source\PSoC5/lcd.c ****     value = lcd_PORT_DM0_REG & (~lcd_DATA_MASK);
 680              		.loc 1 426 0
 681 0196 45F22213 		movw	r3, #:lower16:1073762594
 682 019a C4F20003 		movt	r3, #:upper16:1073762594
 683 019e 1B78     		ldrb	r3, [r3, #0]
 684 01a0 DBB2     		uxtb	r3, r3
 685 01a2 23F00F03 		bic	r3, r3, #15
 686 01a6 FB71     		strb	r3, [r7, #7]
 427:.\Generated_Source\PSoC5/lcd.c ****     /* Load in high Z values for data pins, others unchanged */
 428:.\Generated_Source\PSoC5/lcd.c ****     lcd_PORT_DM0_REG = value | (lcd_STRONG_DM0 & lcd_DATA_MASK);
 687              		.loc 1 428 0
 688 01a8 45F22213 		movw	r3, #:lower16:1073762594
 689 01ac C4F20003 		movt	r3, #:upper16:1073762594
 690 01b0 FA79     		ldrb	r2, [r7, #7]
 691 01b2 1A70     		strb	r2, [r3, #0]
 429:.\Generated_Source\PSoC5/lcd.c **** 
 430:.\Generated_Source\PSoC5/lcd.c ****     /* Mask off data pins to clear high z values out */
 431:.\Generated_Source\PSoC5/lcd.c ****     value = lcd_PORT_DM1_REG & (~lcd_DATA_MASK);
 692              		.loc 1 431 0
 693 01b4 45F22313 		movw	r3, #:lower16:1073762595
 694 01b8 C4F20003 		movt	r3, #:upper16:1073762595
 695 01bc 1B78     		ldrb	r3, [r3, #0]
 696 01be DBB2     		uxtb	r3, r3
 697 01c0 23F00F03 		bic	r3, r3, #15
 698 01c4 FB71     		strb	r3, [r7, #7]
 432:.\Generated_Source\PSoC5/lcd.c ****     /* Load in high Z values for data pins, others unchanged */
 433:.\Generated_Source\PSoC5/lcd.c ****     lcd_PORT_DM1_REG = value | (lcd_STRONG_DM1 & lcd_DATA_MASK);
 699              		.loc 1 433 0
 700 01c6 45F22313 		movw	r3, #:lower16:1073762595
ARM GAS  C:\Users\arh\AppData\Local\Temp\ccfGlav7.s 			page 21


 701 01ca C4F20003 		movt	r3, #:upper16:1073762595
 702 01ce FA79     		ldrb	r2, [r7, #7]
 703 01d0 42F00F02 		orr	r2, r2, #15
 704 01d4 D2B2     		uxtb	r2, r2
 705 01d6 1A70     		strb	r2, [r3, #0]
 434:.\Generated_Source\PSoC5/lcd.c **** 
 435:.\Generated_Source\PSoC5/lcd.c ****     /* Mask off data pins to clear high z values out */
 436:.\Generated_Source\PSoC5/lcd.c ****     value = lcd_PORT_DM2_REG & (~lcd_DATA_MASK);
 706              		.loc 1 436 0
 707 01d8 45F22413 		movw	r3, #:lower16:1073762596
 708 01dc C4F20003 		movt	r3, #:upper16:1073762596
 709 01e0 1B78     		ldrb	r3, [r3, #0]
 710 01e2 DBB2     		uxtb	r3, r3
 711 01e4 23F00F03 		bic	r3, r3, #15
 712 01e8 FB71     		strb	r3, [r7, #7]
 437:.\Generated_Source\PSoC5/lcd.c ****     /* Load in high Z values for data pins, others unchanged */
 438:.\Generated_Source\PSoC5/lcd.c ****     lcd_PORT_DM2_REG = value | (lcd_STRONG_DM2 & lcd_DATA_MASK);
 713              		.loc 1 438 0
 714 01ea 45F22413 		movw	r3, #:lower16:1073762596
 715 01ee C4F20003 		movt	r3, #:upper16:1073762596
 716 01f2 FA79     		ldrb	r2, [r7, #7]
 717 01f4 42F00F02 		orr	r2, r2, #15
 718 01f8 D2B2     		uxtb	r2, r2
 719 01fa 1A70     		strb	r2, [r3, #0]
 439:.\Generated_Source\PSoC5/lcd.c **** }
 720              		.loc 1 439 0
 721 01fc 07F10807 		add	r7, r7, #8
 722 0200 BD46     		mov	sp, r7
 723 0202 80BD     		pop	{r7, pc}
 724              		.cfi_endproc
 725              	.LFE9:
 726              		.size	lcd_IsReady, .-lcd_IsReady
 727              		.section	.text.lcd_WrDatNib,"ax",%progbits
 728              		.align	2
 729              		.global	lcd_WrDatNib
 730              		.thumb
 731              		.thumb_func
 732              		.type	lcd_WrDatNib, %function
 733              	lcd_WrDatNib:
 734              	.LFB10:
 440:.\Generated_Source\PSoC5/lcd.c **** 
 441:.\Generated_Source\PSoC5/lcd.c **** 
 442:.\Generated_Source\PSoC5/lcd.c **** /*******************************************************************************
 443:.\Generated_Source\PSoC5/lcd.c **** *  Function Name: lcd_WrDatNib
 444:.\Generated_Source\PSoC5/lcd.c **** ********************************************************************************
 445:.\Generated_Source\PSoC5/lcd.c **** *
 446:.\Generated_Source\PSoC5/lcd.c **** * Summary:
 447:.\Generated_Source\PSoC5/lcd.c **** *  Writes a data nibble to the LCD module.
 448:.\Generated_Source\PSoC5/lcd.c **** *
 449:.\Generated_Source\PSoC5/lcd.c **** * Parameters:
 450:.\Generated_Source\PSoC5/lcd.c **** *  nibble:  byte containing nibble in least significant nibble to be written
 451:.\Generated_Source\PSoC5/lcd.c **** *           to LCD module.
 452:.\Generated_Source\PSoC5/lcd.c **** *
 453:.\Generated_Source\PSoC5/lcd.c **** * Return:
 454:.\Generated_Source\PSoC5/lcd.c **** *  None.
 455:.\Generated_Source\PSoC5/lcd.c **** *
 456:.\Generated_Source\PSoC5/lcd.c **** *******************************************************************************/
ARM GAS  C:\Users\arh\AppData\Local\Temp\ccfGlav7.s 			page 22


 457:.\Generated_Source\PSoC5/lcd.c **** void lcd_WrDatNib(uint8 nibble) 
 458:.\Generated_Source\PSoC5/lcd.c **** {
 735              		.loc 1 458 0
 736              		.cfi_startproc
 737              		@ args = 0, pretend = 0, frame = 8
 738              		@ frame_needed = 1, uses_anonymous_args = 0
 739 0000 80B5     		push	{r7, lr}
 740              	.LCFI26:
 741              		.cfi_def_cfa_offset 8
 742 0002 82B0     		sub	sp, sp, #8
 743              	.LCFI27:
 744              		.cfi_def_cfa_offset 16
 745 0004 00AF     		add	r7, sp, #0
 746              		.cfi_offset 14, -4
 747              		.cfi_offset 7, -8
 748              	.LCFI28:
 749              		.cfi_def_cfa_register 7
 750 0006 0346     		mov	r3, r0
 751 0008 FB71     		strb	r3, [r7, #7]
 459:.\Generated_Source\PSoC5/lcd.c ****     lcd_IsReady();
 752              		.loc 1 459 0
 753 000a FFF7FEFF 		bl	lcd_IsReady
 460:.\Generated_Source\PSoC5/lcd.c **** 
 461:.\Generated_Source\PSoC5/lcd.c ****     /* RS shoul be low to select data register */
 462:.\Generated_Source\PSoC5/lcd.c ****     lcd_PORT_DR_REG |= lcd_RS;
 754              		.loc 1 462 0
 755 000e 45F22013 		movw	r3, #:lower16:1073762592
 756 0012 C4F20003 		movt	r3, #:upper16:1073762592
 757 0016 45F22012 		movw	r2, #:lower16:1073762592
 758 001a C4F20002 		movt	r2, #:upper16:1073762592
 759 001e 1278     		ldrb	r2, [r2, #0]
 760 0020 D2B2     		uxtb	r2, r2
 761 0022 42F02002 		orr	r2, r2, #32
 762 0026 D2B2     		uxtb	r2, r2
 763 0028 1A70     		strb	r2, [r3, #0]
 463:.\Generated_Source\PSoC5/lcd.c ****     /* Reset RW for write operation */
 464:.\Generated_Source\PSoC5/lcd.c ****     lcd_PORT_DR_REG &= ~lcd_RW;
 764              		.loc 1 464 0
 765 002a 45F22013 		movw	r3, #:lower16:1073762592
 766 002e C4F20003 		movt	r3, #:upper16:1073762592
 767 0032 45F22012 		movw	r2, #:lower16:1073762592
 768 0036 C4F20002 		movt	r2, #:upper16:1073762592
 769 003a 1278     		ldrb	r2, [r2, #0]
 770 003c D2B2     		uxtb	r2, r2
 771 003e 02F0BF02 		and	r2, r2, #191
 772 0042 1A70     		strb	r2, [r3, #0]
 465:.\Generated_Source\PSoC5/lcd.c **** 
 466:.\Generated_Source\PSoC5/lcd.c ****     /* Two following lines of code will provide us with 40ns delay */
 467:.\Generated_Source\PSoC5/lcd.c ****     /* Clear data pins */
 468:.\Generated_Source\PSoC5/lcd.c ****     lcd_PORT_DR_REG &= ~lcd_DATA_MASK;
 773              		.loc 1 468 0
 774 0044 45F22013 		movw	r3, #:lower16:1073762592
 775 0048 C4F20003 		movt	r3, #:upper16:1073762592
 776 004c 45F22012 		movw	r2, #:lower16:1073762592
 777 0050 C4F20002 		movt	r2, #:upper16:1073762592
 778 0054 1278     		ldrb	r2, [r2, #0]
 779 0056 D2B2     		uxtb	r2, r2
ARM GAS  C:\Users\arh\AppData\Local\Temp\ccfGlav7.s 			page 23


 780 0058 02F0F002 		and	r2, r2, #240
 781 005c 1A70     		strb	r2, [r3, #0]
 469:.\Generated_Source\PSoC5/lcd.c **** 
 470:.\Generated_Source\PSoC5/lcd.c ****     /* Write in data, bring E high*/
 471:.\Generated_Source\PSoC5/lcd.c ****     lcd_PORT_DR_REG |= (lcd_E | (nibble << lcd_PORT_SHIFT));
 782              		.loc 1 471 0
 783 005e 45F22013 		movw	r3, #:lower16:1073762592
 784 0062 C4F20003 		movt	r3, #:upper16:1073762592
 785 0066 45F22012 		movw	r2, #:lower16:1073762592
 786 006a C4F20002 		movt	r2, #:upper16:1073762592
 787 006e 1278     		ldrb	r2, [r2, #0]
 788 0070 D1B2     		uxtb	r1, r2
 789 0072 FA79     		ldrb	r2, [r7, #7]
 790 0074 41EA0202 		orr	r2, r1, r2
 791 0078 D2B2     		uxtb	r2, r2
 792 007a 42F01002 		orr	r2, r2, #16
 793 007e D2B2     		uxtb	r2, r2
 794 0080 1A70     		strb	r2, [r3, #0]
 472:.\Generated_Source\PSoC5/lcd.c **** 
 473:.\Generated_Source\PSoC5/lcd.c ****     /* Minimum of 230 ns delay */
 474:.\Generated_Source\PSoC5/lcd.c ****     CyDelayUs(1u);
 795              		.loc 1 474 0
 796 0082 4FF00100 		mov	r0, #1
 797 0086 FFF7FEFF 		bl	CyDelayUs
 475:.\Generated_Source\PSoC5/lcd.c **** 
 476:.\Generated_Source\PSoC5/lcd.c ****     lcd_PORT_DR_REG &= ~lcd_E;
 798              		.loc 1 476 0
 799 008a 45F22013 		movw	r3, #:lower16:1073762592
 800 008e C4F20003 		movt	r3, #:upper16:1073762592
 801 0092 45F22012 		movw	r2, #:lower16:1073762592
 802 0096 C4F20002 		movt	r2, #:upper16:1073762592
 803 009a 1278     		ldrb	r2, [r2, #0]
 804 009c D2B2     		uxtb	r2, r2
 805 009e 02F0EF02 		and	r2, r2, #239
 806 00a2 1A70     		strb	r2, [r3, #0]
 477:.\Generated_Source\PSoC5/lcd.c **** }
 807              		.loc 1 477 0
 808 00a4 07F10807 		add	r7, r7, #8
 809 00a8 BD46     		mov	sp, r7
 810 00aa 80BD     		pop	{r7, pc}
 811              		.cfi_endproc
 812              	.LFE10:
 813              		.size	lcd_WrDatNib, .-lcd_WrDatNib
 814              		.section	.text.lcd_WrCntrlNib,"ax",%progbits
 815              		.align	2
 816              		.global	lcd_WrCntrlNib
 817              		.thumb
 818              		.thumb_func
 819              		.type	lcd_WrCntrlNib, %function
 820              	lcd_WrCntrlNib:
 821              	.LFB11:
 478:.\Generated_Source\PSoC5/lcd.c **** 
 479:.\Generated_Source\PSoC5/lcd.c **** 
 480:.\Generated_Source\PSoC5/lcd.c **** /*******************************************************************************
 481:.\Generated_Source\PSoC5/lcd.c **** *  Function Name: lcd_WrCntrlNib
 482:.\Generated_Source\PSoC5/lcd.c **** ********************************************************************************
 483:.\Generated_Source\PSoC5/lcd.c **** *
ARM GAS  C:\Users\arh\AppData\Local\Temp\ccfGlav7.s 			page 24


 484:.\Generated_Source\PSoC5/lcd.c **** * Summary:
 485:.\Generated_Source\PSoC5/lcd.c **** *  Writes a control nibble to the LCD module.
 486:.\Generated_Source\PSoC5/lcd.c **** *
 487:.\Generated_Source\PSoC5/lcd.c **** * Parameters:
 488:.\Generated_Source\PSoC5/lcd.c **** *  nibble:  byte containing nibble in least significant nibble to be written
 489:.\Generated_Source\PSoC5/lcd.c **** *           to LCD module.
 490:.\Generated_Source\PSoC5/lcd.c **** *
 491:.\Generated_Source\PSoC5/lcd.c **** * Return:
 492:.\Generated_Source\PSoC5/lcd.c **** *  None.
 493:.\Generated_Source\PSoC5/lcd.c **** *
 494:.\Generated_Source\PSoC5/lcd.c **** *******************************************************************************/
 495:.\Generated_Source\PSoC5/lcd.c **** void lcd_WrCntrlNib(uint8 nibble) 
 496:.\Generated_Source\PSoC5/lcd.c **** {
 822              		.loc 1 496 0
 823              		.cfi_startproc
 824              		@ args = 0, pretend = 0, frame = 8
 825              		@ frame_needed = 1, uses_anonymous_args = 0
 826 0000 80B5     		push	{r7, lr}
 827              	.LCFI29:
 828              		.cfi_def_cfa_offset 8
 829 0002 82B0     		sub	sp, sp, #8
 830              	.LCFI30:
 831              		.cfi_def_cfa_offset 16
 832 0004 00AF     		add	r7, sp, #0
 833              		.cfi_offset 14, -4
 834              		.cfi_offset 7, -8
 835              	.LCFI31:
 836              		.cfi_def_cfa_register 7
 837 0006 0346     		mov	r3, r0
 838 0008 FB71     		strb	r3, [r7, #7]
 497:.\Generated_Source\PSoC5/lcd.c ****     /* RS and RW shoul be low to select instruction register and  write operation respectively */
 498:.\Generated_Source\PSoC5/lcd.c ****     lcd_PORT_DR_REG &= ~(lcd_RS | lcd_RW);
 839              		.loc 1 498 0
 840 000a 45F22013 		movw	r3, #:lower16:1073762592
 841 000e C4F20003 		movt	r3, #:upper16:1073762592
 842 0012 45F22012 		movw	r2, #:lower16:1073762592
 843 0016 C4F20002 		movt	r2, #:upper16:1073762592
 844 001a 1278     		ldrb	r2, [r2, #0]
 845 001c D2B2     		uxtb	r2, r2
 846 001e 02F09F02 		and	r2, r2, #159
 847 0022 1A70     		strb	r2, [r3, #0]
 499:.\Generated_Source\PSoC5/lcd.c **** 
 500:.\Generated_Source\PSoC5/lcd.c ****     /* Two following lines of code will give provide ua with 40ns delay */
 501:.\Generated_Source\PSoC5/lcd.c ****     /* Clear data pins */
 502:.\Generated_Source\PSoC5/lcd.c ****     lcd_PORT_DR_REG &= ~lcd_DATA_MASK;
 848              		.loc 1 502 0
 849 0024 45F22013 		movw	r3, #:lower16:1073762592
 850 0028 C4F20003 		movt	r3, #:upper16:1073762592
 851 002c 45F22012 		movw	r2, #:lower16:1073762592
 852 0030 C4F20002 		movt	r2, #:upper16:1073762592
 853 0034 1278     		ldrb	r2, [r2, #0]
 854 0036 D2B2     		uxtb	r2, r2
 855 0038 02F0F002 		and	r2, r2, #240
 856 003c 1A70     		strb	r2, [r3, #0]
 503:.\Generated_Source\PSoC5/lcd.c **** 
 504:.\Generated_Source\PSoC5/lcd.c ****     /* Write control data and set enable signal */
 505:.\Generated_Source\PSoC5/lcd.c ****     lcd_PORT_DR_REG |= (lcd_E | (nibble << lcd_PORT_SHIFT));
ARM GAS  C:\Users\arh\AppData\Local\Temp\ccfGlav7.s 			page 25


 857              		.loc 1 505 0
 858 003e 45F22013 		movw	r3, #:lower16:1073762592
 859 0042 C4F20003 		movt	r3, #:upper16:1073762592
 860 0046 45F22012 		movw	r2, #:lower16:1073762592
 861 004a C4F20002 		movt	r2, #:upper16:1073762592
 862 004e 1278     		ldrb	r2, [r2, #0]
 863 0050 D1B2     		uxtb	r1, r2
 864 0052 FA79     		ldrb	r2, [r7, #7]
 865 0054 41EA0202 		orr	r2, r1, r2
 866 0058 D2B2     		uxtb	r2, r2
 867 005a 42F01002 		orr	r2, r2, #16
 868 005e D2B2     		uxtb	r2, r2
 869 0060 1A70     		strb	r2, [r3, #0]
 506:.\Generated_Source\PSoC5/lcd.c **** 
 507:.\Generated_Source\PSoC5/lcd.c ****     /* Minimum of 230 ns delay */
 508:.\Generated_Source\PSoC5/lcd.c ****     CyDelayUs(1u);
 870              		.loc 1 508 0
 871 0062 4FF00100 		mov	r0, #1
 872 0066 FFF7FEFF 		bl	CyDelayUs
 509:.\Generated_Source\PSoC5/lcd.c **** 
 510:.\Generated_Source\PSoC5/lcd.c ****     lcd_PORT_DR_REG &= ~lcd_E;
 873              		.loc 1 510 0
 874 006a 45F22013 		movw	r3, #:lower16:1073762592
 875 006e C4F20003 		movt	r3, #:upper16:1073762592
 876 0072 45F22012 		movw	r2, #:lower16:1073762592
 877 0076 C4F20002 		movt	r2, #:upper16:1073762592
 878 007a 1278     		ldrb	r2, [r2, #0]
 879 007c D2B2     		uxtb	r2, r2
 880 007e 02F0EF02 		and	r2, r2, #239
 881 0082 1A70     		strb	r2, [r3, #0]
 511:.\Generated_Source\PSoC5/lcd.c **** }
 882              		.loc 1 511 0
 883 0084 07F10807 		add	r7, r7, #8
 884 0088 BD46     		mov	sp, r7
 885 008a 80BD     		pop	{r7, pc}
 886              		.cfi_endproc
 887              	.LFE11:
 888              		.size	lcd_WrCntrlNib, .-lcd_WrCntrlNib
 889              		.section	.text.lcd_PrintHexUint8,"ax",%progbits
 890              		.align	2
 891              		.global	lcd_PrintHexUint8
 892              		.thumb
 893              		.thumb_func
 894              		.type	lcd_PrintHexUint8, %function
 895              	lcd_PrintHexUint8:
 896              	.LFB12:
 512:.\Generated_Source\PSoC5/lcd.c **** 
 513:.\Generated_Source\PSoC5/lcd.c **** 
 514:.\Generated_Source\PSoC5/lcd.c **** #if(lcd_CONVERSION_ROUTINES == 1u)
 515:.\Generated_Source\PSoC5/lcd.c **** 
 516:.\Generated_Source\PSoC5/lcd.c ****     /*******************************************************************************
 517:.\Generated_Source\PSoC5/lcd.c ****     *  Function Name: lcd_PrintHexUint8
 518:.\Generated_Source\PSoC5/lcd.c ****     ********************************************************************************
 519:.\Generated_Source\PSoC5/lcd.c ****     *
 520:.\Generated_Source\PSoC5/lcd.c ****     * Summary:
 521:.\Generated_Source\PSoC5/lcd.c ****     *  Print a byte as two ASCII characters.
 522:.\Generated_Source\PSoC5/lcd.c ****     *
ARM GAS  C:\Users\arh\AppData\Local\Temp\ccfGlav7.s 			page 26


 523:.\Generated_Source\PSoC5/lcd.c ****     * Parameters:
 524:.\Generated_Source\PSoC5/lcd.c ****     *  value:  The byte to be printed out as ASCII characters.
 525:.\Generated_Source\PSoC5/lcd.c ****     *
 526:.\Generated_Source\PSoC5/lcd.c ****     * Return:
 527:.\Generated_Source\PSoC5/lcd.c ****     *  None.
 528:.\Generated_Source\PSoC5/lcd.c ****     *
 529:.\Generated_Source\PSoC5/lcd.c ****     *******************************************************************************/
 530:.\Generated_Source\PSoC5/lcd.c ****     void lcd_PrintHexUint8(uint8 value) 
 531:.\Generated_Source\PSoC5/lcd.c ****     {
 897              		.loc 1 531 0
 898              		.cfi_startproc
 899              		@ args = 0, pretend = 0, frame = 8
 900              		@ frame_needed = 1, uses_anonymous_args = 0
 901 0000 80B5     		push	{r7, lr}
 902              	.LCFI32:
 903              		.cfi_def_cfa_offset 8
 904 0002 82B0     		sub	sp, sp, #8
 905              	.LCFI33:
 906              		.cfi_def_cfa_offset 16
 907 0004 00AF     		add	r7, sp, #0
 908              		.cfi_offset 14, -4
 909              		.cfi_offset 7, -8
 910              	.LCFI34:
 911              		.cfi_def_cfa_register 7
 912 0006 0346     		mov	r3, r0
 913 0008 FB71     		strb	r3, [r7, #7]
 532:.\Generated_Source\PSoC5/lcd.c ****         lcd_PutChar((char8) lcd_hex[value >> lcd_BYTE_UPPER_NIBBLE_SHIFT]);
 914              		.loc 1 532 0
 915 000a FB79     		ldrb	r3, [r7, #7]	@ zero_extendqisi2
 916 000c 4FEA1313 		lsr	r3, r3, #4
 917 0010 DBB2     		uxtb	r3, r3
 918 0012 1A46     		mov	r2, r3
 919 0014 40F20003 		movw	r3, #:lower16:lcd_hex
 920 0018 C0F20003 		movt	r3, #:upper16:lcd_hex
 921 001c 9B5C     		ldrb	r3, [r3, r2]	@ zero_extendqisi2
 922 001e 1846     		mov	r0, r3
 923 0020 FFF7FEFF 		bl	lcd_PutChar
 533:.\Generated_Source\PSoC5/lcd.c ****         lcd_PutChar((char8) lcd_hex[value & lcd_BYTE_LOWER_NIBBLE_MASK]);
 924              		.loc 1 533 0
 925 0024 FB79     		ldrb	r3, [r7, #7]	@ zero_extendqisi2
 926 0026 03F00F02 		and	r2, r3, #15
 927 002a 40F20003 		movw	r3, #:lower16:lcd_hex
 928 002e C0F20003 		movt	r3, #:upper16:lcd_hex
 929 0032 9B5C     		ldrb	r3, [r3, r2]	@ zero_extendqisi2
 930 0034 1846     		mov	r0, r3
 931 0036 FFF7FEFF 		bl	lcd_PutChar
 534:.\Generated_Source\PSoC5/lcd.c ****     }
 932              		.loc 1 534 0
 933 003a 07F10807 		add	r7, r7, #8
 934 003e BD46     		mov	sp, r7
 935 0040 80BD     		pop	{r7, pc}
 936              		.cfi_endproc
 937              	.LFE12:
 938              		.size	lcd_PrintHexUint8, .-lcd_PrintHexUint8
 939 0042 00BF     		.section	.text.lcd_PrintHexUint16,"ax",%progbits
 940              		.align	2
 941              		.global	lcd_PrintHexUint16
ARM GAS  C:\Users\arh\AppData\Local\Temp\ccfGlav7.s 			page 27


 942              		.thumb
 943              		.thumb_func
 944              		.type	lcd_PrintHexUint16, %function
 945              	lcd_PrintHexUint16:
 946              	.LFB13:
 535:.\Generated_Source\PSoC5/lcd.c **** 
 536:.\Generated_Source\PSoC5/lcd.c **** 
 537:.\Generated_Source\PSoC5/lcd.c ****     /*******************************************************************************
 538:.\Generated_Source\PSoC5/lcd.c ****     *  Function Name: lcd_PrintHexUint16
 539:.\Generated_Source\PSoC5/lcd.c ****     ********************************************************************************
 540:.\Generated_Source\PSoC5/lcd.c ****     *
 541:.\Generated_Source\PSoC5/lcd.c ****     * Summary:
 542:.\Generated_Source\PSoC5/lcd.c ****     *  Print a uint16 as four ASCII characters.
 543:.\Generated_Source\PSoC5/lcd.c ****     *
 544:.\Generated_Source\PSoC5/lcd.c ****     * Parameters:
 545:.\Generated_Source\PSoC5/lcd.c ****     *  value:   The uint16 to be printed out as ASCII characters.
 546:.\Generated_Source\PSoC5/lcd.c ****     *
 547:.\Generated_Source\PSoC5/lcd.c ****     * Return:
 548:.\Generated_Source\PSoC5/lcd.c ****     *  None.
 549:.\Generated_Source\PSoC5/lcd.c ****     *
 550:.\Generated_Source\PSoC5/lcd.c ****     *******************************************************************************/
 551:.\Generated_Source\PSoC5/lcd.c ****     void lcd_PrintHexUint16(uint16 value) 
 552:.\Generated_Source\PSoC5/lcd.c ****     {
 947              		.loc 1 552 0
 948              		.cfi_startproc
 949              		@ args = 0, pretend = 0, frame = 8
 950              		@ frame_needed = 1, uses_anonymous_args = 0
 951 0000 80B5     		push	{r7, lr}
 952              	.LCFI35:
 953              		.cfi_def_cfa_offset 8
 954 0002 82B0     		sub	sp, sp, #8
 955              	.LCFI36:
 956              		.cfi_def_cfa_offset 16
 957 0004 00AF     		add	r7, sp, #0
 958              		.cfi_offset 14, -4
 959              		.cfi_offset 7, -8
 960              	.LCFI37:
 961              		.cfi_def_cfa_register 7
 962 0006 0346     		mov	r3, r0
 963 0008 FB80     		strh	r3, [r7, #6]	@ movhi
 553:.\Generated_Source\PSoC5/lcd.c ****         lcd_PrintHexUint8(value >> lcd_U16_UPPER_BYTE_SHIFT);
 964              		.loc 1 553 0
 965 000a FB88     		ldrh	r3, [r7, #6]
 966 000c 4FEA1323 		lsr	r3, r3, #8
 967 0010 9BB2     		uxth	r3, r3
 968 0012 DBB2     		uxtb	r3, r3
 969 0014 1846     		mov	r0, r3
 970 0016 FFF7FEFF 		bl	lcd_PrintHexUint8
 554:.\Generated_Source\PSoC5/lcd.c ****         lcd_PrintHexUint8(value & lcd_U16_LOWER_BYTE_MASK);
 971              		.loc 1 554 0
 972 001a FB88     		ldrh	r3, [r7, #6]	@ movhi
 973 001c DBB2     		uxtb	r3, r3
 974 001e 1846     		mov	r0, r3
 975 0020 FFF7FEFF 		bl	lcd_PrintHexUint8
 555:.\Generated_Source\PSoC5/lcd.c ****     }
 976              		.loc 1 555 0
 977 0024 07F10807 		add	r7, r7, #8
ARM GAS  C:\Users\arh\AppData\Local\Temp\ccfGlav7.s 			page 28


 978 0028 BD46     		mov	sp, r7
 979 002a 80BD     		pop	{r7, pc}
 980              		.cfi_endproc
 981              	.LFE13:
 982              		.size	lcd_PrintHexUint16, .-lcd_PrintHexUint16
 983              		.section	.text.lcd_PrintDecUint16,"ax",%progbits
 984              		.align	2
 985              		.global	lcd_PrintDecUint16
 986              		.thumb
 987              		.thumb_func
 988              		.type	lcd_PrintDecUint16, %function
 989              	lcd_PrintDecUint16:
 990              	.LFB14:
 556:.\Generated_Source\PSoC5/lcd.c **** 
 557:.\Generated_Source\PSoC5/lcd.c **** 
 558:.\Generated_Source\PSoC5/lcd.c ****     /*******************************************************************************
 559:.\Generated_Source\PSoC5/lcd.c ****     *  Function Name: lcd_PrintDecUint16
 560:.\Generated_Source\PSoC5/lcd.c ****     ********************************************************************************
 561:.\Generated_Source\PSoC5/lcd.c ****     *
 562:.\Generated_Source\PSoC5/lcd.c ****     * Summary:
 563:.\Generated_Source\PSoC5/lcd.c ****     *  Print an uint32 value as a left-justified decimal value.
 564:.\Generated_Source\PSoC5/lcd.c ****     *
 565:.\Generated_Source\PSoC5/lcd.c ****     * Parameters:
 566:.\Generated_Source\PSoC5/lcd.c ****     *  value:  The byte to be printed out as ASCII characters.
 567:.\Generated_Source\PSoC5/lcd.c ****     *
 568:.\Generated_Source\PSoC5/lcd.c ****     * Return:
 569:.\Generated_Source\PSoC5/lcd.c ****     *  None.
 570:.\Generated_Source\PSoC5/lcd.c ****     *
 571:.\Generated_Source\PSoC5/lcd.c ****     *******************************************************************************/
 572:.\Generated_Source\PSoC5/lcd.c ****     void lcd_PrintDecUint16(uint16 value) 
 573:.\Generated_Source\PSoC5/lcd.c ****     {
 991              		.loc 1 573 0
 992              		.cfi_startproc
 993              		@ args = 0, pretend = 0, frame = 24
 994              		@ frame_needed = 1, uses_anonymous_args = 0
 995 0000 80B5     		push	{r7, lr}
 996              	.LCFI38:
 997              		.cfi_def_cfa_offset 8
 998 0002 86B0     		sub	sp, sp, #24
 999              	.LCFI39:
 1000              		.cfi_def_cfa_offset 32
 1001 0004 00AF     		add	r7, sp, #0
 1002              		.cfi_offset 14, -4
 1003              		.cfi_offset 7, -8
 1004              	.LCFI40:
 1005              		.cfi_def_cfa_register 7
 1006 0006 0346     		mov	r3, r0
 1007 0008 FB80     		strh	r3, [r7, #6]	@ movhi
 574:.\Generated_Source\PSoC5/lcd.c **** 
 575:.\Generated_Source\PSoC5/lcd.c ****         char8 number[lcd_NUMBER_OF_REMAINDERS];
 576:.\Generated_Source\PSoC5/lcd.c ****         char8 temp[lcd_NUMBER_OF_REMAINDERS];
 577:.\Generated_Source\PSoC5/lcd.c **** 
 578:.\Generated_Source\PSoC5/lcd.c ****         uint8 index = 0u;
 1008              		.loc 1 578 0
 1009 000a 4FF00003 		mov	r3, #0
 1010 000e BB75     		strb	r3, [r7, #22]
 579:.\Generated_Source\PSoC5/lcd.c ****         uint8 numDigits = 0u;
ARM GAS  C:\Users\arh\AppData\Local\Temp\ccfGlav7.s 			page 29


 1011              		.loc 1 579 0
 1012 0010 4FF00003 		mov	r3, #0
 1013 0014 FB75     		strb	r3, [r7, #23]
 580:.\Generated_Source\PSoC5/lcd.c **** 
 581:.\Generated_Source\PSoC5/lcd.c **** 
 582:.\Generated_Source\PSoC5/lcd.c ****         /* Load these in reverse order */
 583:.\Generated_Source\PSoC5/lcd.c ****         while(value >= lcd_TEN)
 1014              		.loc 1 583 0
 1015 0016 2AE0     		b	.L40
 1016              	.L41:
 584:.\Generated_Source\PSoC5/lcd.c ****         {
 585:.\Generated_Source\PSoC5/lcd.c ****             temp[index] = (value % lcd_TEN) + '0';
 1017              		.loc 1 585 0
 1018 0018 B87D     		ldrb	r0, [r7, #22]	@ zero_extendqisi2
 1019 001a FA88     		ldrh	r2, [r7, #6]
 1020 001c 4CF6CD43 		movw	r3, #:lower16:-858993459
 1021 0020 CCF6CC43 		movt	r3, #:upper16:-858993459
 1022 0024 A3FB0213 		umull	r1, r3, r3, r2
 1023 0028 4FEAD301 		lsr	r1, r3, #3
 1024 002c 0B46     		mov	r3, r1
 1025 002e 4FEA8303 		lsl	r3, r3, #2
 1026 0032 0B44     		add	r3, r3, r1
 1027 0034 4FEA4303 		lsl	r3, r3, #1
 1028 0038 C3EB0203 		rsb	r3, r3, r2
 1029 003c 9BB2     		uxth	r3, r3
 1030 003e DBB2     		uxtb	r3, r3
 1031 0040 03F13003 		add	r3, r3, #48
 1032 0044 DAB2     		uxtb	r2, r3
 1033 0046 07F11801 		add	r1, r7, #24
 1034 004a 01EB0003 		add	r3, r1, r0
 1035 004e 03F8102C 		strb	r2, [r3, #-16]
 586:.\Generated_Source\PSoC5/lcd.c ****             value /= lcd_TEN;
 1036              		.loc 1 586 0
 1037 0052 FA88     		ldrh	r2, [r7, #6]
 1038 0054 4CF6CD43 		movw	r3, #:lower16:-858993459
 1039 0058 CCF6CC43 		movt	r3, #:upper16:-858993459
 1040 005c A3FB0213 		umull	r1, r3, r3, r2
 1041 0060 4FEAD303 		lsr	r3, r3, #3
 1042 0064 FB80     		strh	r3, [r7, #6]	@ movhi
 587:.\Generated_Source\PSoC5/lcd.c ****             index++;
 1043              		.loc 1 587 0
 1044 0066 BB7D     		ldrb	r3, [r7, #22]
 1045 0068 03F10103 		add	r3, r3, #1
 1046 006c BB75     		strb	r3, [r7, #22]
 1047              	.L40:
 1048              		.loc 1 583 0
 1049 006e FB88     		ldrh	r3, [r7, #6]
 1050 0070 092B     		cmp	r3, #9
 1051 0072 D1D8     		bhi	.L41
 588:.\Generated_Source\PSoC5/lcd.c ****         }
 589:.\Generated_Source\PSoC5/lcd.c **** 
 590:.\Generated_Source\PSoC5/lcd.c ****         temp[index] = (value % lcd_TEN) + '0';
 1052              		.loc 1 590 0
 1053 0074 B87D     		ldrb	r0, [r7, #22]	@ zero_extendqisi2
 1054 0076 FA88     		ldrh	r2, [r7, #6]
 1055 0078 4CF6CD43 		movw	r3, #:lower16:-858993459
 1056 007c CCF6CC43 		movt	r3, #:upper16:-858993459
ARM GAS  C:\Users\arh\AppData\Local\Temp\ccfGlav7.s 			page 30


 1057 0080 A3FB0213 		umull	r1, r3, r3, r2
 1058 0084 4FEAD301 		lsr	r1, r3, #3
 1059 0088 0B46     		mov	r3, r1
 1060 008a 4FEA8303 		lsl	r3, r3, #2
 1061 008e 0B44     		add	r3, r3, r1
 1062 0090 4FEA4303 		lsl	r3, r3, #1
 1063 0094 C3EB0203 		rsb	r3, r3, r2
 1064 0098 9BB2     		uxth	r3, r3
 1065 009a DBB2     		uxtb	r3, r3
 1066 009c 03F13003 		add	r3, r3, #48
 1067 00a0 DAB2     		uxtb	r2, r3
 1068 00a2 07F11801 		add	r1, r7, #24
 1069 00a6 01EB0003 		add	r3, r1, r0
 1070 00aa 03F8102C 		strb	r2, [r3, #-16]
 591:.\Generated_Source\PSoC5/lcd.c ****         numDigits = index;
 1071              		.loc 1 591 0
 1072 00ae BB7D     		ldrb	r3, [r7, #22]
 1073 00b0 FB75     		strb	r3, [r7, #23]
 592:.\Generated_Source\PSoC5/lcd.c **** 
 593:.\Generated_Source\PSoC5/lcd.c ****         /* While index is greater than or equal to zero */
 594:.\Generated_Source\PSoC5/lcd.c ****         while (index != 0xFFu)
 1074              		.loc 1 594 0
 1075 00b2 12E0     		b	.L42
 1076              	.L43:
 595:.\Generated_Source\PSoC5/lcd.c ****         {
 596:.\Generated_Source\PSoC5/lcd.c ****             number[numDigits - index] = temp[index];
 1077              		.loc 1 596 0
 1078 00b4 FA7D     		ldrb	r2, [r7, #23]	@ zero_extendqisi2
 1079 00b6 BB7D     		ldrb	r3, [r7, #22]	@ zero_extendqisi2
 1080 00b8 C3EB0203 		rsb	r3, r3, r2
 1081 00bc BA7D     		ldrb	r2, [r7, #22]	@ zero_extendqisi2
 1082 00be 07F11801 		add	r1, r7, #24
 1083 00c2 0A44     		add	r2, r1, r2
 1084 00c4 12F8102C 		ldrb	r2, [r2, #-16]	@ zero_extendqisi2
 1085 00c8 07F11801 		add	r1, r7, #24
 1086 00cc 0B44     		add	r3, r1, r3
 1087 00ce 03F8082C 		strb	r2, [r3, #-8]
 597:.\Generated_Source\PSoC5/lcd.c ****             index--;
 1088              		.loc 1 597 0
 1089 00d2 BB7D     		ldrb	r3, [r7, #22]
 1090 00d4 03F1FF33 		add	r3, r3, #-1
 1091 00d8 BB75     		strb	r3, [r7, #22]
 1092              	.L42:
 1093              		.loc 1 594 0
 1094 00da BB7D     		ldrb	r3, [r7, #22]	@ zero_extendqisi2
 1095 00dc FF2B     		cmp	r3, #255
 1096 00de E9D1     		bne	.L43
 598:.\Generated_Source\PSoC5/lcd.c ****         }
 599:.\Generated_Source\PSoC5/lcd.c **** 
 600:.\Generated_Source\PSoC5/lcd.c ****         /* Null Termination */
 601:.\Generated_Source\PSoC5/lcd.c ****         number[numDigits + 1u] = (char8) 0;
 1097              		.loc 1 601 0
 1098 00e0 FB7D     		ldrb	r3, [r7, #23]	@ zero_extendqisi2
 1099 00e2 03F10103 		add	r3, r3, #1
 1100 00e6 07F11802 		add	r2, r7, #24
 1101 00ea 1344     		add	r3, r2, r3
 1102 00ec 4FF00002 		mov	r2, #0
ARM GAS  C:\Users\arh\AppData\Local\Temp\ccfGlav7.s 			page 31


 1103 00f0 03F8082C 		strb	r2, [r3, #-8]
 602:.\Generated_Source\PSoC5/lcd.c **** 
 603:.\Generated_Source\PSoC5/lcd.c ****         /* Print out number */
 604:.\Generated_Source\PSoC5/lcd.c ****         lcd_PrintString(number);
 1104              		.loc 1 604 0
 1105 00f4 07F11003 		add	r3, r7, #16
 1106 00f8 1846     		mov	r0, r3
 1107 00fa FFF7FEFF 		bl	lcd_PrintString
 605:.\Generated_Source\PSoC5/lcd.c ****     }
 1108              		.loc 1 605 0
 1109 00fe 07F11807 		add	r7, r7, #24
 1110 0102 BD46     		mov	sp, r7
 1111 0104 80BD     		pop	{r7, pc}
 1112              		.cfi_endproc
 1113              	.LFE14:
 1114              		.size	lcd_PrintDecUint16, .-lcd_PrintDecUint16
 1115 0106 00BF     		.text
 1116              	.Letext0: