ARM GAS  C:\Users\arh\AppData\Local\Temp\ccfGlav7.s 			page 1


   1              		.syntax unified
   2              		.cpu cortex-m3
   3              		.fpu softvfp
   4              		.eabi_attribute 20, 1
   5              		.eabi_attribute 21, 1
   6              		.eabi_attribute 23, 3
   7              		.eabi_attribute 24, 1
   8              		.eabi_attribute 25, 1
   9              		.eabi_attribute 26, 1
  10              		.eabi_attribute 30, 6
  11              		.eabi_attribute 18, 4
  12              		.thumb
  13              		.file	"lcd.c"
  14              		.section	.debug_abbrev,"",%progbits
  15              	.Ldebug_abbrev0:
  16              		.section	.debug_info,"",%progbits
  17              	.Ldebug_info0:
  18              		.section	.debug_line,"",%progbits
  19              	.Ldebug_line0:
  20 0000 D4010000 		.text
  20      02005C00 
  20      00000201 
  20      FB0E0D00 
  20      01010101 
  21              	.Ltext0:
  22              		.cfi_sections	.debug_frame
  23              		.global	lcd_enableState
  24              		.bss
  25              		.type	lcd_enableState, %object
  26              		.size	lcd_enableState, 1
  27              	lcd_enableState:
  28 0000 00       		.space	1
  29              		.global	lcd_initVar
  30              		.type	lcd_initVar, %object
  31              		.size	lcd_initVar, 1
  32              	lcd_initVar:
  33 0001 00       		.space	1
  34              		.global	lcd_hex
  35              		.section	.rodata
  36              		.align	2
  37              		.type	lcd_hex, %object
  38              		.size	lcd_hex, 16
  39              	lcd_hex:
  40 0000 30313233 		.ascii	"0123456789ABCDEF"
  40      34353637 
  40      38394142 
  40      43444546 
  41              		.section	.text.lcd_Init,"ax",%progbits
  42              		.align	2
  43              		.global	lcd_Init
  44              		.thumb
  45              		.thumb_func
  46              		.type	lcd_Init, %function
  47              	lcd_Init:
  48              	.LFB0:
  49              		.file 1 ".\\Generated_Source\\PSoC5\\lcd.c"
   1:.\Generated_Source\PSoC5/lcd.c **** /*******************************************************************************
ARM GAS  C:\Users\arh\AppData\Local\Temp\ccfGlav7.s 			page 2


   2:.\Generated_Source\PSoC5/lcd.c **** * File Name: lcd.c
   3:.\Generated_Source\PSoC5/lcd.c **** * Version 1.70
   4:.\Generated_Source\PSoC5/lcd.c **** *
   5:.\Generated_Source\PSoC5/lcd.c **** * Description:
   6:.\Generated_Source\PSoC5/lcd.c **** *  This file provides source code for the Character LCD component's API.
   7:.\Generated_Source\PSoC5/lcd.c **** *
   8:.\Generated_Source\PSoC5/lcd.c **** * Note:
   9:.\Generated_Source\PSoC5/lcd.c **** *
  10:.\Generated_Source\PSoC5/lcd.c **** ********************************************************************************
  11:.\Generated_Source\PSoC5/lcd.c **** * Copyright 2008-2012, Cypress Semiconductor Corporation.  All rights reserved.
  12:.\Generated_Source\PSoC5/lcd.c **** * You may use this file only in accordance with the license, terms, conditions,
  13:.\Generated_Source\PSoC5/lcd.c **** * disclaimers, and limitations in the end user license agreement accompanying
  14:.\Generated_Source\PSoC5/lcd.c **** * the software package with which this file was provided.
  15:.\Generated_Source\PSoC5/lcd.c **** *******************************************************************************/
  16:.\Generated_Source\PSoC5/lcd.c **** 
  17:.\Generated_Source\PSoC5/lcd.c **** #include "CyLib.h"
  18:.\Generated_Source\PSoC5/lcd.c **** #include "lcd.h"
  19:.\Generated_Source\PSoC5/lcd.c **** 
  20:.\Generated_Source\PSoC5/lcd.c **** 
  21:.\Generated_Source\PSoC5/lcd.c **** void lcd_Init(void) ;
  22:.\Generated_Source\PSoC5/lcd.c **** void lcd_Enable(void) ;
  23:.\Generated_Source\PSoC5/lcd.c **** 
  24:.\Generated_Source\PSoC5/lcd.c **** 
  25:.\Generated_Source\PSoC5/lcd.c **** uint8 lcd_enableState = 0u;
  26:.\Generated_Source\PSoC5/lcd.c **** 
  27:.\Generated_Source\PSoC5/lcd.c **** uint8 lcd_initVar = 0u;
  28:.\Generated_Source\PSoC5/lcd.c **** 
  29:.\Generated_Source\PSoC5/lcd.c **** char8 const CYCODE lcd_hex[16u] = "0123456789ABCDEF";
  30:.\Generated_Source\PSoC5/lcd.c **** 
  31:.\Generated_Source\PSoC5/lcd.c **** extern uint8 const CYCODE lcd_customFonts[];
  32:.\Generated_Source\PSoC5/lcd.c **** 
  33:.\Generated_Source\PSoC5/lcd.c **** 
  34:.\Generated_Source\PSoC5/lcd.c **** /*******************************************************************************
  35:.\Generated_Source\PSoC5/lcd.c **** * Function Name: lcd_Init
  36:.\Generated_Source\PSoC5/lcd.c **** ********************************************************************************
  37:.\Generated_Source\PSoC5/lcd.c **** *
  38:.\Generated_Source\PSoC5/lcd.c **** * Summary:
  39:.\Generated_Source\PSoC5/lcd.c **** *  Perform initialization required for components normal work.
  40:.\Generated_Source\PSoC5/lcd.c **** *  This function initializes the LCD hardware module as follows:
  41:.\Generated_Source\PSoC5/lcd.c **** *        Enable 4-bit interface
  42:.\Generated_Source\PSoC5/lcd.c **** *        Clear the display
  43:.\Generated_Source\PSoC5/lcd.c **** *        Enable auto cursor increment
  44:.\Generated_Source\PSoC5/lcd.c **** *        Resets the cursor to start position
  45:.\Generated_Source\PSoC5/lcd.c **** *  Also loads custom character set to LCD if it was defined in the customizer.
  46:.\Generated_Source\PSoC5/lcd.c **** *
  47:.\Generated_Source\PSoC5/lcd.c **** * Parameters:
  48:.\Generated_Source\PSoC5/lcd.c **** *  None.
  49:.\Generated_Source\PSoC5/lcd.c **** *
  50:.\Generated_Source\PSoC5/lcd.c **** * Return:
  51:.\Generated_Source\PSoC5/lcd.c **** *  None.
  52:.\Generated_Source\PSoC5/lcd.c **** *
  53:.\Generated_Source\PSoC5/lcd.c **** * Reentrant:
  54:.\Generated_Source\PSoC5/lcd.c **** *  No.
  55:.\Generated_Source\PSoC5/lcd.c **** *
  56:.\Generated_Source\PSoC5/lcd.c **** *******************************************************************************/
  57:.\Generated_Source\PSoC5/lcd.c **** void lcd_Init(void) 
  58:.\Generated_Source\PSoC5/lcd.c **** {
ARM GAS  C:\Users\arh\AppData\Local\Temp\ccfGlav7.s 			page 3


  50              		.loc 1 58 0
  51              		.cfi_startproc
  52              		@ args = 0, pretend = 0, frame = 0
  53              		@ frame_needed = 1, uses_anonymous_args = 0
  54 0000 80B5     		push	{r7, lr}
  55              	.LCFI0:
  56              		.cfi_def_cfa_offset 8
  57 0002 00AF     		add	r7, sp, #0
  58              		.cfi_offset 14, -4
  59              		.cfi_offset 7, -8
  60              	.LCFI1:
  61              		.cfi_def_cfa_register 7
  59:.\Generated_Source\PSoC5/lcd.c ****     /* INIT CODE */
  60:.\Generated_Source\PSoC5/lcd.c ****     CyDelay(40u);                                                        /* Delay 40 ms */
  62              		.loc 1 60 0
  63 0004 4FF02800 		mov	r0, #40
  64 0008 FFF7FEFF 		bl	CyDelay
  61:.\Generated_Source\PSoC5/lcd.c ****     lcd_WrCntrlNib(lcd_DISPLAY_8_BIT_INIT);   /* Selects 8-bit mode */
  65              		.loc 1 61 0
  66 000c 4FF00300 		mov	r0, #3
  67 0010 FFF7FEFF 		bl	lcd_WrCntrlNib
  62:.\Generated_Source\PSoC5/lcd.c ****     CyDelay(5u);                                                         /* Delay 5 ms */
  68              		.loc 1 62 0
  69 0014 4FF00500 		mov	r0, #5
  70 0018 FFF7FEFF 		bl	CyDelay
  63:.\Generated_Source\PSoC5/lcd.c ****     lcd_WrCntrlNib(lcd_DISPLAY_8_BIT_INIT);   /* Selects 8-bit mode */
  71              		.loc 1 63 0
  72 001c 4FF00300 		mov	r0, #3
  73 0020 FFF7FEFF 		bl	lcd_WrCntrlNib
  64:.\Generated_Source\PSoC5/lcd.c ****     CyDelay(15u);                                                        /* Delay 15 ms */
  74              		.loc 1 64 0
  75 0024 4FF00F00 		mov	r0, #15
  76 0028 FFF7FEFF 		bl	CyDelay
  65:.\Generated_Source\PSoC5/lcd.c ****     lcd_WrCntrlNib(lcd_DISPLAY_8_BIT_INIT);   /* Selects 8-bit mode */
  77              		.loc 1 65 0
  78 002c 4FF00300 		mov	r0, #3
  79 0030 FFF7FEFF 		bl	lcd_WrCntrlNib
  66:.\Generated_Source\PSoC5/lcd.c ****     CyDelay(1u);                                                         /* Delay 1 ms */
  80              		.loc 1 66 0
  81 0034 4FF00100 		mov	r0, #1
  82 0038 FFF7FEFF 		bl	CyDelay
  67:.\Generated_Source\PSoC5/lcd.c ****     lcd_WrCntrlNib(lcd_DISPLAY_4_BIT_INIT);   /* Selects 4-bit mode */
  83              		.loc 1 67 0
  84 003c 4FF00200 		mov	r0, #2
  85 0040 FFF7FEFF 		bl	lcd_WrCntrlNib
  68:.\Generated_Source\PSoC5/lcd.c ****     CyDelay(5u);                                                         /* Delay 5 ms */
  86              		.loc 1 68 0
  87 0044 4FF00500 		mov	r0, #5
  88 0048 FFF7FEFF 		bl	CyDelay
  69:.\Generated_Source\PSoC5/lcd.c **** 
  70:.\Generated_Source\PSoC5/lcd.c ****     lcd_WriteControl(lcd_CURSOR_AUTO_INCR_ON);    /* Incr Cursor After Writes */
  89              		.loc 1 70 0
  90 004c 4FF00600 		mov	r0, #6
  91 0050 FFF7FEFF 		bl	lcd_WriteControl
  71:.\Generated_Source\PSoC5/lcd.c ****     lcd_WriteControl(lcd_DISPLAY_CURSOR_ON);      /* Turn Display, Cursor ON */
  92              		.loc 1 71 0
  93 0054 4FF00E00 		mov	r0, #14
ARM GAS  C:\Users\arh\AppData\Local\Temp\ccfGlav7.s 			page 4


  94 0058 FFF7FEFF 		bl	lcd_WriteControl
  72:.\Generated_Source\PSoC5/lcd.c ****     lcd_WriteControl(lcd_DISPLAY_2_LINES_5x10);   /* 2 Lines by 5x10 Characters */
  95              		.loc 1 72 0
  96 005c 4FF02C00 		mov	r0, #44
  97 0060 FFF7FEFF 		bl	lcd_WriteControl
  73:.\Generated_Source\PSoC5/lcd.c ****     lcd_WriteControl(lcd_DISPLAY_CURSOR_OFF);     /* Turn Display, Cursor OFF */
  98              		.loc 1 73 0
  99 0064 4FF00800 		mov	r0, #8
 100 0068 FFF7FEFF 		bl	lcd_WriteControl
  74:.\Generated_Source\PSoC5/lcd.c ****     lcd_WriteControl(lcd_CLEAR_DISPLAY);          /* Clear LCD Screen */
 101              		.loc 1 74 0
 102 006c 4FF00100 		mov	r0, #1
 103 0070 FFF7FEFF 		bl	lcd_WriteControl
  75:.\Generated_Source\PSoC5/lcd.c ****     lcd_WriteControl(lcd_DISPLAY_ON_CURSOR_OFF);  /* Turn Display ON, Cursor OFF */
 104              		.loc 1 75 0
 105 0074 4FF00C00 		mov	r0, #12
 106 0078 FFF7FEFF 		bl	lcd_WriteControl
  76:.\Generated_Source\PSoC5/lcd.c ****     lcd_WriteControl(lcd_RESET_CURSOR_POSITION);  /* Set Cursor to 0,0 */
 107              		.loc 1 76 0
 108 007c 4FF00300 		mov	r0, #3
 109 0080 FFF7FEFF 		bl	lcd_WriteControl
  77:.\Generated_Source\PSoC5/lcd.c ****     CyDelay(5u);
 110              		.loc 1 77 0
 111 0084 4FF00500 		mov	r0, #5
 112 0088 FFF7FEFF 		bl	CyDelay
  78:.\Generated_Source\PSoC5/lcd.c **** 
  79:.\Generated_Source\PSoC5/lcd.c ****     #if(lcd_CUSTOM_CHAR_SET != lcd_NONE)
  80:.\Generated_Source\PSoC5/lcd.c ****         lcd_LoadCustomFonts(lcd_customFonts);
  81:.\Generated_Source\PSoC5/lcd.c ****     #endif /* lcd_CUSTOM_CHAR_SET != lcd_NONE */
  82:.\Generated_Source\PSoC5/lcd.c **** }
 113              		.loc 1 82 0
 114 008c 80BD     		pop	{r7, pc}
 115              		.cfi_endproc
 116              	.LFE0:
 117              		.size	lcd_Init, .-lcd_Init
 118 008e 00BF     		.section	.text.lcd_Enable,"ax",%progbits
 119              		.align	2
 120              		.global	lcd_Enable
 121              		.thumb
 122              		.thumb_func
 123              		.type	lcd_Enable, %function
 124              	lcd_Enable:
 125              	.LFB1:
  83:.\Generated_Source\PSoC5/lcd.c **** 
  84:.\Generated_Source\PSoC5/lcd.c **** 
  85:.\Generated_Source\PSoC5/lcd.c **** /*******************************************************************************
  86:.\Generated_Source\PSoC5/lcd.c **** * Function Name: lcd_Enable
  87:.\Generated_Source\PSoC5/lcd.c **** ********************************************************************************
  88:.\Generated_Source\PSoC5/lcd.c **** *
  89:.\Generated_Source\PSoC5/lcd.c **** * Summary:
  90:.\Generated_Source\PSoC5/lcd.c **** *  Turns on the display.
  91:.\Generated_Source\PSoC5/lcd.c **** *
  92:.\Generated_Source\PSoC5/lcd.c **** * Parameters:
  93:.\Generated_Source\PSoC5/lcd.c **** *  None.
  94:.\Generated_Source\PSoC5/lcd.c **** *
  95:.\Generated_Source\PSoC5/lcd.c **** * Return:
  96:.\Generated_Source\PSoC5/lcd.c **** *  None.
ARM GAS  C:\Users\arh\AppData\Local\Temp\ccfGlav7.s 			page 5


  97:.\Generated_Source\PSoC5/lcd.c **** *
  98:.\Generated_Source\PSoC5/lcd.c **** * Reentrant:
  99:.\Generated_Source\PSoC5/lcd.c **** *  No.
 100:.\Generated_Source\PSoC5/lcd.c **** *
 101:.\Generated_Source\PSoC5/lcd.c **** * Theory:
 102:.\Generated_Source\PSoC5/lcd.c **** *  This finction has no effect when it called first time as
 103:.\Generated_Source\PSoC5/lcd.c **** *  lcd_Init() turns on the LCD.
 104:.\Generated_Source\PSoC5/lcd.c **** *
 105:.\Generated_Source\PSoC5/lcd.c **** *******************************************************************************/
 106:.\Generated_Source\PSoC5/lcd.c **** void lcd_Enable(void) 
 107:.\Generated_Source\PSoC5/lcd.c **** {
 126              		.loc 1 107 0
 127              		.cfi_startproc
 128              		@ args = 0, pretend = 0, frame = 0
 129              		@ frame_needed = 1, uses_anonymous_args = 0
 130 0000 80B5     		push	{r7, lr}
 131              	.LCFI2:
 132              		.cfi_def_cfa_offset 8
 133 0002 00AF     		add	r7, sp, #0
 134              		.cfi_offset 14, -4
 135              		.cfi_offset 7, -8
 136              	.LCFI3:
 137              		.cfi_def_cfa_register 7
 108:.\Generated_Source\PSoC5/lcd.c ****     lcd_DisplayOn();
 138              		.loc 1 108 0
 139 0004 4FF00C00 		mov	r0, #12
 140 0008 FFF7FEFF 		bl	lcd_WriteControl
 109:.\Generated_Source\PSoC5/lcd.c ****     lcd_enableState = 1u;
 141              		.loc 1 109 0
 142 000c 40F20003 		movw	r3, #:lower16:lcd_enableState
 143 0010 C0F20003 		movt	r3, #:upper16:lcd_enableState
 144 0014 4FF00102 		mov	r2, #1
 145 0018 1A70     		strb	r2, [r3, #0]
 110:.\Generated_Source\PSoC5/lcd.c **** }
 146              		.loc 1 110 0
 147 001a 80BD     		pop	{r7, pc}
 148              		.cfi_endproc
 149              	.LFE1:
 150              		.size	lcd_Enable, .-lcd_Enable
 151              		.section	.text.lcd_Start,"ax",%progbits
 152              		.align	2
 153              		.global	lcd_Start
 154              		.thumb
 155              		.thumb_func
 156              		.type	lcd_Start, %function
 157              	lcd_Start:
 158              	.LFB2:
 111:.\Generated_Source\PSoC5/lcd.c **** 
 112:.\Generated_Source\PSoC5/lcd.c **** 
 113:.\Generated_Source\PSoC5/lcd.c **** /*******************************************************************************
 114:.\Generated_Source\PSoC5/lcd.c **** * Function Name: lcd_Start
 115:.\Generated_Source\PSoC5/lcd.c **** ********************************************************************************
 116:.\Generated_Source\PSoC5/lcd.c **** *
 117:.\Generated_Source\PSoC5/lcd.c **** * Summary:
 118:.\Generated_Source\PSoC5/lcd.c **** *  Perform initialization required for components normal work.
 119:.\Generated_Source\PSoC5/lcd.c **** *  This function initializes the LCD hardware module as follows:
 120:.\Generated_Source\PSoC5/lcd.c **** *        Enable 4-bit interface
ARM GAS  C:\Users\arh\AppData\Local\Temp\ccfGlav7.s 			page 6


 121:.\Generated_Source\PSoC5/lcd.c **** *        Clear the display
 122:.\Generated_Source\PSoC5/lcd.c **** *        Enable auto cursor increment
 123:.\Generated_Source\PSoC5/lcd.c **** *        Resets the cursor to start position
 124:.\Generated_Source\PSoC5/lcd.c **** *  Also loads custom character set to LCD if it was defined in the customizer.
 125:.\Generated_Source\PSoC5/lcd.c **** *  If it was not the first call in this project then it just turns on the
 126:.\Generated_Source\PSoC5/lcd.c **** *  display
 127:.\Generated_Source\PSoC5/lcd.c **** *
 128:.\Generated_Source\PSoC5/lcd.c **** *
 129:.\Generated_Source\PSoC5/lcd.c **** * Parameters:
 130:.\Generated_Source\PSoC5/lcd.c **** *  lcd_initVar - global variable.
 131:.\Generated_Source\PSoC5/lcd.c **** *
 132:.\Generated_Source\PSoC5/lcd.c **** * Return:
 133:.\Generated_Source\PSoC5/lcd.c **** *  lcd_initVar - global variable.
 134:.\Generated_Source\PSoC5/lcd.c **** *
 135:.\Generated_Source\PSoC5/lcd.c **** * Reentrant:
 136:.\Generated_Source\PSoC5/lcd.c **** *  No.
 137:.\Generated_Source\PSoC5/lcd.c **** *
 138:.\Generated_Source\PSoC5/lcd.c **** *******************************************************************************/
 139:.\Generated_Source\PSoC5/lcd.c **** void lcd_Start() 
 140:.\Generated_Source\PSoC5/lcd.c **** {
 159              		.loc 1 140 0
 160              		.cfi_startproc
 161              		@ args = 0, pretend = 0, frame = 0
 162              		@ frame_needed = 1, uses_anonymous_args = 0
 163 0000 80B5     		push	{r7, lr}
 164              	.LCFI4:
 165              		.cfi_def_cfa_offset 8
 166 0002 00AF     		add	r7, sp, #0
 167              		.cfi_offset 14, -4
 168              		.cfi_offset 7, -8
 169              	.LCFI5:
 170              		.cfi_def_cfa_register 7
 141:.\Generated_Source\PSoC5/lcd.c ****     /* If not initialized then perform initialization */
 142:.\Generated_Source\PSoC5/lcd.c ****     if(lcd_initVar == 0u)
 171              		.loc 1 142 0
 172 0004 40F20003 		movw	r3, #:lower16:lcd_initVar
 173 0008 C0F20003 		movt	r3, #:upper16:lcd_initVar
 174 000c 1B78     		ldrb	r3, [r3, #0]	@ zero_extendqisi2
 175 000e 002B     		cmp	r3, #0
 176 0010 08D1     		bne	.L6
 143:.\Generated_Source\PSoC5/lcd.c ****     {
 144:.\Generated_Source\PSoC5/lcd.c ****         lcd_Init();
 177              		.loc 1 144 0
 178 0012 FFF7FEFF 		bl	lcd_Init
 145:.\Generated_Source\PSoC5/lcd.c ****         lcd_initVar = 1u;
 179              		.loc 1 145 0
 180 0016 40F20003 		movw	r3, #:lower16:lcd_initVar
 181 001a C0F20003 		movt	r3, #:upper16:lcd_initVar
 182 001e 4FF00102 		mov	r2, #1
 183 0022 1A70     		strb	r2, [r3, #0]
 184              	.L6:
 146:.\Generated_Source\PSoC5/lcd.c ****     }
 147:.\Generated_Source\PSoC5/lcd.c **** 
 148:.\Generated_Source\PSoC5/lcd.c ****     /* Turn on the LCD */
 149:.\Generated_Source\PSoC5/lcd.c ****     lcd_Enable();
 185              		.loc 1 149 0
 186 0024 FFF7FEFF 		bl	lcd_Enable
ARM GAS  C:\Users\arh\AppData\Local\Temp\ccfGlav7.s 			page 7


 150:.\Generated_Source\PSoC5/lcd.c **** }
 187              		.loc 1 150 0
 188 0028 80BD     		pop	{r7, pc}
 189              		.cfi_endproc
 190              	.LFE2:
 191              		.size	lcd_Start, .-lcd_Start
 192 002a 00BF     		.section	.text.lcd_Stop,"ax",%progbits
 193              		.align	2
 194              		.global	lcd_Stop
 195              		.thumb
 196              		.thumb_func
 197              		.type	lcd_Stop, %function
 198              	lcd_Stop:
 199              	.LFB3:
 151:.\Generated_Source\PSoC5/lcd.c **** 
 152:.\Generated_Source\PSoC5/lcd.c **** 
 153:.\Generated_Source\PSoC5/lcd.c **** /*******************************************************************************
 154:.\Generated_Source\PSoC5/lcd.c **** * Function Name: lcd_Stop
 155:.\Generated_Source\PSoC5/lcd.c **** ********************************************************************************
 156:.\Generated_Source\PSoC5/lcd.c **** *
 157:.\Generated_Source\PSoC5/lcd.c **** * Summary:
 158:.\Generated_Source\PSoC5/lcd.c **** *  Turns off the display of the LCD screen.
 159:.\Generated_Source\PSoC5/lcd.c **** *
 160:.\Generated_Source\PSoC5/lcd.c **** * Parameters:
 161:.\Generated_Source\PSoC5/lcd.c **** *  None.
 162:.\Generated_Source\PSoC5/lcd.c **** *
 163:.\Generated_Source\PSoC5/lcd.c **** * Return:
 164:.\Generated_Source\PSoC5/lcd.c **** *  None.
 165:.\Generated_Source\PSoC5/lcd.c **** *
 166:.\Generated_Source\PSoC5/lcd.c **** * Reentrant:
 167:.\Generated_Source\PSoC5/lcd.c **** *  No.
 168:.\Generated_Source\PSoC5/lcd.c **** *
 169:.\Generated_Source\PSoC5/lcd.c **** *******************************************************************************/
 170:.\Generated_Source\PSoC5/lcd.c **** void lcd_Stop() 
 171:.\Generated_Source\PSoC5/lcd.c **** {
 200              		.loc 1 171 0
 201              		.cfi_startproc
 202              		@ args = 0, pretend = 0, frame = 0
 203              		@ frame_needed = 1, uses_anonymous_args = 0
 204 0000 80B5     		push	{r7, lr}
 205              	.LCFI6:
 206              		.cfi_def_cfa_offset 8
 207 0002 00AF     		add	r7, sp, #0
 208              		.cfi_offset 14, -4
 209              		.cfi_offset 7, -8
 210              	.LCFI7:
 211              		.cfi_def_cfa_register 7
 172:.\Generated_Source\PSoC5/lcd.c ****     /* Calls LCD Off Macro */
 173:.\Generated_Source\PSoC5/lcd.c ****     lcd_DisplayOff();
 212              		.loc 1 173 0
 213 0004 4FF00800 		mov	r0, #8
 214 0008 FFF7FEFF 		bl	lcd_WriteControl
 174:.\Generated_Source\PSoC5/lcd.c ****     lcd_enableState = 0u;
 215              		.loc 1 174 0
 216 000c 40F20003 		movw	r3, #:lower16:lcd_enableState
 217 0010 C0F20003 		movt	r3, #:upper16:lcd_enableState
 218 0014 4FF00002 		mov	r2, #0
ARM GAS  C:\Users\arh\AppData\Local\Temp\ccfGlav7.s 			page 8


 219 0018 1A70     		strb	r2, [r3, #0]
 175:.\Generated_Source\PSoC5/lcd.c **** }
 220              		.loc 1 175 0
 221 001a 80BD     		pop	{r7, pc}
 222              		.cfi_endproc
 223              	.LFE3:
 224              		.size	lcd_Stop, .-lcd_Stop
 225              		.section	.text.lcd_Position,"ax",%progbits
 226              		.align	2
 227              		.global	lcd_Position
 228              		.thumb
 229              		.thumb_func
 230              		.type	lcd_Position, %function
 231              	lcd_Position:
 232              	.LFB4:
 176:.\Generated_Source\PSoC5/lcd.c **** 
 177:.\Generated_Source\PSoC5/lcd.c **** 
 178:.\Generated_Source\PSoC5/lcd.c **** /*******************************************************************************
 179:.\Generated_Source\PSoC5/lcd.c **** *  Function Name: lcd_Position
 180:.\Generated_Source\PSoC5/lcd.c **** ********************************************************************************
 181:.\Generated_Source\PSoC5/lcd.c **** *
 182:.\Generated_Source\PSoC5/lcd.c **** * Summary:
 183:.\Generated_Source\PSoC5/lcd.c **** *  Moves active cursor location to a point specified by the input arguments
 184:.\Generated_Source\PSoC5/lcd.c **** *
 185:.\Generated_Source\PSoC5/lcd.c **** * Parameters:
 186:.\Generated_Source\PSoC5/lcd.c **** *  row:     Specific row of LCD module to be written
 187:.\Generated_Source\PSoC5/lcd.c **** *  column:  Column of LCD module to be written
 188:.\Generated_Source\PSoC5/lcd.c **** *
 189:.\Generated_Source\PSoC5/lcd.c **** * Return:
 190:.\Generated_Source\PSoC5/lcd.c **** *  None.
 191:.\Generated_Source\PSoC5/lcd.c **** *
 192:.\Generated_Source\PSoC5/lcd.c **** * Note:
 193:.\Generated_Source\PSoC5/lcd.c **** *  This only applies for LCD displays which use the 2X40 address mode.
 194:.\Generated_Source\PSoC5/lcd.c **** *  This results in Row 2 offset from row one by 0x28.
 195:.\Generated_Source\PSoC5/lcd.c **** *  When there are more than 2 rows, each row must be fewer than 20 characters.
 196:.\Generated_Source\PSoC5/lcd.c **** *
 197:.\Generated_Source\PSoC5/lcd.c **** *******************************************************************************/
 198:.\Generated_Source\PSoC5/lcd.c **** void lcd_Position(uint8 row, uint8 column) 
 199:.\Generated_Source\PSoC5/lcd.c **** {
 233              		.loc 1 199 0
 234              		.cfi_startproc
 235              		@ args = 0, pretend = 0, frame = 8
 236              		@ frame_needed = 1, uses_anonymous_args = 0
 237 0000 80B5     		push	{r7, lr}
 238              	.LCFI8:
 239              		.cfi_def_cfa_offset 8
 240 0002 82B0     		sub	sp, sp, #8
 241              	.LCFI9:
 242              		.cfi_def_cfa_offset 16
 243 0004 00AF     		add	r7, sp, #0
 244              		.cfi_offset 14, -4
 245              		.cfi_offset 7, -8
 246              	.LCFI10:
 247              		.cfi_def_cfa_register 7
 248 0006 0246     		mov	r2, r0
 249 0008 0B46     		mov	r3, r1
 250 000a FA71     		strb	r2, [r7, #7]
ARM GAS  C:\Users\arh\AppData\Local\Temp\ccfGlav7.s 			page 9


 251 000c BB71     		strb	r3, [r7, #6]
 200:.\Generated_Source\PSoC5/lcd.c ****     switch (row)
 252              		.loc 1 200 0
 253 000e FB79     		ldrb	r3, [r7, #7]	@ zero_extendqisi2
 254 0010 032B     		cmp	r3, #3
 255 0012 2AD8     		bhi	.L17
 256 0014 01A2     		adr	r2, .L16
 257 0016 52F823F0 		ldr	pc, [r2, r3, lsl #2]
 258 001a 00BF     		.align	2
 259              	.L16:
 260 001c 2D000000 		.word	.L12+1
 261 0020 3D000000 		.word	.L13+1
 262 0024 4D000000 		.word	.L14+1
 263 0028 5D000000 		.word	.L15+1
 264              	.L12:
 201:.\Generated_Source\PSoC5/lcd.c ****     {
 202:.\Generated_Source\PSoC5/lcd.c ****         case 0:
 203:.\Generated_Source\PSoC5/lcd.c ****             lcd_WriteControl(lcd_ROW_0_START + column);
 265              		.loc 1 203 0
 266 002c BB79     		ldrb	r3, [r7, #6]
 267 002e A3F18003 		sub	r3, r3, #128
 268 0032 DBB2     		uxtb	r3, r3
 269 0034 1846     		mov	r0, r3
 270 0036 FFF7FEFF 		bl	lcd_WriteControl
 204:.\Generated_Source\PSoC5/lcd.c ****             break;
 271              		.loc 1 204 0
 272 003a 16E0     		b	.L17
 273              	.L13:
 205:.\Generated_Source\PSoC5/lcd.c ****         case 1:
 206:.\Generated_Source\PSoC5/lcd.c ****             lcd_WriteControl(lcd_ROW_1_START + column);
 274              		.loc 1 206 0
 275 003c BB79     		ldrb	r3, [r7, #6]
 276 003e A3F14003 		sub	r3, r3, #64
 277 0042 DBB2     		uxtb	r3, r3
 278 0044 1846     		mov	r0, r3
 279 0046 FFF7FEFF 		bl	lcd_WriteControl
 207:.\Generated_Source\PSoC5/lcd.c ****             break;
 280              		.loc 1 207 0
 281 004a 0EE0     		b	.L17
 282              	.L14:
 208:.\Generated_Source\PSoC5/lcd.c ****         case 2:
 209:.\Generated_Source\PSoC5/lcd.c ****             lcd_WriteControl(lcd_ROW_2_START + column);
 283              		.loc 1 209 0
 284 004c BB79     		ldrb	r3, [r7, #6]
 285 004e A3F16C03 		sub	r3, r3, #108
 286 0052 DBB2     		uxtb	r3, r3
 287 0054 1846     		mov	r0, r3
 288 0056 FFF7FEFF 		bl	lcd_WriteControl
 210:.\Generated_Source\PSoC5/lcd.c ****             break;
 289              		.loc 1 210 0
 290 005a 06E0     		b	.L17
 291              	.L15:
 211:.\Generated_Source\PSoC5/lcd.c ****         case 3:
 212:.\Generated_Source\PSoC5/lcd.c ****             lcd_WriteControl(lcd_ROW_3_START + column);
 292              		.loc 1 212 0
 293 005c BB79     		ldrb	r3, [r7, #6]
 294 005e A3F12C03 		sub	r3, r3, #44
ARM GAS  C:\Users\arh\AppData\Local\Temp\ccfGlav7.s 			page 10


 295 0062 DBB2     		uxtb	r3, r3
 296 0064 1846     		mov	r0, r3
 297 0066 FFF7FEFF 		bl	lcd_WriteControl
 298              	.L17:
 213:.\Generated_Source\PSoC5/lcd.c ****             break;
 214:.\Generated_Source\PSoC5/lcd.c ****         default:
 215:.\Generated_Source\PSoC5/lcd.c ****             /* if default case is hit, invalid row argument was passed.*/
 216:.\Generated_Source\PSoC5/lcd.c ****             break;
 217:.\Generated_Source\PSoC5/lcd.c ****     }
 218:.\Generated_Source\PSoC5/lcd.c **** }
 299              		.loc 1 218 0
 300 006a 07F10807 		add	r7, r7, #8
 301 006e BD46     		mov	sp, r7
 302 0070 80BD     		pop	{r7, pc}
 303              		.cfi_endproc
 304              	.LFE4:
 305              		.size	lcd_Position, .-lcd_Position
 306 0072 00BF     		.section	.text.lcd_PrintString,"ax",%progbits
 307              		.align	2
 308              		.global	lcd_PrintString
 309              		.thumb
 310              		.thumb_func
 311              		.type	lcd_PrintString, %function
 312              	lcd_PrintString:
 313              	.LFB5:
 219:.\Generated_Source\PSoC5/lcd.c **** 
 220:.\Generated_Source\PSoC5/lcd.c **** 
 221:.\Generated_Source\PSoC5/lcd.c **** /*******************************************************************************
 222:.\Generated_Source\PSoC5/lcd.c **** * Function Name: lcd_PrintString
 223:.\Generated_Source\PSoC5/lcd.c **** ********************************************************************************
 224:.\Generated_Source\PSoC5/lcd.c **** *
 225:.\Generated_Source\PSoC5/lcd.c **** * Summary:
 226:.\Generated_Source\PSoC5/lcd.c **** *  Writes a zero terminated string to the LCD.
 227:.\Generated_Source\PSoC5/lcd.c **** *
 228:.\Generated_Source\PSoC5/lcd.c **** * Parameters:
 229:.\Generated_Source\PSoC5/lcd.c **** *  string:  pointer to head of char8 array to be written to the LCD module
 230:.\Generated_Source\PSoC5/lcd.c **** *
 231:.\Generated_Source\PSoC5/lcd.c **** * Return:
 232:.\Generated_Source\PSoC5/lcd.c **** *  None.
 233:.\Generated_Source\PSoC5/lcd.c **** *
 234:.\Generated_Source\PSoC5/lcd.c **** *******************************************************************************/
 235:.\Generated_Source\PSoC5/lcd.c **** void lcd_PrintString(char8 * string) 
 236:.\Generated_Source\PSoC5/lcd.c **** {
 314              		.loc 1 236 0
 315              		.cfi_startproc
 316              		@ args = 0, pretend = 0, frame = 16
 317              		@ frame_needed = 1, uses_anonymous_args = 0
 318 0000 80B5     		push	{r7, lr}
 319              	.LCFI11:
 320              		.cfi_def_cfa_offset 8
 321 0002 84B0     		sub	sp, sp, #16
 322              	.LCFI12:
 323              		.cfi_def_cfa_offset 24
 324 0004 00AF     		add	r7, sp, #0
 325              		.cfi_offset 14, -4
 326              		.cfi_offset 7, -8
 327              	.LCFI13:
ARM GAS  C:\Users\arh\AppData\Local\Temp\ccfGlav7.s 			page 11


 328              		.cfi_def_cfa_register 7
 329 0006 7860     		str	r0, [r7, #4]
 237:.\Generated_Source\PSoC5/lcd.c ****     uint8 indexU8 = 1u;
 330              		.loc 1 237 0
 331 0008 4FF00103 		mov	r3, #1
 332 000c BB73     		strb	r3, [r7, #14]
 238:.\Generated_Source\PSoC5/lcd.c ****     char8 current = *string;
 333              		.loc 1 238 0
 334 000e 7B68     		ldr	r3, [r7, #4]
 335 0010 1B78     		ldrb	r3, [r3, #0]
 336 0012 FB73     		strb	r3, [r7, #15]
 239:.\Generated_Source\PSoC5/lcd.c **** 
 240:.\Generated_Source\PSoC5/lcd.c ****     /* Until null is reached, print next character */
 241:.\Generated_Source\PSoC5/lcd.c ****     while(current != (char8) '\0')
 337              		.loc 1 241 0
 338 0014 0CE0     		b	.L19
 339              	.L20:
 242:.\Generated_Source\PSoC5/lcd.c ****     {
 243:.\Generated_Source\PSoC5/lcd.c ****         lcd_WriteData(current);
 340              		.loc 1 243 0
 341 0016 FB7B     		ldrb	r3, [r7, #15]	@ zero_extendqisi2
 342 0018 1846     		mov	r0, r3
 343 001a FFF7FEFF 		bl	lcd_WriteData
 244:.\Generated_Source\PSoC5/lcd.c ****         current = *(string + indexU8);
 344              		.loc 1 244 0
 345 001e BA7B     		ldrb	r2, [r7, #14]	@ zero_extendqisi2
 346 0020 7B68     		ldr	r3, [r7, #4]
 347 0022 1344     		add	r3, r2, r3
 348 0024 1B78     		ldrb	r3, [r3, #0]
 349 0026 FB73     		strb	r3, [r7, #15]
 245:.\Generated_Source\PSoC5/lcd.c ****         indexU8++;
 350              		.loc 1 245 0
 351 0028 BB7B     		ldrb	r3, [r7, #14]
 352 002a 03F10103 		add	r3, r3, #1
 353 002e BB73     		strb	r3, [r7, #14]
 354              	.L19:
 355              		.loc 1 241 0
 356 0030 FB7B     		ldrb	r3, [r7, #15]	@ zero_extendqisi2
 357 0032 002B     		cmp	r3, #0
 358 0034 EFD1     		bne	.L20
 246:.\Generated_Source\PSoC5/lcd.c ****     }
 247:.\Generated_Source\PSoC5/lcd.c **** }
 359              		.loc 1 247 0
 360 0036 07F11007 		add	r7, r7, #16
 361 003a BD46     		mov	sp, r7
 362 003c 80BD     		pop	{r7, pc}
 363              		.cfi_endproc
 364              	.LFE5:
 365              		.size	lcd_PrintString, .-lcd_PrintString
 366 003e 00BF     		.section	.text.lcd_PutChar,"ax",%progbits
 367              		.align	2
 368              		.global	lcd_PutChar
 369              		.thumb
 370              		.thumb_func
 371              		.type	lcd_PutChar, %function
 372              	lcd_PutChar:
 373              	.LFB6:
ARM GAS  C:\Users\arh\AppData\Local\Temp\ccfGlav7.s 			page 12


 248:.\Generated_Source\PSoC5/lcd.c **** 
 249:.\Generated_Source\PSoC5/lcd.c **** 
 250:.\Generated_Source\PSoC5/lcd.c **** /*******************************************************************************
 251:.\Generated_Source\PSoC5/lcd.c **** *  Function Name: lcd_PutChar
 252:.\Generated_Source\PSoC5/lcd.c **** ********************************************************************************
 253:.\Generated_Source\PSoC5/lcd.c **** *
 254:.\Generated_Source\PSoC5/lcd.c **** * Summary:
 255:.\Generated_Source\PSoC5/lcd.c **** *  Writes a single character to the current cursor position of the LCD module.
 256:.\Generated_Source\PSoC5/lcd.c **** *  Custom character names (_CUSTOM_0 through
 257:.\Generated_Source\PSoC5/lcd.c **** *  _CUSTOM_7) are acceptable as inputs.
 258:.\Generated_Source\PSoC5/lcd.c **** *
 259:.\Generated_Source\PSoC5/lcd.c **** * Parameters:
 260:.\Generated_Source\PSoC5/lcd.c **** *  character:  character to be written to the LCD
 261:.\Generated_Source\PSoC5/lcd.c **** *
 262:.\Generated_Source\PSoC5/lcd.c **** * Return:
 263:.\Generated_Source\PSoC5/lcd.c **** *  None.
 264:.\Generated_Source\PSoC5/lcd.c **** *
 265:.\Generated_Source\PSoC5/lcd.c **** *******************************************************************************/
 266:.\Generated_Source\PSoC5/lcd.c **** void lcd_PutChar(char8 character) 
 267:.\Generated_Source\PSoC5/lcd.c **** {
 374              		.loc 1 267 0
 375              		.cfi_startproc
 376              		@ args = 0, pretend = 0, frame = 8
 377              		@ frame_needed = 1, uses_anonymous_args = 0
 378 0000 80B5     		push	{r7, lr}
 379              	.LCFI14:
 380              		.cfi_def_cfa_offset 8
 381 0002 82B0     		sub	sp, sp, #8
 382              	.LCFI15:
 383              		.cfi_def_cfa_offset 16
 384 0004 00AF     		add	r7, sp, #0
 385              		.cfi_offset 14, -4
 386              		.cfi_offset 7, -8
 387              	.LCFI16:
 388              		.cfi_def_cfa_register 7
 389 0006 0346     		mov	r3, r0
 390 0008 FB71     		strb	r3, [r7, #7]
 268:.\Generated_Source\PSoC5/lcd.c ****     lcd_WriteData(character);
 391              		.loc 1 268 0
 392 000a FB79     		ldrb	r3, [r7, #7]	@ zero_extendqisi2
 393 000c 1846     		mov	r0, r3
 394 000e FFF7FEFF 		bl	lcd_WriteData
 269:.\Generated_Source\PSoC5/lcd.c **** }
 395              		.loc 1 269 0
 396 0012 07F10807 		add	r7, r7, #8
 397 0016 BD46     		mov	sp, r7
 398 0018 80BD     		pop	{r7, pc}
 399              		.cfi_endproc
 400              	.LFE6:
 401              		.size	lcd_PutChar, .-lcd_PutChar
 402 001a 00BF     		.section	.text.lcd_WriteData,"ax",%progbits
 403              		.align	2
 404              		.global	lcd_WriteData
 405              		.thumb
 406              		.thumb_func
 407              		.type	lcd_WriteData, %function
 408              	lcd_WriteData:
ARM GAS  C:\Users\arh\AppData\Local\Temp\ccfGlav7.s 			page 13


 409              	.LFB7:
 270:.\Generated_Source\PSoC5/lcd.c **** 
 271:.\Generated_Source\PSoC5/lcd.c **** 
 272:.\Generated_Source\PSoC5/lcd.c **** /*******************************************************************************
 273:.\Generated_Source\PSoC5/lcd.c **** *  Function Name: lcd_WriteData
 274:.\Generated_Source\PSoC5/lcd.c **** ********************************************************************************
 275:.\Generated_Source\PSoC5/lcd.c **** *
 276:.\Generated_Source\PSoC5/lcd.c **** * Summary:
 277:.\Generated_Source\PSoC5/lcd.c **** *  Writes a data byte to the LCD module's Data Display RAM.
 278:.\Generated_Source\PSoC5/lcd.c **** *
 279:.\Generated_Source\PSoC5/lcd.c **** * Parameters:
 280:.\Generated_Source\PSoC5/lcd.c **** *  dByte:  byte to be written to LCD module.
 281:.\Generated_Source\PSoC5/lcd.c **** *
 282:.\Generated_Source\PSoC5/lcd.c **** * Return:
 283:.\Generated_Source\PSoC5/lcd.c **** *  None.
 284:.\Generated_Source\PSoC5/lcd.c **** *
 285:.\Generated_Source\PSoC5/lcd.c **** *******************************************************************************/
 286:.\Generated_Source\PSoC5/lcd.c **** void lcd_WriteData(uint8 dByte) 
 287:.\Generated_Source\PSoC5/lcd.c **** {
 410              		.loc 1 287 0
 411              		.cfi_startproc
 412              		@ args = 0, pretend = 0, frame = 16
 413              		@ frame_needed = 1, uses_anonymous_args = 0
 414 0000 80B5     		push	{r7, lr}
 415              	.LCFI17:
 416              		.cfi_def_cfa_offset 8
 417 0002 84B0     		sub	sp, sp, #16
 418              	.LCFI18:
 419              		.cfi_def_cfa_offset 24
 420 0004 00AF     		add	r7, sp, #0
 421              		.cfi_offset 14, -4
 422              		.cfi_offset 7, -8
 423              	.LCFI19:
 424              		.cfi_def_cfa_register 7
 425 0006 0346     		mov	r3, r0
 426 0008 FB71     		strb	r3, [r7, #7]
 288:.\Generated_Source\PSoC5/lcd.c ****     uint8 nibble;
 289:.\Generated_Source\PSoC5/lcd.c **** 
 290:.\Generated_Source\PSoC5/lcd.c ****     lcd_IsReady();
 427              		.loc 1 290 0
 428 000a FFF7FEFF 		bl	lcd_IsReady
 291:.\Generated_Source\PSoC5/lcd.c ****     nibble = dByte >> lcd_NIBBLE_SHIFT;
 429              		.loc 1 291 0
 430 000e FB79     		ldrb	r3, [r7, #7]	@ zero_extendqisi2
 431 0010 4FEA1313 		lsr	r3, r3, #4
 432 0014 FB73     		strb	r3, [r7, #15]
 292:.\Generated_Source\PSoC5/lcd.c **** 
 293:.\Generated_Source\PSoC5/lcd.c ****     /* Write high nibble */
 294:.\Generated_Source\PSoC5/lcd.c ****     lcd_WrDatNib(nibble);
 433              		.loc 1 294 0
 434 0016 FB7B     		ldrb	r3, [r7, #15]	@ zero_extendqisi2
 435 0018 1846     		mov	r0, r3
 436 001a FFF7FEFF 		bl	lcd_WrDatNib
 295:.\Generated_Source\PSoC5/lcd.c **** 
 296:.\Generated_Source\PSoC5/lcd.c ****     nibble = dByte & lcd_NIBBLE_MASK;
 437              		.loc 1 296 0
 438 001e FB79     		ldrb	r3, [r7, #7]
ARM GAS  C:\Users\arh\AppData\Local\Temp\ccfGlav7.s 			page 14


 439 0020 03F00F03 		and	r3, r3, #15
 440 0024 FB73     		strb	r3, [r7, #15]
 297:.\Generated_Source\PSoC5/lcd.c ****     /* Write low nibble */
 298:.\Generated_Source\PSoC5/lcd.c ****     lcd_WrDatNib(nibble);
 441              		.loc 1 298 0
 442 0026 FB7B     		ldrb	r3, [r7, #15]	@ zero_extendqisi2
 443 0028 1846     		mov	r0, r3
 444 002a FFF7FEFF 		bl	lcd_WrDatNib
 299:.\Generated_Source\PSoC5/lcd.c **** }
 445              		.loc 1 299 0
 446 002e 07F11007 		add	r7, r7, #16
 447 0032 BD46     		mov	sp, r7
 448 0034 80BD     		pop	{r7, pc}
 449              		.cfi_endproc
 450              	.LFE7:
 451              		.size	lcd_WriteData, .-lcd_WriteData
 452 0036 00BF     		.section	.text.lcd_WriteControl,"ax",%progbits
 453              		.align	2
 454              		.global	lcd_WriteControl
 455              		.thumb
 456              		.thumb_func
 457              		.type	lcd_WriteControl, %function
 458              	lcd_WriteControl:
 459              	.LFB8:
 300:.\Generated_Source\PSoC5/lcd.c **** 
 301:.\Generated_Source\PSoC5/lcd.c **** 
 302:.\Generated_Source\PSoC5/lcd.c **** /*******************************************************************************
 303:.\Generated_Source\PSoC5/lcd.c **** *  Function Name: lcd_WriteControl
 304:.\Generated_Source\PSoC5/lcd.c **** ********************************************************************************
 305:.\Generated_Source\PSoC5/lcd.c **** *
 306:.\Generated_Source\PSoC5/lcd.c **** * Summary:
 307:.\Generated_Source\PSoC5/lcd.c **** *  Writes a command byte to the LCD module.
 308:.\Generated_Source\PSoC5/lcd.c **** *
 309:.\Generated_Source\PSoC5/lcd.c **** * Parameters:
 310:.\Generated_Source\PSoC5/lcd.c **** *  cByte:   byte to be written to LCD module.
 311:.\Generated_Source\PSoC5/lcd.c **** *
 312:.\Generated_Source\PSoC5/lcd.c **** * Return:
 313:.\Generated_Source\PSoC5/lcd.c **** *  None.
 314:.\Generated_Source\PSoC5/lcd.c **** *
 315:.\Generated_Source\PSoC5/lcd.c **** *******************************************************************************/
 316:.\Generated_Source\PSoC5/lcd.c **** void lcd_WriteControl(uint8 cByte) 
 317:.\Generated_Source\PSoC5/lcd.c **** {
 460              		.loc 1 317 0
 461              		.cfi_startproc
 462              		@ args = 0, pretend = 0, frame = 16
 463              		@ frame_needed = 1, uses_anonymous_args = 0
 464 0000 80B5     		push	{r7, lr}
 465              	.LCFI20:
 466              		.cfi_def_cfa_offset 8
 467 0002 84B0     		sub	sp, sp, #16
 468              	.LCFI21:
 469              		.cfi_def_cfa_offset 24
 470 0004 00AF     		add	r7, sp, #0
 471              		.cfi_offset 14, -4
 472              		.cfi_offset 7, -8
 473              	.LCFI22:
 474              		.cfi_def_cfa_register 7
ARM GAS  C:\Users\arh\AppData\Local\Temp\ccfGlav7.s 			page 15


 475 0006 0346     		mov	r3, r0
 476 0008 FB71     		strb	r3, [r7, #7]
 318:.\Generated_Source\PSoC5/lcd.c ****     uint8 nibble;
 319:.\Generated_Source\PSoC5/lcd.c **** 
 320:.\Generated_Source\PSoC5/lcd.c ****     nibble = cByte >> lcd_NIBBLE_SHIFT;
 477              		.loc 1 320 0
 478 000a FB79     		ldrb	r3, [r7, #7]	@ zero_extendqisi2
 479 000c 4FEA1313 		lsr	r3, r3, #4
 480 0010 FB73     		strb	r3, [r7, #15]
 321:.\Generated_Source\PSoC5/lcd.c **** 
 322:.\Generated_Source\PSoC5/lcd.c ****     lcd_IsReady();
 481              		.loc 1 322 0
 482 0012 FFF7FEFF 		bl	lcd_IsReady
 323:.\Generated_Source\PSoC5/lcd.c ****     nibble &= lcd_NIBBLE_MASK;
 483              		.loc 1 323 0
 484 0016 FB7B     		ldrb	r3, [r7, #15]
 485 0018 03F00F03 		and	r3, r3, #15
 486 001c FB73     		strb	r3, [r7, #15]
 324:.\Generated_Source\PSoC5/lcd.c **** 
 325:.\Generated_Source\PSoC5/lcd.c ****     /* WrCntrlNib(High Nibble) */
 326:.\Generated_Source\PSoC5/lcd.c ****     lcd_WrCntrlNib(nibble);
 487              		.loc 1 326 0
 488 001e FB7B     		ldrb	r3, [r7, #15]	@ zero_extendqisi2
 489 0020 1846     		mov	r0, r3
 490 0022 FFF7FEFF 		bl	lcd_WrCntrlNib
 327:.\Generated_Source\PSoC5/lcd.c ****     nibble = cByte & lcd_NIBBLE_MASK;
 491              		.loc 1 327 0
 492 0026 FB79     		ldrb	r3, [r7, #7]
 493 0028 03F00F03 		and	r3, r3, #15
 494 002c FB73     		strb	r3, [r7, #15]
 328:.\Generated_Source\PSoC5/lcd.c **** 
 329:.\Generated_Source\PSoC5/lcd.c ****     /* WrCntrlNib(Low Nibble) */
 330:.\Generated_Source\PSoC5/lcd.c ****     lcd_WrCntrlNib(nibble);
 495              		.loc 1 330 0
 496 002e FB7B     		ldrb	r3, [r7, #15]	@ zero_extendqisi2
 497 0030 1846     		mov	r0, r3
 498 0032 FFF7FEFF 		bl	lcd_WrCntrlNib
 331:.\Generated_Source\PSoC5/lcd.c **** }
 499              		.loc 1 331 0
 500 0036 07F11007 		add	r7, r7, #16
 501 003a BD46     		mov	sp, r7
 502 003c 80BD     		pop	{r7, pc}
 503              		.cfi_endproc
 504              	.LFE8:
 505              		.size	lcd_WriteControl, .-lcd_WriteControl
 506 003e 00BF     		.section	.text.lcd_IsReady,"ax",%progbits
 507              		.align	2
 508              		.global	lcd_IsReady
 509              		.thumb
 510              		.thumb_func
 511              		.type	lcd_IsReady, %function
 512              	lcd_IsReady:
 513              	.LFB9:
 332:.\Generated_Source\PSoC5/lcd.c **** 
 333:.\Generated_Source\PSoC5/lcd.c **** 
 334:.\Generated_Source\PSoC5/lcd.c **** /*******************************************************************************
 335:.\Generated_Source\PSoC5/lcd.c **** * Function Name: lcd_IsReady
ARM GAS  C:\Users\arh\AppData\Local\Temp\ccfGlav7.s 			page 16


 336:.\Generated_Source\PSoC5/lcd.c **** ********************************************************************************
 337:.\Generated_Source\PSoC5/lcd.c **** *
 338:.\Generated_Source\PSoC5/lcd.c **** * Summary:
 339:.\Generated_Source\PSoC5/lcd.c **** *  Polls LCD until the ready bit is set.
 340:.\Generated_Source\PSoC5/lcd.c **** *
 341:.\Generated_Source\PSoC5/lcd.c **** * Parameters:
 342:.\Generated_Source\PSoC5/lcd.c **** *  None.
 343:.\Generated_Source\PSoC5/lcd.c **** *
 344:.\Generated_Source\PSoC5/lcd.c **** * Return:
 345:.\Generated_Source\PSoC5/lcd.c **** *  None.
 346:.\Generated_Source\PSoC5/lcd.c **** *
 347:.\Generated_Source\PSoC5/lcd.c **** * Note:
 348:.\Generated_Source\PSoC5/lcd.c **** *  Changes pins to High-Z.
 349:.\Generated_Source\PSoC5/lcd.c **** *
 350:.\Generated_Source\PSoC5/lcd.c **** *******************************************************************************/
 351:.\Generated_Source\PSoC5/lcd.c **** void lcd_IsReady() 
 352:.\Generated_Source\PSoC5/lcd.c **** {
 514              		.loc 1 352 0
 515              		.cfi_startproc
 516              		@ args = 0, pretend = 0, frame = 8
 517              		@ frame_needed = 1, uses_anonymous_args = 0
 518 0000 80B5     		push	{r7, lr}
 519              	.LCFI23:
 520              		.cfi_def_cfa_offset 8
 521 0002 82B0     		sub	sp, sp, #8
 522              	.LCFI24:
 523              		.cfi_def_cfa_offset 16
 524 0004 00AF     		add	r7, sp, #0
 525              		.cfi_offset 14, -4
 526              		.cfi_offset 7, -8
 527              	.LCFI25:
 528              		.cfi_def_cfa_register 7
 353:.\Generated_Source\PSoC5/lcd.c ****     uint8 value = 0u;
 529              		.loc 1 353 0
 530 0006 4FF00003 		mov	r3, #0
 531 000a FB71     		strb	r3, [r7, #7]
 354:.\Generated_Source\PSoC5/lcd.c **** 
 355:.\Generated_Source\PSoC5/lcd.c ****     /* Clear the LCD port*/
 356:.\Generated_Source\PSoC5/lcd.c ****     lcd_PORT_DR_REG &= ~lcd_PORT_MASK ;
 532              		.loc 1 356 0
 533 000c 45F22013 		movw	r3, #:lower16:1073762592
 534 0010 C4F20003 		movt	r3, #:upper16:1073762592
 535 0014 45F22012 		movw	r2, #:lower16:1073762592
 536 0018 C4F20002 		movt	r2, #:upper16:1073762592
 537 001c 1278     		ldrb	r2, [r2, #0]
 538 001e D2B2     		uxtb	r2, r2
 539 0020 02F08002 		and	r2, r2, #128
 540 0024 1A70     		strb	r2, [r3, #0]
 357:.\Generated_Source\PSoC5/lcd.c **** 
 358:.\Generated_Source\PSoC5/lcd.c ****     /* Change Port to High-Z Status on data pins */
 359:.\Generated_Source\PSoC5/lcd.c **** 
 360:.\Generated_Source\PSoC5/lcd.c ****     /* Mask off data pins to clear old values out */
 361:.\Generated_Source\PSoC5/lcd.c ****     value = lcd_PORT_DM0_REG & ~lcd_DATA_MASK;
 541              		.loc 1 361 0
 542 0026 45F22213 		movw	r3, #:lower16:1073762594
 543 002a C4F20003 		movt	r3, #:upper16:1073762594
 544 002e 1B78     		ldrb	r3, [r3, #0]
ARM GAS  C:\Users\arh\AppData\Local\Temp\ccfGlav7.s 			page 17


 545 0030 DBB2     		uxtb	r3, r3
 546 0032 23F00F03 		bic	r3, r3, #15
 547 0036 FB71     		strb	r3, [r7, #7]
 362:.\Generated_Source\PSoC5/lcd.c ****     /* Load in high Z values for data pins, others unchanged */
 363:.\Generated_Source\PSoC5/lcd.c ****     lcd_PORT_DM0_REG = value | (lcd_HIGH_Z_DM0 & lcd_DATA_MASK);
 548              		.loc 1 363 0
 549 0038 45F22213 		movw	r3, #:lower16:1073762594
 550 003c C4F20003 		movt	r3, #:upper16:1073762594
 551 0040 FA79     		ldrb	r2, [r7, #7]
 552 0042 42F00F02 		orr	r2, r2, #15
 553 0046 D2B2     		uxtb	r2, r2
 554 0048 1A70     		strb	r2, [r3, #0]
 364:.\Generated_Source\PSoC5/lcd.c **** 
 365:.\Generated_Source\PSoC5/lcd.c ****     /* Mask off data pins to clear old values out */
 366:.\Generated_Source\PSoC5/lcd.c ****     value = lcd_PORT_DM1_REG & ~lcd_DATA_MASK;
 555              		.loc 1 366 0
 556 004a 45F22313 		movw	r3, #:lower16:1073762595
 557 004e C4F20003 		movt	r3, #:upper16:1073762595
 558 0052 1B78     		ldrb	r3, [r3, #0]
 559 0054 DBB2     		uxtb	r3, r3
 560 0056 23F00F03 		bic	r3, r3, #15
 561 005a FB71     		strb	r3, [r7, #7]
 367:.\Generated_Source\PSoC5/lcd.c ****     /* Load in high Z values for data pins, others unchanged */
 368:.\Generated_Source\PSoC5/lcd.c ****     lcd_PORT_DM1_REG = value | (lcd_HIGH_Z_DM1 & lcd_DATA_MASK);
 562              		.loc 1 368 0
 563 005c 45F22313 		movw	r3, #:lower16:1073762595
 564 0060 C4F20003 		movt	r3, #:upper16:1073762595
 565 0064 FA79     		ldrb	r2, [r7, #7]
 566 0066 1A70     		strb	r2, [r3, #0]
 369:.\Generated_Source\PSoC5/lcd.c **** 
 370:.\Generated_Source\PSoC5/lcd.c ****     /* Mask off data pins to clear old values out */
 371:.\Generated_Source\PSoC5/lcd.c ****     value = lcd_PORT_DM2_REG & ~lcd_DATA_MASK;
 567              		.loc 1 371 0
 568 0068 45F22413 		movw	r3, #:lower16:1073762596
 569 006c C4F20003 		movt	r3, #:upper16:1073762596
 570 0070 1B78     		ldrb	r3, [r3, #0]
 571 0072 DBB2     		uxtb	r3, r3
 572 0074 23F00F03 		bic	r3, r3, #15
 573 0078 FB71     		strb	r3, [r7, #7]
 372:.\Generated_Source\PSoC5/lcd.c ****     /* Load in high Z values for data pins, others unchanged */
 373:.\Generated_Source\PSoC5/lcd.c ****     lcd_PORT_DM2_REG = value | (lcd_HIGH_Z_DM2 & lcd_DATA_MASK);
 574              		.loc 1 373 0
 575 007a 45F22413 		movw	r3, #:lower16:1073762596
 576 007e C4F20003 		movt	r3, #:upper16:1073762596
 577 0082 FA79     		ldrb	r2, [r7, #7]
 578 0084 1A70     		strb	r2, [r3, #0]
 374:.\Generated_Source\PSoC5/lcd.c **** 
 375:.\Generated_Source\PSoC5/lcd.c ****     /* Make sure RS is low */
 376:.\Generated_Source\PSoC5/lcd.c ****     lcd_PORT_DR_REG &= ~lcd_RS;
 579              		.loc 1 376 0
 580 0086 45F22013 		movw	r3, #:lower16:1073762592
 581 008a C4F20003 		movt	r3, #:upper16:1073762592
 582 008e 45F22012 		movw	r2, #:lower16:1073762592
 583 0092 C4F20002 		movt	r2, #:upper16:1073762592
 584 0096 1278     		ldrb	r2, [r2, #0]
 585 0098 D2B2     		uxtb	r2, r2
 586 009a 02F0DF02 		and	r2, r2, #223
ARM GAS  C:\Users\arh\AppData\Local\Temp\ccfGlav7.s 			page 18


 587 009e 1A70     		strb	r2, [r3, #0]
 377:.\Generated_Source\PSoC5/lcd.c **** 
 378:.\Generated_Source\PSoC5/lcd.c ****     /* Set R/W high to read */
 379:.\Generated_Source\PSoC5/lcd.c ****     lcd_PORT_DR_REG |= lcd_RW;
 588              		.loc 1 379 0
 589 00a0 45F22013 		movw	r3, #:lower16:1073762592
 590 00a4 C4F20003 		movt	r3, #:upper16:1073762592
 591 00a8 45F22012 		movw	r2, #:lower16:1073762592
 592 00ac C4F20002 		movt	r2, #:upper16:1073762592
 593 00b0 1278     		ldrb	r2, [r2, #0]
 594 00b2 D2B2     		uxtb	r2, r2
 595 00b4 42F04002 		orr	r2, r2, #64
 596 00b8 D2B2     		uxtb	r2, r2
 597 00ba 1A70     		strb	r2, [r3, #0]
 598              	.L29:
 380:.\Generated_Source\PSoC5/lcd.c **** 
 381:.\Generated_Source\PSoC5/lcd.c ****     do
 382:.\Generated_Source\PSoC5/lcd.c ****     {
 383:.\Generated_Source\PSoC5/lcd.c ****         /* 40 ns delay required before rising Enable and 500ns between neighbour Enables */
 384:.\Generated_Source\PSoC5/lcd.c ****         CyDelayUs(0u);
 599              		.loc 1 384 0
 600 00bc 4FF00000 		mov	r0, #0
 601 00c0 FFF7FEFF 		bl	CyDelayUs
 385:.\Generated_Source\PSoC5/lcd.c **** 
 386:.\Generated_Source\PSoC5/lcd.c ****         /* Set E high */
 387:.\Generated_Source\PSoC5/lcd.c ****         lcd_PORT_DR_REG |= lcd_E;
 602              		.loc 1 387 0
 603 00c4 45F22013 		movw	r3, #:lower16:1073762592
 604 00c8 C4F20003 		movt	r3, #:upper16:1073762592
 605 00cc 45F22012 		movw	r2, #:lower16:1073762592
 606 00d0 C4F20002 		movt	r2, #:upper16:1073762592
 607 00d4 1278     		ldrb	r2, [r2, #0]
 608 00d6 D2B2     		uxtb	r2, r2
 609 00d8 42F01002 		orr	r2, r2, #16
 610 00dc D2B2     		uxtb	r2, r2
 611 00de 1A70     		strb	r2, [r3, #0]
 388:.\Generated_Source\PSoC5/lcd.c **** 
 389:.\Generated_Source\PSoC5/lcd.c ****         /* 360 ns delay the setup time for data pins */
 390:.\Generated_Source\PSoC5/lcd.c ****         CyDelayUs(1u);
 612              		.loc 1 390 0
 613 00e0 4FF00100 		mov	r0, #1
 614 00e4 FFF7FEFF 		bl	CyDelayUs
 391:.\Generated_Source\PSoC5/lcd.c **** 
 392:.\Generated_Source\PSoC5/lcd.c ****         /* Get port state */
 393:.\Generated_Source\PSoC5/lcd.c ****         value = lcd_PORT_PS_REG;
 615              		.loc 1 393 0
 616 00e8 45F22113 		movw	r3, #:lower16:1073762593
 617 00ec C4F20003 		movt	r3, #:upper16:1073762593
 618 00f0 1B78     		ldrb	r3, [r3, #0]
 619 00f2 FB71     		strb	r3, [r7, #7]
 394:.\Generated_Source\PSoC5/lcd.c **** 
 395:.\Generated_Source\PSoC5/lcd.c ****         /* Set enable low */
 396:.\Generated_Source\PSoC5/lcd.c ****         lcd_PORT_DR_REG &= ~lcd_E;
 620              		.loc 1 396 0
 621 00f4 45F22013 		movw	r3, #:lower16:1073762592
 622 00f8 C4F20003 		movt	r3, #:upper16:1073762592
 623 00fc 45F22012 		movw	r2, #:lower16:1073762592
ARM GAS  C:\Users\arh\AppData\Local\Temp\ccfGlav7.s 			page 19


 624 0100 C4F20002 		movt	r2, #:upper16:1073762592
 625 0104 1278     		ldrb	r2, [r2, #0]
 626 0106 D2B2     		uxtb	r2, r2
 627 0108 02F0EF02 		and	r2, r2, #239
 628 010c 1A70     		strb	r2, [r3, #0]
 397:.\Generated_Source\PSoC5/lcd.c **** 
 398:.\Generated_Source\PSoC5/lcd.c ****         /* Allow time for the enable signal to transition */
 399:.\Generated_Source\PSoC5/lcd.c ****         CyDelayUs(0u);
 629              		.loc 1 399 0
 630 010e 4FF00000 		mov	r0, #0
 631 0112 FFF7FEFF 		bl	CyDelayUs
 400:.\Generated_Source\PSoC5/lcd.c ****         
 401:.\Generated_Source\PSoC5/lcd.c ****         /* Extract ready bit */
 402:.\Generated_Source\PSoC5/lcd.c ****         value &= lcd_READY_BIT;
 632              		.loc 1 402 0
 633 0116 FB79     		ldrb	r3, [r7, #7]
 634 0118 03F00803 		and	r3, r3, #8
 635 011c FB71     		strb	r3, [r7, #7]
 403:.\Generated_Source\PSoC5/lcd.c **** 
 404:.\Generated_Source\PSoC5/lcd.c ****         /* Set E high as we in 4-bit interface we need extra oparation */
 405:.\Generated_Source\PSoC5/lcd.c ****         lcd_PORT_DR_REG |= lcd_E;
 636              		.loc 1 405 0
 637 011e 45F22013 		movw	r3, #:lower16:1073762592
 638 0122 C4F20003 		movt	r3, #:upper16:1073762592
 639 0126 45F22012 		movw	r2, #:lower16:1073762592
 640 012a C4F20002 		movt	r2, #:upper16:1073762592
 641 012e 1278     		ldrb	r2, [r2, #0]
 642 0130 D2B2     		uxtb	r2, r2
 643 0132 42F01002 		orr	r2, r2, #16
 644 0136 D2B2     		uxtb	r2, r2
 645 0138 1A70     		strb	r2, [r3, #0]
 406:.\Generated_Source\PSoC5/lcd.c **** 
 407:.\Generated_Source\PSoC5/lcd.c ****         /* 360 ns delay the setup time for data pins */
 408:.\Generated_Source\PSoC5/lcd.c ****         CyDelayUs(1u);
 646              		.loc 1 408 0
 647 013a 4FF00100 		mov	r0, #1
 648 013e FFF7FEFF 		bl	CyDelayUs
 409:.\Generated_Source\PSoC5/lcd.c **** 
 410:.\Generated_Source\PSoC5/lcd.c ****         /* Set enable low */
 411:.\Generated_Source\PSoC5/lcd.c ****         lcd_PORT_DR_REG &= ~lcd_E;
 649              		.loc 1 411 0
 650 0142 45F22013 		movw	r3, #:lower16:1073762592
 651 0146 C4F20003 		movt	r3, #:upper16:1073762592
 652 014a 45F22012 		movw	r2, #:lower16:1073762592
 653 014e C4F20002 		movt	r2, #:upper16:1073762592
 654 0152 1278     		ldrb	r2, [r2, #0]
 655 0154 D2B2     		uxtb	r2, r2
 656 0156 02F0EF02 		and	r2, r2, #239
 657 015a 1A70     		strb	r2, [r3, #0]
 412:.\Generated_Source\PSoC5/lcd.c **** 
 413:.\Generated_Source\PSoC5/lcd.c ****         /* Repeat until bit 4 is not zero. */
 414:.\Generated_Source\PSoC5/lcd.c **** 
 415:.\Generated_Source\PSoC5/lcd.c ****     } while (value != 0u);
 658              		.loc 1 415 0
 659 015c FB79     		ldrb	r3, [r7, #7]	@ zero_extendqisi2
 660 015e 002B     		cmp	r3, #0
 661 0160 ACD1     		bne	.L29
ARM GAS  C:\Users\arh\AppData\Local\Temp\ccfGlav7.s 			page 20


 416:.\Generated_Source\PSoC5/lcd.c **** 
 417:.\Generated_Source\PSoC5/lcd.c ****     /* Set R/W low to write */
 418:.\Generated_Source\PSoC5/lcd.c ****     lcd_PORT_DR_REG &= ~lcd_RW;
 662              		.loc 1 418 0
 663 0162 45F22013 		movw	r3, #:lower16:1073762592
 664 0166 C4F20003 		movt	r3, #:upper16:1073762592
 665 016a 45F22012 		movw	r2, #:lower16:1073762592
 666 016e C4F20002 		movt	r2, #:upper16:1073762592
 667 0172 1278     		ldrb	r2, [r2, #0]
 668 0174 D2B2     		uxtb	r2, r2
 669 0176 02F0BF02 		and	r2, r2, #191
 670 017a 1A70     		strb	r2, [r3, #0]
 419:.\Generated_Source\PSoC5/lcd.c **** 
 420:.\Generated_Source\PSoC5/lcd.c ****     /* Clear the LCD port*/
 421:.\Generated_Source\PSoC5/lcd.c ****     lcd_PORT_DR_REG &= ~lcd_PORT_MASK ;
 671              		.loc 1 421 0
 672 017c 45F22013 		movw	r3, #:lower16:1073762592
 673 0180 C4F20003 		movt	r3, #:upper16:1073762592
 674 0184 45F22012 		movw	r2, #:lower16:1073762592
 675 0188 C4F20002 		movt	r2, #:upper16:1073762592
 676 018c 1278     		ldrb	r2, [r2, #0]
 677 018e D2B2     		uxtb	r2, r2
 678 0190 02F08002 		and	r2, r2, #128
 679 0194 1A70     		strb	r2, [r3, #0]
 422:.\Generated_Source\PSoC5/lcd.c **** 
 423:.\Generated_Source\PSoC5/lcd.c ****     /* Change Port to Output (Strong) on data pins */
 424:.\Generated_Source\PSoC5/lcd.c **** 
 425:.\Generated_Source\PSoC5/lcd.c ****     /* Mask off data pins to clear high z values out */
 426:.\Generated_Source\PSoC5/lcd.c ****     value = lcd_PORT_DM0_REG & (~lcd_DATA_MASK);
 680              		.loc 1 426 0
 681 0196 45F22213 		movw	r3, #:lower16:1073762594
 682 019a C4F20003 		movt	r3, #:upper16:1073762594
 683 019e 1B78     		ldrb	r3, [r3, #0]
 684 01a0 DBB2     		uxtb	r3, r3
 685 01a2 23F00F03 		bic	r3, r3, #15
 686 01a6 FB71     		strb	r3, [r7, #7]
 427:.\Generated_Source\PSoC5/lcd.c ****     /* Load in high Z values for data pins, others unchanged */
 428:.\Generated_Source\PSoC5/lcd.c ****     lcd_PORT_DM0_REG = value | (lcd_STRONG_DM0 & lcd_DATA_MASK);
 687              		.loc 1 428 0
 688 01a8 45F22213 		movw	r3, #:lower16:1073762594
 689 01ac C4F20003 		movt	r3, #:upper16:1073762594
 690 01b0 FA79     		ldrb	r2, [r7, #7]
 691 01b2 1A70     		strb	r2, [r3, #0]
 429:.\Generated_Source\PSoC5/lcd.c **** 
 430:.\Generated_Source\PSoC5/lcd.c ****     /* Mask off data pins to clear high z values out */
 431:.\Generated_Source\PSoC5/lcd.c ****     value = lcd_PORT_DM1_REG & (~lcd_DATA_MASK);
 692              		.loc 1 431 0
 693 01b4 45F22313 		movw	r3, #:lower16:1073762595
 694 01b8 C4F20003 		movt	r3, #:upper16:1073762595
 695 01bc 1B78     		ldrb	r3, [r3, #0]
 696 01be DBB2     		uxtb	r3, r3
 697 01c0 23F00F03 		bic	r3, r3, #15
 698 01c4 FB71     		strb	r3, [r7, #7]
 432:.\Generated_Source\PSoC5/lcd.c ****     /* Load in high Z values for data pins, others unchanged */
 433:.\Generated_Source\PSoC5/lcd.c ****     lcd_PORT_DM1_REG = value | (lcd_STRONG_DM1 & lcd_DATA_MASK);
 699              		.loc 1 433 0
 700 01c6 45F22313 		movw	r3, #:lower16:1073762595
ARM GAS  C:\Users\arh\AppData\Local\Temp\ccfGlav7.s 			page 21


 701 01ca C4F20003 		movt	r3, #:upper16:1073762595
 702 01ce FA79     		ldrb	r2, [r7, #7]
 703 01d0 42F00F02 		orr	r2, r2, #15
 704 01d4 D2B2     		uxtb	r2, r2
 705 01d6 1A70     		strb	r2, [r3, #0]
 434:.\Generated_Source\PSoC5/lcd.c **** 
 435:.\Generated_Source\PSoC5/lcd.c ****     /* Mask off data pins to clear high z values out */
 436:.\Generated_Source\PSoC5/lcd.c ****     value = lcd_PORT_DM2_REG & (~lcd_DATA_MASK);
 706              		.loc 1 436 0
 707 01d8 45F22413 		movw	r3, #:lower16:1073762596
 708 01dc C4F20003 		movt	r3, #:upper16:1073762596
 709 01e0 1B78     		ldrb	r3, [r3, #0]
 710 01e2 DBB2     		uxtb	r3, r3
 711 01e4 23F00F03 		bic	r3, r3, #15
 712 01e8 FB71     		strb	r3, [r7, #7]
 437:.\Generated_Source\PSoC5/lcd.c ****     /* Load in high Z values for data pins, others unchanged */
 438:.\Generated_Source\PSoC5/lcd.c ****     lcd_PORT_DM2_REG = value | (lcd_STRONG_DM2 & lcd_DATA_MASK);
 713              		.loc 1 438 0
 714 01ea 45F22413 		movw	r3, #:lower16:1073762596
 715 01ee C4F20003 		movt	r3, #:upper16:1073762596
 716 01f2 FA79     		ldrb	r2, [r7, #7]
 717 01f4 42F00F02 		orr	r2, r2, #15
 718 01f8 D2B2     		uxtb	r2, r2
 719 01fa 1A70     		strb	r2, [r3, #0]
 439:.\Generated_Source\PSoC5/lcd.c **** }
 720              		.loc 1 439 0
 721 01fc 07F10807 		add	r7, r7, #8
 722 0200 BD46     		mov	sp, r7
 723 0202 80BD     		pop	{r7, pc}
 724              		.cfi_endproc
 725              	.LFE9:
 726              		.size	lcd_IsReady, .-lcd_IsReady
 727              		.section	.text.lcd_WrDatNib,"ax",%progbits
 728              		.align	2
 729              		.global	lcd_WrDatNib
 730              		.thumb
 731              		.thumb_func
 732              		.type	lcd_WrDatNib, %function
 733              	lcd_WrDatNib:
 734              	.LFB10:
 440:.\Generated_Source\PSoC5/lcd.c **** 
 441:.\Generated_Source\PSoC5/lcd.c **** 
 442:.\Generated_Source\PSoC5/lcd.c **** /*******************************************************************************
 443:.\Generated_Source\PSoC5/lcd.c **** *  Function Name: lcd_WrDatNib
 444:.\Generated_Source\PSoC5/lcd.c **** ********************************************************************************
 445:.\Generated_Source\PSoC5/lcd.c **** *
 446:.\Generated_Source\PSoC5/lcd.c **** * Summary:
 447:.\Generated_Source\PSoC5/lcd.c **** *  Writes a data nibble to the LCD module.
 448:.\Generated_Source\PSoC5/lcd.c **** *
 449:.\Generated_Source\PSoC5/lcd.c **** * Parameters:
 450:.\Generated_Source\PSoC5/lcd.c **** *  nibble:  byte containing nibble in least significant nibble to be written
 451:.\Generated_Source\PSoC5/lcd.c **** *           to LCD module.
 452:.\Generated_Source\PSoC5/lcd.c **** *
 453:.\Generated_Source\PSoC5/lcd.c **** * Return:
 454:.\Generated_Source\PSoC5/lcd.c **** *  None.
 455:.\Generated_Source\PSoC5/lcd.c **** *
 456:.\Generated_Source\PSoC5/lcd.c **** *******************************************************************************/
ARM GAS  C:\Users\arh\AppData\Local\Temp\ccfGlav7.s 			page 22


 457:.\Generated_Source\PSoC5/lcd.c **** void lcd_WrDatNib(uint8 nibble) 
 458:.\Generated_Source\PSoC5/lcd.c **** {
 735              		.loc 1 458 0
 736              		.cfi_startproc
 737              		@ args = 0, pretend = 0, frame = 8
 738              		@ frame_needed = 1, uses_anonymous_args = 0
 739 0000 80B5     		push	{r7, lr}
 740              	.LCFI26:
 741              		.cfi_def_cfa_offset 8
 742 0002 82B0     		sub	sp, sp, #8
 743              	.LCFI27:
 744              		.cfi_def_cfa_offset 16
 745 0004 00AF     		add	r7, sp, #0
 746              		.cfi_offset 14, -4
 747              		.cfi_offset 7, -8
 748              	.LCFI28:
 749              		.cfi_def_cfa_register 7
 750 0006 0346     		mov	r3, r0
 751 0008 FB71     		strb	r3, [r7, #7]
 459:.\Generated_Source\PSoC5/lcd.c ****     lcd_IsReady();
 752              		.loc 1 459 0
 753 000a FFF7FEFF 		bl	lcd_IsReady
 460:.\Generated_Source\PSoC5/lcd.c **** 
 461:.\Generated_Source\PSoC5/lcd.c ****     /* RS shoul be low to select data register */
 462:.\Generated_Source\PSoC5/lcd.c ****     lcd_PORT_DR_REG |= lcd_RS;
 754              		.loc 1 462 0
 755 000e 45F22013 		movw	r3, #:lower16:1073762592
 756 0012 C4F20003 		movt	r3, #:upper16:1073762592
 757 0016 45F22012 		movw	r2, #:lower16:1073762592
 758 001a C4F20002 		movt	r2, #:upper16:1073762592
 759 001e 1278     		ldrb	r2, [r2, #0]
 760 0020 D2B2     		uxtb	r2, r2
 761 0022 42F02002 		orr	r2, r2, #32
 762 0026 D2B2     		uxtb	r2, r2
 763 0028 1A70     		strb	r2, [r3, #0]
 463:.\Generated_Source\PSoC5/lcd.c ****     /* Reset RW for write operation */
 464:.\Generated_Source\PSoC5/lcd.c ****     lcd_PORT_DR_REG &= ~lcd_RW;
 764              		.loc 1 464 0
 765 002a 45F22013 		movw	r3, #:lower16:1073762592
 766 002e C4F20003 		movt	r3, #:upper16:1073762592
 767 0032 45F22012 		movw	r2, #:lower16:1073762592
 768 0036 C4F20002 		movt	r2, #:upper16:1073762592
 769 003a 1278     		ldrb	r2, [r2, #0]
 770 003c D2B2     		uxtb	r2, r2
 771 003e 02F0BF02 		and	r2, r2, #191
 772 0042 1A70     		strb	r2, [r3, #0]
 465:.\Generated_Source\PSoC5/lcd.c **** 
 466:.\Generated_Source\PSoC5/lcd.c ****     /* Two following lines of code will provide us with 40ns delay */
 467:.\Generated_Source\PSoC5/lcd.c ****     /* Clear data pins */
 468:.\Generated_Source\PSoC5/lcd.c ****     lcd_PORT_DR_REG &= ~lcd_DATA_MASK;
 773              		.loc 1 468 0
 774 0044 45F22013 		movw	r3, #:lower16:1073762592
 775 0048 C4F20003 		movt	r3, #:upper16:1073762592
 776 004c 45F22012 		movw	r2, #:lower16:1073762592
 777 0050 C4F20002 		movt	r2, #:upper16:1073762592
 778 0054 1278     		ldrb	r2, [r2, #0]
 779 0056 D2B2     		uxtb	r2, r2
ARM GAS  C:\Users\arh\AppData\Local\Temp\ccfGlav7.s 			page 23


 780 0058 02F0F002 		and	r2, r2, #240
 781 005c 1A70     		strb	r2, [r3, #0]
 469:.\Generated_Source\PSoC5/lcd.c **** 
 470:.\Generated_Source\PSoC5/lcd.c ****     /* Write in data, bring E high*/
 471:.\Generated_Source\PSoC5/lcd.c ****     lcd_PORT_DR_REG |= (lcd_E | (nibble << lcd_PORT_SHIFT));
 782              		.loc 1 471 0
 783 005e 45F22013 		movw	r3, #:lower16:1073762592
 784 0062 C4F20003 		movt	r3, #:upper16:1073762592
 785 0066 45F22012 		movw	r2, #:lower16:1073762592
 786 006a C4F20002 		movt	r2, #:upper16:1073762592
 787 006e 1278     		ldrb	r2, [r2, #0]
 788 0070 D1B2     		uxtb	r1, r2
 789 0072 FA79     		ldrb	r2, [r7, #7]
 790 0074 41EA0202 		orr	r2, r1, r2
 791 0078 D2B2     		uxtb	r2, r2
 792 007a 42F01002 		orr	r2, r2, #16
 793 007e D2B2     		uxtb	r2, r2
 794 0080 1A70     		strb	r2, [r3, #0]
 472:.\Generated_Source\PSoC5/lcd.c **** 
 473:.\Generated_Source\PSoC5/lcd.c ****     /* Minimum of 230 ns delay */
 474:.\Generated_Source\PSoC5/lcd.c ****     CyDelayUs(1u);
 795              		.loc 1 474 0
 796 0082 4FF00100 		mov	r0, #1
 797 0086 FFF7FEFF 		bl	CyDelayUs
 475:.\Generated_Source\PSoC5/lcd.c **** 
 476:.\Generated_Source\PSoC5/lcd.c ****     lcd_PORT_DR_REG &= ~lcd_E;
 798              		.loc 1 476 0
 799 008a 45F22013 		movw	r3, #:lower16:1073762592
 800 008e C4F20003 		movt	r3, #:upper16:1073762592
 801 0092 45F22012 		movw	r2, #:lower16:1073762592
 802 0096 C4F20002 		movt	r2, #:upper16:1073762592
 803 009a 1278     		ldrb	r2, [r2, #0]
 804 009c D2B2     		uxtb	r2, r2
 805 009e 02F0EF02 		and	r2, r2, #239
 806 00a2 1A70     		strb	r2, [r3, #0]
 477:.\Generated_Source\PSoC5/lcd.c **** }
 807              		.loc 1 477 0
 808 00a4 07F10807 		add	r7, r7, #8
 809 00a8 BD46     		mov	sp, r7
 810 00aa 80BD     		pop	{r7, pc}
 811              		.cfi_endproc
 812              	.LFE10:
 813              		.size	lcd_WrDatNib, .-lcd_WrDatNib
 814              		.section	.text.lcd_WrCntrlNib,"ax",%progbits
 815              		.align	2
 816              		.global	lcd_WrCntrlNib
 817              		.thumb
 818              		.thumb_func
 819              		.type	lcd_WrCntrlNib, %function
 820              	lcd_WrCntrlNib:
 821              	.LFB11:
 478:.\Generated_Source\PSoC5/lcd.c **** 
 479:.\Generated_Source\PSoC5/lcd.c **** 
 480:.\Generated_Source\PSoC5/lcd.c **** /*******************************************************************************
 481:.\Generated_Source\PSoC5/lcd.c **** *  Function Name: lcd_WrCntrlNib
 482:.\Generated_Source\PSoC5/lcd.c **** ********************************************************************************
 483:.\Generated_Source\PSoC5/lcd.c **** *
ARM GAS  C:\Users\arh\AppData\Local\Temp\ccfGlav7.s 			page 24


 484:.\Generated_Source\PSoC5/lcd.c **** * Summary:
 485:.\Generated_Source\PSoC5/lcd.c **** *  Writes a control nibble to the LCD module.
 486:.\Generated_Source\PSoC5/lcd.c **** *
 487:.\Generated_Source\PSoC5/lcd.c **** * Parameters:
 488:.\Generated_Source\PSoC5/lcd.c **** *  nibble:  byte containing nibble in least significant nibble to be written
 489:.\Generated_Source\PSoC5/lcd.c **** *           to LCD module.
 490:.\Generated_Source\PSoC5/lcd.c **** *
 491:.\Generated_Source\PSoC5/lcd.c **** * Return:
 492:.\Generated_Source\PSoC5/lcd.c **** *  None.
 493:.\Generated_Source\PSoC5/lcd.c **** *
 494:.\Generated_Source\PSoC5/lcd.c **** *******************************************************************************/
 495:.\Generated_Source\PSoC5/lcd.c **** void lcd_WrCntrlNib(uint8 nibble) 
 496:.\Generated_Source\PSoC5/lcd.c **** {
 822              		.loc 1 496 0
 823              		.cfi_startproc
 824              		@ args = 0, pretend = 0, frame = 8
 825              		@ frame_needed = 1, uses_anonymous_args = 0
 826 0000 80B5     		push	{r7, lr}
 827              	.LCFI29:
 828              		.cfi_def_cfa_offset 8
 829 0002 82B0     		sub	sp, sp, #8
 830              	.LCFI30:
 831              		.cfi_def_cfa_offset 16
 832 0004 00AF     		add	r7, sp, #0
 833              		.cfi_offset 14, -4
 834              		.cfi_offset 7, -8
 835              	.LCFI31:
 836              		.cfi_def_cfa_register 7
 837 0006 0346     		mov	r3, r0
 838 0008 FB71     		strb	r3, [r7, #7]
 497:.\Generated_Source\PSoC5/lcd.c ****     /* RS and RW shoul be low to select instruction register and  write operation respectively */
 498:.\Generated_Source\PSoC5/lcd.c ****     lcd_PORT_DR_REG &= ~(lcd_RS | lcd_RW);
 839              		.loc 1 498 0
 840 000a 45F22013 		movw	r3, #:lower16:1073762592
 841 000e C4F20003 		movt	r3, #:upper16:1073762592
 842 0012 45F22012 		movw	r2, #:lower16:1073762592
 843 0016 C4F20002 		movt	r2, #:upper16:1073762592
 844 001a 1278     		ldrb	r2, [r2, #0]
 845 001c D2B2     		uxtb	r2, r2
 846 001e 02F09F02 		and	r2, r2, #159
 847 0022 1A70     		strb	r2, [r3, #0]
 499:.\Generated_Source\PSoC5/lcd.c **** 
 500:.\Generated_Source\PSoC5/lcd.c ****     /* Two following lines of code will give provide ua with 40ns delay */
 501:.\Generated_Source\PSoC5/lcd.c ****     /* Clear data pins */
 502:.\Generated_Source\PSoC5/lcd.c ****     lcd_PORT_DR_REG &= ~lcd_DATA_MASK;
 848              		.loc 1 502 0
 849 0024 45F22013 		movw	r3, #:lower16:1073762592
 850 0028 C4F20003 		movt	r3, #:upper16:1073762592
 851 002c 45F22012 		movw	r2, #:lower16:1073762592
 852 0030 C4F20002 		movt	r2, #:upper16:1073762592
 853 0034 1278     		ldrb	r2, [r2, #0]
 854 0036 D2B2     		uxtb	r2, r2
 855 0038 02F0F002 		and	r2, r2, #240
 856 003c 1A70     		strb	r2, [r3, #0]
 503:.\Generated_Source\PSoC5/lcd.c **** 
 504:.\Generated_Source\PSoC5/lcd.c ****     /* Write control data and set enable signal */
 505:.\Generated_Source\PSoC5/lcd.c ****     lcd_PORT_DR_REG |= (lcd_E | (nibble << lcd_PORT_SHIFT));
ARM GAS  C:\Users\arh\AppData\Local\Temp\ccfGlav7.s 			page 25


 857              		.loc 1 505 0
 858 003e 45F22013 		movw	r3, #:lower16:1073762592
 859 0042 C4F20003 		movt	r3, #:upper16:1073762592
 860 0046 45F22012 		movw	r2, #:lower16:1073762592
 861 004a C4F20002 		movt	r2, #:upper16:1073762592
 862 004e 1278     		ldrb	r2, [r2, #0]
 863 0050 D1B2     		uxtb	r1, r2
 864 0052 FA79     		ldrb	r2, [r7, #7]
 865 0054 41EA0202 		orr	r2, r1, r2
 866 0058 D2B2     		uxtb	r2, r2
 867 005a 42F01002 		orr	r2, r2, #16
 868 005e D2B2     		uxtb	r2, r2
 869 0060 1A70     		strb	r2, [r3, #0]
 506:.\Generated_Source\PSoC5/lcd.c **** 
 507:.\Generated_Source\PSoC5/lcd.c ****     /* Minimum of 230 ns delay */
 508:.\Generated_Source\PSoC5/lcd.c ****     CyDelayUs(1u);
 870              		.loc 1 508 0
 871 0062 4FF00100 		mov	r0, #1
 872 0066 FFF7FEFF 		bl	CyDelayUs
 509:.\Generated_Source\PSoC5/lcd.c **** 
 510:.\Generated_Source\PSoC5/lcd.c ****     lcd_PORT_DR_REG &= ~lcd_E;
 873              		.loc 1 510 0
 874 006a 45F22013 		movw	r3, #:lower16:1073762592
 875 006e C4F20003 		movt	r3, #:upper16:1073762592
 876 0072 45F22012 		movw	r2, #:lower16:1073762592
 877 0076 C4F20002 		movt	r2, #:upper16:1073762592
 878 007a 1278     		ldrb	r2, [r2, #0]
 879 007c D2B2     		uxtb	r2, r2
 880 007e 02F0EF02 		and	r2, r2, #239
 881 0082 1A70     		strb	r2, [r3, #0]
 511:.\Generated_Source\PSoC5/lcd.c **** }
 882              		.loc 1 511 0
 883 0084 07F10807 		add	r7, r7, #8
 884 0088 BD46     		mov	sp, r7
 885 008a 80BD     		pop	{r7, pc}
 886              		.cfi_endproc
 887              	.LFE11:
 888              		.size	lcd_WrCntrlNib, .-lcd_WrCntrlNib
 889              		.section	.text.lcd_PrintHexUint8,"ax",%progbits
 890              		.align	2
 891              		.global	lcd_PrintHexUint8
 892              		.thumb
 893              		.thumb_func
 894              		.type	lcd_PrintHexUint8, %function
 895              	lcd_PrintHexUint8:
 896              	.LFB12:
 512:.\Generated_Source\PSoC5/lcd.c **** 
 513:.\Generated_Source\PSoC5/lcd.c **** 
 514:.\Generated_Source\PSoC5/lcd.c **** #if(lcd_CONVERSION_ROUTINES == 1u)
 515:.\Generated_Source\PSoC5/lcd.c **** 
 516:.\Generated_Source\PSoC5/lcd.c ****     /*******************************************************************************
 517:.\Generated_Source\PSoC5/lcd.c ****     *  Function Name: lcd_PrintHexUint8
 518:.\Generated_Source\PSoC5/lcd.c ****     ********************************************************************************
 519:.\Generated_Source\PSoC5/lcd.c ****     *
 520:.\Generated_Source\PSoC5/lcd.c ****     * Summary:
 521:.\Generated_Source\PSoC5/lcd.c ****     *  Print a byte as two ASCII characters.
 522:.\Generated_Source\PSoC5/lcd.c ****     *
ARM GAS  C:\Users\arh\AppData\Local\Temp\ccfGlav7.s 			page 26


 523:.\Generated_Source\PSoC5/lcd.c ****     * Parameters:
 524:.\Generated_Source\PSoC5/lcd.c ****     *  value:  The byte to be printed out as ASCII characters.
 525:.\Generated_Source\PSoC5/lcd.c ****     *
 526:.\Generated_Source\PSoC5/lcd.c ****     * Return:
 527:.\Generated_Source\PSoC5/lcd.c ****     *  None.
 528:.\Generated_Source\PSoC5/lcd.c ****     *
 529:.\Generated_Source\PSoC5/lcd.c ****     *******************************************************************************/
 530:.\Generated_Source\PSoC5/lcd.c ****     void lcd_PrintHexUint8(uint8 value) 
 531:.\Generated_Source\PSoC5/lcd.c ****     {
 897              		.loc 1 531 0
 898              		.cfi_startproc
 899              		@ args = 0, pretend = 0, frame = 8
 900              		@ frame_needed = 1, uses_anonymous_args = 0
 901 0000 80B5     		push	{r7, lr}
 902              	.LCFI32:
 903              		.cfi_def_cfa_offset 8
 904 0002 82B0     		sub	sp, sp, #8
 905              	.LCFI33:
 906              		.cfi_def_cfa_offset 16
 907 0004 00AF     		add	r7, sp, #0
 908              		.cfi_offset 14, -4
 909              		.cfi_offset 7, -8
 910              	.LCFI34:
 911              		.cfi_def_cfa_register 7
 912 0006 0346     		mov	r3, r0
 913 0008 FB71     		strb	r3, [r7, #7]
 532:.\Generated_Source\PSoC5/lcd.c ****         lcd_PutChar((char8) lcd_hex[value >> lcd_BYTE_UPPER_NIBBLE_SHIFT]);
 914              		.loc 1 532 0
 915 000a FB79     		ldrb	r3, [r7, #7]	@ zero_extendqisi2
 916 000c 4FEA1313 		lsr	r3, r3, #4
 917 0010 DBB2     		uxtb	r3, r3
 918 0012 1A46     		mov	r2, r3
 919 0014 40F20003 		movw	r3, #:lower16:lcd_hex
 920 0018 C0F20003 		movt	r3, #:upper16:lcd_hex
 921 001c 9B5C     		ldrb	r3, [r3, r2]	@ zero_extendqisi2
 922 001e 1846     		mov	r0, r3
 923 0020 FFF7FEFF 		bl	lcd_PutChar
 533:.\Generated_Source\PSoC5/lcd.c ****         lcd_PutChar((char8) lcd_hex[value & lcd_BYTE_LOWER_NIBBLE_MASK]);
 924              		.loc 1 533 0
 925 0024 FB79     		ldrb	r3, [r7, #7]	@ zero_extendqisi2
 926 0026 03F00F02 		and	r2, r3, #15
 927 002a 40F20003 		movw	r3, #:lower16:lcd_hex
 928 002e C0F20003 		movt	r3, #:upper16:lcd_hex
 929 0032 9B5C     		ldrb	r3, [r3, r2]	@ zero_extendqisi2
 930 0034 1846     		mov	r0, r3
 931 0036 FFF7FEFF 		bl	lcd_PutChar
 534:.\Generated_Source\PSoC5/lcd.c ****     }
 932              		.loc 1 534 0
 933 003a 07F10807 		add	r7, r7, #8
 934 003e BD46     		mov	sp, r7
 935 0040 80BD     		pop	{r7, pc}
 936              		.cfi_endproc
 937              	.LFE12:
 938              		.size	lcd_PrintHexUint8, .-lcd_PrintHexUint8
 939 0042 00BF     		.section	.text.lcd_PrintHexUint16,"ax",%progbits
 940              		.align	2
 941              		.global	lcd_PrintHexUint16
ARM GAS  C:\Users\arh\AppData\Local\Temp\ccfGlav7.s 			page 27


 942              		.thumb
 943              		.thumb_func
 944              		.type	lcd_PrintHexUint16, %function
 945              	lcd_PrintHexUint16:
 946              	.LFB13:
 535:.\Generated_Source\PSoC5/lcd.c **** 
 536:.\Generated_Source\PSoC5/lcd.c **** 
 537:.\Generated_Source\PSoC5/lcd.c ****     /*******************************************************************************
 538:.\Generated_Source\PSoC5/lcd.c ****     *  Function Name: lcd_PrintHexUint16
 539:.\Generated_Source\PSoC5/lcd.c ****     ********************************************************************************
 540:.\Generated_Source\PSoC5/lcd.c ****     *
 541:.\Generated_Source\PSoC5/lcd.c ****     * Summary:
 542:.\Generated_Source\PSoC5/lcd.c ****     *  Print a uint16 as four ASCII characters.
 543:.\Generated_Source\PSoC5/lcd.c ****     *
 544:.\Generated_Source\PSoC5/lcd.c ****     * Parameters:
 545:.\Generated_Source\PSoC5/lcd.c ****     *  value:   The uint16 to be printed out as ASCII characters.
 546:.\Generated_Source\PSoC5/lcd.c ****     *
 547:.\Generated_Source\PSoC5/lcd.c ****     * Return:
 548:.\Generated_Source\PSoC5/lcd.c ****     *  None.
 549:.\Generated_Source\PSoC5/lcd.c ****     *
 550:.\Generated_Source\PSoC5/lcd.c ****     *******************************************************************************/
 551:.\Generated_Source\PSoC5/lcd.c ****     void lcd_PrintHexUint16(uint16 value) 
 552:.\Generated_Source\PSoC5/lcd.c ****     {
 947              		.loc 1 552 0
 948              		.cfi_startproc
 949              		@ args = 0, pretend = 0, frame = 8
 950              		@ frame_needed = 1, uses_anonymous_args = 0
 951 0000 80B5     		push	{r7, lr}
 952              	.LCFI35:
 953              		.cfi_def_cfa_offset 8
 954 0002 82B0     		sub	sp, sp, #8
 955              	.LCFI36:
 956              		.cfi_def_cfa_offset 16
 957 0004 00AF     		add	r7, sp, #0
 958              		.cfi_offset 14, -4
 959              		.cfi_offset 7, -8
 960              	.LCFI37:
 961              		.cfi_def_cfa_register 7
 962 0006 0346     		mov	r3, r0
 963 0008 FB80     		strh	r3, [r7, #6]	@ movhi
 553:.\Generated_Source\PSoC5/lcd.c ****         lcd_PrintHexUint8(value >> lcd_U16_UPPER_BYTE_SHIFT);
 964              		.loc 1 553 0
 965 000a FB88     		ldrh	r3, [r7, #6]
 966 000c 4FEA1323 		lsr	r3, r3, #8
 967 0010 9BB2     		uxth	r3, r3
 968 0012 DBB2     		uxtb	r3, r3
 969 0014 1846     		mov	r0, r3
 970 0016 FFF7FEFF 		bl	lcd_PrintHexUint8
 554:.\Generated_Source\PSoC5/lcd.c ****         lcd_PrintHexUint8(value & lcd_U16_LOWER_BYTE_MASK);
 971              		.loc 1 554 0
 972 001a FB88     		ldrh	r3, [r7, #6]	@ movhi
 973 001c DBB2     		uxtb	r3, r3
 974 001e 1846     		mov	r0, r3
 975 0020 FFF7FEFF 		bl	lcd_PrintHexUint8
 555:.\Generated_Source\PSoC5/lcd.c ****     }
 976              		.loc 1 555 0
 977 0024 07F10807 		add	r7, r7, #8
ARM GAS  C:\Users\arh\AppData\Local\Temp\ccfGlav7.s 			page 28


 978 0028 BD46     		mov	sp, r7
 979 002a 80BD     		pop	{r7, pc}
 980              		.cfi_endproc
 981              	.LFE13:
 982              		.size	lcd_PrintHexUint16, .-lcd_PrintHexUint16
 983              		.section	.text.lcd_PrintDecUint16,"ax",%progbits
 984              		.align	2
 985              		.global	lcd_PrintDecUint16
 986              		.thumb
 987              		.thumb_func
 988              		.type	lcd_PrintDecUint16, %function
 989              	lcd_PrintDecUint16:
 990              	.LFB14:
 556:.\Generated_Source\PSoC5/lcd.c **** 
 557:.\Generated_Source\PSoC5/lcd.c **** 
 558:.\Generated_Source\PSoC5/lcd.c ****     /*******************************************************************************
 559:.\Generated_Source\PSoC5/lcd.c ****     *  Function Name: lcd_PrintDecUint16
 560:.\Generated_Source\PSoC5/lcd.c ****     ********************************************************************************
 561:.\Generated_Source\PSoC5/lcd.c ****     *
 562:.\Generated_Source\PSoC5/lcd.c ****     * Summary:
 563:.\Generated_Source\PSoC5/lcd.c ****     *  Print an uint32 value as a left-justified decimal value.
 564:.\Generated_Source\PSoC5/lcd.c ****     *
 565:.\Generated_Source\PSoC5/lcd.c ****     * Parameters:
 566:.\Generated_Source\PSoC5/lcd.c ****     *  value:  The byte to be printed out as ASCII characters.
 567:.\Generated_Source\PSoC5/lcd.c ****     *
 568:.\Generated_Source\PSoC5/lcd.c ****     * Return:
 569:.\Generated_Source\PSoC5/lcd.c ****     *  None.
 570:.\Generated_Source\PSoC5/lcd.c ****     *
 571:.\Generated_Source\PSoC5/lcd.c ****     *******************************************************************************/
 572:.\Generated_Source\PSoC5/lcd.c ****     void lcd_PrintDecUint16(uint16 value) 
 573:.\Generated_Source\PSoC5/lcd.c ****     {
 991              		.loc 1 573 0
 992              		.cfi_startproc
 993              		@ args = 0, pretend = 0, frame = 24
 994              		@ frame_needed = 1, uses_anonymous_args = 0
 995 0000 80B5     		push	{r7, lr}
 996              	.LCFI38:
 997              		.cfi_def_cfa_offset 8
 998 0002 86B0     		sub	sp, sp, #24
 999              	.LCFI39:
 1000              		.cfi_def_cfa_offset 32
 1001 0004 00AF     		add	r7, sp, #0
 1002              		.cfi_offset 14, -4
 1003              		.cfi_offset 7, -8
 1004              	.LCFI40:
 1005              		.cfi_def_cfa_register 7
 1006 0006 0346     		mov	r3, r0
 1007 0008 FB80     		strh	r3, [r7, #6]	@ movhi
 574:.\Generated_Source\PSoC5/lcd.c **** 
 575:.\Generated_Source\PSoC5/lcd.c ****         char8 number[lcd_NUMBER_OF_REMAINDERS];
 576:.\Generated_Source\PSoC5/lcd.c ****         char8 temp[lcd_NUMBER_OF_REMAINDERS];
 577:.\Generated_Source\PSoC5/lcd.c **** 
 578:.\Generated_Source\PSoC5/lcd.c ****         uint8 index = 0u;
 1008              		.loc 1 578 0
 1009 000a 4FF00003 		mov	r3, #0
 1010 000e BB75     		strb	r3, [r7, #22]
 579:.\Generated_Source\PSoC5/lcd.c ****         uint8 numDigits = 0u;
ARM GAS  C:\Users\arh\AppData\Local\Temp\ccfGlav7.s 			page 29


 1011              		.loc 1 579 0
 1012 0010 4FF00003 		mov	r3, #0
 1013 0014 FB75     		strb	r3, [r7, #23]
 580:.\Generated_Source\PSoC5/lcd.c **** 
 581:.\Generated_Source\PSoC5/lcd.c **** 
 582:.\Generated_Source\PSoC5/lcd.c ****         /* Load these in reverse order */
 583:.\Generated_Source\PSoC5/lcd.c ****         while(value >= lcd_TEN)
 1014              		.loc 1 583 0
 1015 0016 2AE0     		b	.L40
 1016              	.L41:
 584:.\Generated_Source\PSoC5/lcd.c ****         {
 585:.\Generated_Source\PSoC5/lcd.c ****             temp[index] = (value % lcd_TEN) + '0';
 1017              		.loc 1 585 0
 1018 0018 B87D     		ldrb	r0, [r7, #22]	@ zero_extendqisi2
 1019 001a FA88     		ldrh	r2, [r7, #6]
 1020 001c 4CF6CD43 		movw	r3, #:lower16:-858993459
 1021 0020 CCF6CC43 		movt	r3, #:upper16:-858993459
 1022 0024 A3FB0213 		umull	r1, r3, r3, r2
 1023 0028 4FEAD301 		lsr	r1, r3, #3
 1024 002c 0B46     		mov	r3, r1
 1025 002e 4FEA8303 		lsl	r3, r3, #2
 1026 0032 0B44     		add	r3, r3, r1
 1027 0034 4FEA4303 		lsl	r3, r3, #1
 1028 0038 C3EB0203 		rsb	r3, r3, r2
 1029 003c 9BB2     		uxth	r3, r3
 1030 003e DBB2     		uxtb	r3, r3
 1031 0040 03F13003 		add	r3, r3, #48
 1032 0044 DAB2     		uxtb	r2, r3
 1033 0046 07F11801 		add	r1, r7, #24
 1034 004a 01EB0003 		add	r3, r1, r0
 1035 004e 03F8102C 		strb	r2, [r3, #-16]
 586:.\Generated_Source\PSoC5/lcd.c ****             value /= lcd_TEN;
 1036              		.loc 1 586 0
 1037 0052 FA88     		ldrh	r2, [r7, #6]
 1038 0054 4CF6CD43 		movw	r3, #:lower16:-858993459
 1039 0058 CCF6CC43 		movt	r3, #:upper16:-858993459
 1040 005c A3FB0213 		umull	r1, r3, r3, r2
 1041 0060 4FEAD303 		lsr	r3, r3, #3
 1042 0064 FB80     		strh	r3, [r7, #6]	@ movhi
 587:.\Generated_Source\PSoC5/lcd.c ****             index++;
 1043              		.loc 1 587 0
 1044 0066 BB7D     		ldrb	r3, [r7, #22]
 1045 0068 03F10103 		add	r3, r3, #1
 1046 006c BB75     		strb	r3, [r7, #22]
 1047              	.L40:
 1048              		.loc 1 583 0
 1049 006e FB88     		ldrh	r3, [r7, #6]
 1050 0070 092B     		cmp	r3, #9
 1051 0072 D1D8     		bhi	.L41
 588:.\Generated_Source\PSoC5/lcd.c ****         }
 589:.\Generated_Source\PSoC5/lcd.c **** 
 590:.\Generated_Source\PSoC5/lcd.c ****         temp[index] = (value % lcd_TEN) + '0';
 1052              		.loc 1 590 0
 1053 0074 B87D     		ldrb	r0, [r7, #22]	@ zero_extendqisi2
 1054 0076 FA88     		ldrh	r2, [r7, #6]
 1055 0078 4CF6CD43 		movw	r3, #:lower16:-858993459
 1056 007c CCF6CC43 		movt	r3, #:upper16:-858993459
ARM GAS  C:\Users\arh\AppData\Local\Temp\ccfGlav7.s 			page 30


 1057 0080 A3FB0213 		umull	r1, r3, r3, r2
 1058 0084 4FEAD301 		lsr	r1, r3, #3
 1059 0088 0B46     		mov	r3, r1
 1060 008a 4FEA8303 		lsl	r3, r3, #2
 1061 008e 0B44     		add	r3, r3, r1
 1062 0090 4FEA4303 		lsl	r3, r3, #1
 1063 0094 C3EB0203 		rsb	r3, r3, r2
 1064 0098 9BB2     		uxth	r3, r3
 1065 009a DBB2     		uxtb	r3, r3
 1066 009c 03F13003 		add	r3, r3, #48
 1067 00a0 DAB2     		uxtb	r2, r3
 1068 00a2 07F11801 		add	r1, r7, #24
 1069 00a6 01EB0003 		add	r3, r1, r0
 1070 00aa 03F8102C 		strb	r2, [r3, #-16]
 591:.\Generated_Source\PSoC5/lcd.c ****         numDigits = index;
 1071              		.loc 1 591 0
 1072 00ae BB7D     		ldrb	r3, [r7, #22]
 1073 00b0 FB75     		strb	r3, [r7, #23]
 592:.\Generated_Source\PSoC5/lcd.c **** 
 593:.\Generated_Source\PSoC5/lcd.c ****         /* While index is greater than or equal to zero */
 594:.\Generated_Source\PSoC5/lcd.c ****         while (index != 0xFFu)
 1074              		.loc 1 594 0
 1075 00b2 12E0     		b	.L42
 1076              	.L43:
 595:.\Generated_Source\PSoC5/lcd.c ****         {
 596:.\Generated_Source\PSoC5/lcd.c ****             number[numDigits - index] = temp[index];
 1077              		.loc 1 596 0
 1078 00b4 FA7D     		ldrb	r2, [r7, #23]	@ zero_extendqisi2
 1079 00b6 BB7D     		ldrb	r3, [r7, #22]	@ zero_extendqisi2
 1080 00b8 C3EB0203 		rsb	r3, r3, r2
 1081 00bc BA7D     		ldrb	r2, [r7, #22]	@ zero_extendqisi2
 1082 00be 07F11801 		add	r1, r7, #24
 1083 00c2 0A44     		add	r2, r1, r2
 1084 00c4 12F8102C 		ldrb	r2, [r2, #-16]	@ zero_extendqisi2
 1085 00c8 07F11801 		add	r1, r7, #24
 1086 00cc 0B44     		add	r3, r1, r3
 1087 00ce 03F8082C 		strb	r2, [r3, #-8]
 597:.\Generated_Source\PSoC5/lcd.c ****             index--;
 1088              		.loc 1 597 0
 1089 00d2 BB7D     		ldrb	r3, [r7, #22]
 1090 00d4 03F1FF33 		add	r3, r3, #-1
 1091 00d8 BB75     		strb	r3, [r7, #22]
 1092              	.L42:
 1093              		.loc 1 594 0
 1094 00da BB7D     		ldrb	r3, [r7, #22]	@ zero_extendqisi2
 1095 00dc FF2B     		cmp	r3, #255
 1096 00de E9D1     		bne	.L43
 598:.\Generated_Source\PSoC5/lcd.c ****         }
 599:.\Generated_Source\PSoC5/lcd.c **** 
 600:.\Generated_Source\PSoC5/lcd.c ****         /* Null Termination */
 601:.\Generated_Source\PSoC5/lcd.c ****         number[numDigits + 1u] = (char8) 0;
 1097              		.loc 1 601 0
 1098 00e0 FB7D     		ldrb	r3, [r7, #23]	@ zero_extendqisi2
 1099 00e2 03F10103 		add	r3, r3, #1
 1100 00e6 07F11802 		add	r2, r7, #24
 1101 00ea 1344     		add	r3, r2, r3
 1102 00ec 4FF00002 		mov	r2, #0
ARM GAS  C:\Users\arh\AppData\Local\Temp\ccfGlav7.s 			page 31


 1103 00f0 03F8082C 		strb	r2, [r3, #-8]
 602:.\Generated_Source\PSoC5/lcd.c **** 
 603:.\Generated_Source\PSoC5/lcd.c ****         /* Print out number */
 604:.\Generated_Source\PSoC5/lcd.c ****         lcd_PrintString(number);
 1104              		.loc 1 604 0
 1105 00f4 07F11003 		add	r3, r7, #16
 1106 00f8 1846     		mov	r0, r3
 1107 00fa FFF7FEFF 		bl	lcd_PrintString
 605:.\Generated_Source\PSoC5/lcd.c ****     }
 1108              		.loc 1 605 0
 1109 00fe 07F11807 		add	r7, r7, #24
 1110 0102 BD46     		mov	sp, r7
 1111 0104 80BD     		pop	{r7, pc}
 1112              		.cfi_endproc
 1113              	.LFE14:
 1114              		.size	lcd_PrintDecUint16, .-lcd_PrintDecUint16
 1115 0106 00BF     		.text
 1116              	.Letext0:
 1117              		.section	.debug_loc,"",%progbits
 1118              	.Ldebug_loc0:
 1119              	.LLST0:
 1120 0000 00000000 		.4byte	.LFB0
 1121 0004 02000000 		.4byte	.LCFI0
 1122 0008 0100     		.2byte	0x1
 1123 000a 5D       		.byte	0x5d
 1124 000b 02000000 		.4byte	.LCFI0
 1125 000f 04000000 		.4byte	.LCFI1
 1126 0013 0200     		.2byte	0x2
 1127 0015 7D       		.byte	0x7d
 1128 0016 08       		.sleb128 8
 1129 0017 04000000 		.4byte	.LCFI1
 1130 001b 8E000000 		.4byte	.LFE0
 1131 001f 0200     		.2byte	0x2
 1132 0021 77       		.byte	0x77
 1133 0022 08       		.sleb128 8
 1134 0023 00000000 		.4byte	0x0
 1135 0027 00000000 		.4byte	0x0
 1136              	.LLST1:
 1137 002b 00000000 		.4byte	.LFB1
 1138 002f 02000000 		.4byte	.LCFI2
 1139 0033 0100     		.2byte	0x1
 1140 0035 5D       		.byte	0x5d
 1141 0036 02000000 		.4byte	.LCFI2
 1142 003a 04000000 		.4byte	.LCFI3
 1143 003e 0200     		.2byte	0x2
 1144 0040 7D       		.byte	0x7d
 1145 0041 08       		.sleb128 8
 1146 0042 04000000 		.4byte	.LCFI3
 1147 0046 1C000000 		.4byte	.LFE1
 1148 004a 0200     		.2byte	0x2
 1149 004c 77       		.byte	0x77
 1150 004d 08       		.sleb128 8
 1151 004e 00000000 		.4byte	0x0
 1152 0052 00000000 		.4byte	0x0
 1153              	.LLST2:
 1154 0056 00000000 		.4byte	.LFB2
 1155 005a 02000000 		.4byte	.LCFI4
ARM GAS  C:\Users\arh\AppData\Local\Temp\ccfGlav7.s 			page 32


 1156 005e 0100     		.2byte	0x1
 1157 0060 5D       		.byte	0x5d
 1158 0061 02000000 		.4byte	.LCFI4
 1159 0065 04000000 		.4byte	.LCFI5
 1160 0069 0200     		.2byte	0x2
 1161 006b 7D       		.byte	0x7d
 1162 006c 08       		.sleb128 8
 1163 006d 04000000 		.4byte	.LCFI5
 1164 0071 2A000000 		.4byte	.LFE2
 1165 0075 0200     		.2byte	0x2
 1166 0077 77       		.byte	0x77
 1167 0078 08       		.sleb128 8
 1168 0079 00000000 		.4byte	0x0
 1169 007d 00000000 		.4byte	0x0
 1170              	.LLST3:
 1171 0081 00000000 		.4byte	.LFB3
 1172 0085 02000000 		.4byte	.LCFI6
 1173 0089 0100     		.2byte	0x1
 1174 008b 5D       		.byte	0x5d
 1175 008c 02000000 		.4byte	.LCFI6
 1176 0090 04000000 		.4byte	.LCFI7
 1177 0094 0200     		.2byte	0x2
 1178 0096 7D       		.byte	0x7d
 1179 0097 08       		.sleb128 8
 1180 0098 04000000 		.4byte	.LCFI7
 1181 009c 1C000000 		.4byte	.LFE3
 1182 00a0 0200     		.2byte	0x2
 1183 00a2 77       		.byte	0x77
 1184 00a3 08       		.sleb128 8
 1185 00a4 00000000 		.4byte	0x0
 1186 00a8 00000000 		.4byte	0x0
 1187              	.LLST4:
 1188 00ac 00000000 		.4byte	.LFB4
 1189 00b0 02000000 		.4byte	.LCFI8
 1190 00b4 0100     		.2byte	0x1
 1191 00b6 5D       		.byte	0x5d
 1192 00b7 02000000 		.4byte	.LCFI8
 1193 00bb 04000000 		.4byte	.LCFI9
 1194 00bf 0200     		.2byte	0x2
 1195 00c1 7D       		.byte	0x7d
 1196 00c2 08       		.sleb128 8
 1197 00c3 04000000 		.4byte	.LCFI9
 1198 00c7 06000000 		.4byte	.LCFI10
 1199 00cb 0200     		.2byte	0x2
 1200 00cd 7D       		.byte	0x7d
 1201 00ce 10       		.sleb128 16
 1202 00cf 06000000 		.4byte	.LCFI10
 1203 00d3 72000000 		.4byte	.LFE4
 1204 00d7 0200     		.2byte	0x2
 1205 00d9 77       		.byte	0x77
 1206 00da 10       		.sleb128 16
 1207 00db 00000000 		.4byte	0x0
 1208 00df 00000000 		.4byte	0x0
 1209              	.LLST5:
 1210 00e3 00000000 		.4byte	.LFB5
 1211 00e7 02000000 		.4byte	.LCFI11
 1212 00eb 0100     		.2byte	0x1
ARM GAS  C:\Users\arh\AppData\Local\Temp\ccfGlav7.s 			page 33


 1213 00ed 5D       		.byte	0x5d
 1214 00ee 02000000 		.4byte	.LCFI11
 1215 00f2 04000000 		.4byte	.LCFI12
 1216 00f6 0200     		.2byte	0x2
 1217 00f8 7D       		.byte	0x7d
 1218 00f9 08       		.sleb128 8
 1219 00fa 04000000 		.4byte	.LCFI12
 1220 00fe 06000000 		.4byte	.LCFI13
 1221 0102 0200     		.2byte	0x2
 1222 0104 7D       		.byte	0x7d
 1223 0105 18       		.sleb128 24
 1224 0106 06000000 		.4byte	.LCFI13
 1225 010a 3E000000 		.4byte	.LFE5
 1226 010e 0200     		.2byte	0x2
 1227 0110 77       		.byte	0x77
 1228 0111 18       		.sleb128 24
 1229 0112 00000000 		.4byte	0x0
 1230 0116 00000000 		.4byte	0x0
 1231              	.LLST6:
 1232 011a 00000000 		.4byte	.LFB6
 1233 011e 02000000 		.4byte	.LCFI14
 1234 0122 0100     		.2byte	0x1
 1235 0124 5D       		.byte	0x5d
 1236 0125 02000000 		.4byte	.LCFI14
 1237 0129 04000000 		.4byte	.LCFI15
 1238 012d 0200     		.2byte	0x2
 1239 012f 7D       		.byte	0x7d
 1240 0130 08       		.sleb128 8
 1241 0131 04000000 		.4byte	.LCFI15
 1242 0135 06000000 		.4byte	.LCFI16
 1243 0139 0200     		.2byte	0x2
 1244 013b 7D       		.byte	0x7d
 1245 013c 10       		.sleb128 16
 1246 013d 06000000 		.4byte	.LCFI16
 1247 0141 1A000000 		.4byte	.LFE6
 1248 0145 0200     		.2byte	0x2
 1249 0147 77       		.byte	0x77
 1250 0148 10       		.sleb128 16
 1251 0149 00000000 		.4byte	0x0
 1252 014d 00000000 		.4byte	0x0
 1253              	.LLST7:
 1254 0151 00000000 		.4byte	.LFB7
 1255 0155 02000000 		.4byte	.LCFI17
 1256 0159 0100     		.2byte	0x1
 1257 015b 5D       		.byte	0x5d
 1258 015c 02000000 		.4byte	.LCFI17
 1259 0160 04000000 		.4byte	.LCFI18
 1260 0164 0200     		.2byte	0x2
 1261 0166 7D       		.byte	0x7d
 1262 0167 08       		.sleb128 8
 1263 0168 04000000 		.4byte	.LCFI18
 1264 016c 06000000 		.4byte	.LCFI19
 1265 0170 0200     		.2byte	0x2
 1266 0172 7D       		.byte	0x7d
 1267 0173 18       		.sleb128 24
 1268 0174 06000000 		.4byte	.LCFI19
 1269 0178 36000000 		.4byte	.LFE7
ARM GAS  C:\Users\arh\AppData\Local\Temp\ccfGlav7.s 			page 34


 1270 017c 0200     		.2byte	0x2
 1271 017e 77       		.byte	0x77
 1272 017f 18       		.sleb128 24
 1273 0180 00000000 		.4byte	0x0
 1274 0184 00000000 		.4byte	0x0
 1275              	.LLST8:
 1276 0188 00000000 		.4byte	.LFB8
 1277 018c 02000000 		.4byte	.LCFI20
 1278 0190 0100     		.2byte	0x1
 1279 0192 5D       		.byte	0x5d
 1280 0193 02000000 		.4byte	.LCFI20
 1281 0197 04000000 		.4byte	.LCFI21
 1282 019b 0200     		.2byte	0x2
 1283 019d 7D       		.byte	0x7d
 1284 019e 08       		.sleb128 8
 1285 019f 04000000 		.4byte	.LCFI21
 1286 01a3 06000000 		.4byte	.LCFI22
 1287 01a7 0200     		.2byte	0x2
 1288 01a9 7D       		.byte	0x7d
 1289 01aa 18       		.sleb128 24
 1290 01ab 06000000 		.4byte	.LCFI22
 1291 01af 3E000000 		.4byte	.LFE8
 1292 01b3 0200     		.2byte	0x2
 1293 01b5 77       		.byte	0x77
 1294 01b6 18       		.sleb128 24
 1295 01b7 00000000 		.4byte	0x0
 1296 01bb 00000000 		.4byte	0x0
 1297              	.LLST9:
 1298 01bf 00000000 		.4byte	.LFB9
 1299 01c3 02000000 		.4byte	.LCFI23
 1300 01c7 0100     		.2byte	0x1
 1301 01c9 5D       		.byte	0x5d
 1302 01ca 02000000 		.4byte	.LCFI23
 1303 01ce 04000000 		.4byte	.LCFI24
 1304 01d2 0200     		.2byte	0x2
 1305 01d4 7D       		.byte	0x7d
 1306 01d5 08       		.sleb128 8
 1307 01d6 04000000 		.4byte	.LCFI24
 1308 01da 06000000 		.4byte	.LCFI25
 1309 01de 0200     		.2byte	0x2
 1310 01e0 7D       		.byte	0x7d
 1311 01e1 10       		.sleb128 16
 1312 01e2 06000000 		.4byte	.LCFI25
 1313 01e6 04020000 		.4byte	.LFE9
 1314 01ea 0200     		.2byte	0x2
 1315 01ec 77       		.byte	0x77
 1316 01ed 10       		.sleb128 16
 1317 01ee 00000000 		.4byte	0x0
 1318 01f2 00000000 		.4byte	0x0
 1319              	.LLST10:
 1320 01f6 00000000 		.4byte	.LFB10
 1321 01fa 02000000 		.4byte	.LCFI26
 1322 01fe 0100     		.2byte	0x1
 1323 0200 5D       		.byte	0x5d
 1324 0201 02000000 		.4byte	.LCFI26
 1325 0205 04000000 		.4byte	.LCFI27
 1326 0209 0200     		.2byte	0x2
ARM GAS  C:\Users\arh\AppData\Local\Temp\ccfGlav7.s 			page 35


 1327 020b 7D       		.byte	0x7d
 1328 020c 08       		.sleb128 8
 1329 020d 04000000 		.4byte	.LCFI27
 1330 0211 06000000 		.4byte	.LCFI28
 1331 0215 0200     		.2byte	0x2
 1332 0217 7D       		.byte	0x7d
 1333 0218 10       		.sleb128 16
 1334 0219 06000000 		.4byte	.LCFI28
 1335 021d AC000000 		.4byte	.LFE10
 1336 0221 0200     		.2byte	0x2
 1337 0223 77       		.byte	0x77
 1338 0224 10       		.sleb128 16
 1339 0225 00000000 		.4byte	0x0
 1340 0229 00000000 		.4byte	0x0
 1341              	.LLST11:
 1342 022d 00000000 		.4byte	.LFB11
 1343 0231 02000000 		.4byte	.LCFI29
 1344 0235 0100     		.2byte	0x1
 1345 0237 5D       		.byte	0x5d
 1346 0238 02000000 		.4byte	.LCFI29
 1347 023c 04000000 		.4byte	.LCFI30
 1348 0240 0200     		.2byte	0x2
 1349 0242 7D       		.byte	0x7d
 1350 0243 08       		.sleb128 8
 1351 0244 04000000 		.4byte	.LCFI30
 1352 0248 06000000 		.4byte	.LCFI31
 1353 024c 0200     		.2byte	0x2
 1354 024e 7D       		.byte	0x7d
 1355 024f 10       		.sleb128 16
 1356 0250 06000000 		.4byte	.LCFI31
 1357 0254 8C000000 		.4byte	.LFE11
 1358 0258 0200     		.2byte	0x2
 1359 025a 77       		.byte	0x77
 1360 025b 10       		.sleb128 16
 1361 025c 00000000 		.4byte	0x0
 1362 0260 00000000 		.4byte	0x0
 1363              	.LLST12:
 1364 0264 00000000 		.4byte	.LFB12
 1365 0268 02000000 		.4byte	.LCFI32
 1366 026c 0100     		.2byte	0x1
 1367 026e 5D       		.byte	0x5d
 1368 026f 02000000 		.4byte	.LCFI32
 1369 0273 04000000 		.4byte	.LCFI33
 1370 0277 0200     		.2byte	0x2
 1371 0279 7D       		.byte	0x7d
 1372 027a 08       		.sleb128 8
 1373 027b 04000000 		.4byte	.LCFI33
 1374 027f 06000000 		.4byte	.LCFI34
 1375 0283 0200     		.2byte	0x2
 1376 0285 7D       		.byte	0x7d
 1377 0286 10       		.sleb128 16
 1378 0287 06000000 		.4byte	.LCFI34
 1379 028b 42000000 		.4byte	.LFE12
 1380 028f 0200     		.2byte	0x2
 1381 0291 77       		.byte	0x77
 1382 0292 10       		.sleb128 16
 1383 0293 00000000 		.4byte	0x0
ARM GAS  C:\Users\arh\AppData\Local\Temp\ccfGlav7.s 			page 36


 1384 0297 00000000 		.4byte	0x0
 1385              	.LLST13:
 1386 029b 00000000 		.4byte	.LFB13
 1387 029f 02000000 		.4byte	.LCFI35
 1388 02a3 0100     		.2byte	0x1
 1389 02a5 5D       		.byte	0x5d
 1390 02a6 02000000 		.4byte	.LCFI35
 1391 02aa 04000000 		.4byte	.LCFI36
 1392 02ae 0200     		.2byte	0x2
 1393 02b0 7D       		.byte	0x7d
 1394 02b1 08       		.sleb128 8
 1395 02b2 04000000 		.4byte	.LCFI36
 1396 02b6 06000000 		.4byte	.LCFI37
 1397 02ba 0200     		.2byte	0x2
 1398 02bc 7D       		.byte	0x7d
 1399 02bd 10       		.sleb128 16
 1400 02be 06000000 		.4byte	.LCFI37
 1401 02c2 2C000000 		.4byte	.LFE13
 1402 02c6 0200     		.2byte	0x2
 1403 02c8 77       		.byte	0x77
 1404 02c9 10       		.sleb128 16
 1405 02ca 00000000 		.4byte	0x0
 1406 02ce 00000000 		.4byte	0x0
 1407              	.LLST14:
 1408 02d2 00000000 		.4byte	.LFB14
 1409 02d6 02000000 		.4byte	.LCFI38
 1410 02da 0100     		.2byte	0x1
 1411 02dc 5D       		.byte	0x5d
 1412 02dd 02000000 		.4byte	.LCFI38
 1413 02e1 04000000 		.4byte	.LCFI39
 1414 02e5 0200     		.2byte	0x2
 1415 02e7 7D       		.byte	0x7d
 1416 02e8 08       		.sleb128 8
 1417 02e9 04000000 		.4byte	.LCFI39
 1418 02ed 06000000 		.4byte	.LCFI40
 1419 02f1 0200     		.2byte	0x2
 1420 02f3 7D       		.byte	0x7d
 1421 02f4 20       		.sleb128 32
 1422 02f5 06000000 		.4byte	.LCFI40
 1423 02f9 06010000 		.4byte	.LFE14
 1424 02fd 0200     		.2byte	0x2
 1425 02ff 77       		.byte	0x77
 1426 0300 20       		.sleb128 32
 1427 0301 00000000 		.4byte	0x0
 1428 0305 00000000 		.4byte	0x0
 1429              		.file 2 ".\\Generated_Source\\PSoC5\\/cytypes.h"
 1430              		.section	.debug_info
 1431 0000 9A030000 		.4byte	0x39a
 1432 0004 0200     		.2byte	0x2
 1433 0006 00000000 		.4byte	.Ldebug_abbrev0
 1434 000a 04       		.byte	0x4
 1435 000b 01       		.uleb128 0x1
 1436 000c 9D010000 		.4byte	.LASF44
 1437 0010 01       		.byte	0x1
 1438 0011 C4010000 		.4byte	.LASF45
 1439 0015 31000000 		.4byte	.LASF46
 1440 0019 00000000 		.4byte	0x0
ARM GAS  C:\Users\arh\AppData\Local\Temp\ccfGlav7.s 			page 37


 1441 001d 00000000 		.4byte	0x0
 1442 0021 00000000 		.4byte	.Ldebug_ranges0+0x0
 1443 0025 00000000 		.4byte	.Ldebug_line0
 1444 0029 02       		.uleb128 0x2
 1445 002a 01       		.byte	0x1
 1446 002b 06       		.byte	0x6
 1447 002c 06020000 		.4byte	.LASF0
 1448 0030 02       		.uleb128 0x2
 1449 0031 01       		.byte	0x1
 1450 0032 08       		.byte	0x8
 1451 0033 C0000000 		.4byte	.LASF1
 1452 0037 02       		.uleb128 0x2
 1453 0038 02       		.byte	0x2
 1454 0039 05       		.byte	0x5
 1455 003a 7B000000 		.4byte	.LASF2
 1456 003e 02       		.uleb128 0x2
 1457 003f 02       		.byte	0x2
 1458 0040 07       		.byte	0x7
 1459 0041 68000000 		.4byte	.LASF3
 1460 0045 03       		.uleb128 0x3
 1461 0046 04       		.byte	0x4
 1462 0047 05       		.byte	0x5
 1463 0048 696E7400 		.ascii	"int\000"
 1464 004c 02       		.uleb128 0x2
 1465 004d 04       		.byte	0x4
 1466 004e 07       		.byte	0x7
 1467 004f 42010000 		.4byte	.LASF4
 1468 0053 02       		.uleb128 0x2
 1469 0054 08       		.byte	0x8
 1470 0055 05       		.byte	0x5
 1471 0056 00000000 		.4byte	.LASF5
 1472 005a 02       		.uleb128 0x2
 1473 005b 08       		.byte	0x8
 1474 005c 07       		.byte	0x7
 1475 005d 4F010000 		.4byte	.LASF6
 1476 0061 02       		.uleb128 0x2
 1477 0062 04       		.byte	0x4
 1478 0063 05       		.byte	0x5
 1479 0064 E3010000 		.4byte	.LASF7
 1480 0068 04       		.uleb128 0x4
 1481 0069 04       		.byte	0x4
 1482 006a 07       		.byte	0x7
 1483 006b 02       		.uleb128 0x2
 1484 006c 04       		.byte	0x4
 1485 006d 07       		.byte	0x7
 1486 006e 0C010000 		.4byte	.LASF8
 1487 0072 02       		.uleb128 0x2
 1488 0073 01       		.byte	0x1
 1489 0074 08       		.byte	0x8
 1490 0075 A9010000 		.4byte	.LASF9
 1491 0079 05       		.uleb128 0x5
 1492 007a CE000000 		.4byte	.LASF10
 1493 007e 02       		.byte	0x2
 1494 007f 5D       		.byte	0x5d
 1495 0080 72000000 		.4byte	0x72
 1496 0084 05       		.uleb128 0x5
 1497 0085 FB000000 		.4byte	.LASF11
ARM GAS  C:\Users\arh\AppData\Local\Temp\ccfGlav7.s 			page 38


 1498 0089 02       		.byte	0x2
 1499 008a 60       		.byte	0x60
 1500 008b 30000000 		.4byte	0x30
 1501 008f 05       		.uleb128 0x5
 1502 0090 2B010000 		.4byte	.LASF12
 1503 0094 02       		.byte	0x2
 1504 0095 61       		.byte	0x61
 1505 0096 3E000000 		.4byte	0x3e
 1506 009a 06       		.uleb128 0x6
 1507 009b 01       		.byte	0x1
 1508 009c 7E010000 		.4byte	.LASF13
 1509 00a0 01       		.byte	0x1
 1510 00a1 39       		.byte	0x39
 1511 00a2 01       		.byte	0x1
 1512 00a3 00000000 		.4byte	.LFB0
 1513 00a7 8E000000 		.4byte	.LFE0
 1514 00ab 00000000 		.4byte	.LLST0
 1515 00af 06       		.uleb128 0x6
 1516 00b0 01       		.byte	0x1
 1517 00b1 01010000 		.4byte	.LASF14
 1518 00b5 01       		.byte	0x1
 1519 00b6 6A       		.byte	0x6a
 1520 00b7 01       		.byte	0x1
 1521 00b8 00000000 		.4byte	.LFB1
 1522 00bc 1C000000 		.4byte	.LFE1
 1523 00c0 2B000000 		.4byte	.LLST1
 1524 00c4 06       		.uleb128 0x6
 1525 00c5 01       		.byte	0x1
 1526 00c6 DE000000 		.4byte	.LASF15
 1527 00ca 01       		.byte	0x1
 1528 00cb 8B       		.byte	0x8b
 1529 00cc 01       		.byte	0x1
 1530 00cd 00000000 		.4byte	.LFB2
 1531 00d1 2A000000 		.4byte	.LFE2
 1532 00d5 56000000 		.4byte	.LLST2
 1533 00d9 06       		.uleb128 0x6
 1534 00da 01       		.byte	0x1
 1535 00db FD010000 		.4byte	.LASF16
 1536 00df 01       		.byte	0x1
 1537 00e0 AA       		.byte	0xaa
 1538 00e1 01       		.byte	0x1
 1539 00e2 00000000 		.4byte	.LFB3
 1540 00e6 1C000000 		.4byte	.LFE3
 1541 00ea 81000000 		.4byte	.LLST3
 1542 00ee 07       		.uleb128 0x7
 1543 00ef 01       		.byte	0x1
 1544 00f0 1E010000 		.4byte	.LASF18
 1545 00f4 01       		.byte	0x1
 1546 00f5 C6       		.byte	0xc6
 1547 00f6 01       		.byte	0x1
 1548 00f7 00000000 		.4byte	.LFB4
 1549 00fb 72000000 		.4byte	.LFE4
 1550 00ff AC000000 		.4byte	.LLST4
 1551 0103 24010000 		.4byte	0x124
 1552 0107 08       		.uleb128 0x8
 1553 0108 726F7700 		.ascii	"row\000"
 1554 010c 01       		.byte	0x1
ARM GAS  C:\Users\arh\AppData\Local\Temp\ccfGlav7.s 			page 39


 1555 010d C6       		.byte	0xc6
 1556 010e 84000000 		.4byte	0x84
 1557 0112 02       		.byte	0x2
 1558 0113 91       		.byte	0x91
 1559 0114 77       		.sleb128 -9
 1560 0115 09       		.uleb128 0x9
 1561 0116 B9000000 		.4byte	.LASF17
 1562 011a 01       		.byte	0x1
 1563 011b C6       		.byte	0xc6
 1564 011c 84000000 		.4byte	0x84
 1565 0120 02       		.byte	0x2
 1566 0121 91       		.byte	0x91
 1567 0122 76       		.sleb128 -10
 1568 0123 00       		.byte	0x0
 1569 0124 07       		.uleb128 0x7
 1570 0125 01       		.byte	0x1
 1571 0126 32010000 		.4byte	.LASF19
 1572 012a 01       		.byte	0x1
 1573 012b EB       		.byte	0xeb
 1574 012c 01       		.byte	0x1
 1575 012d 00000000 		.4byte	.LFB5
 1576 0131 3E000000 		.4byte	.LFE5
 1577 0135 E3000000 		.4byte	.LLST5
 1578 0139 68010000 		.4byte	0x168
 1579 013d 09       		.uleb128 0x9
 1580 013e B2000000 		.4byte	.LASF20
 1581 0142 01       		.byte	0x1
 1582 0143 EB       		.byte	0xeb
 1583 0144 68010000 		.4byte	0x168
 1584 0148 02       		.byte	0x2
 1585 0149 91       		.byte	0x91
 1586 014a 6C       		.sleb128 -20
 1587 014b 0A       		.uleb128 0xa
 1588 014c 85000000 		.4byte	.LASF21
 1589 0150 01       		.byte	0x1
 1590 0151 ED       		.byte	0xed
 1591 0152 84000000 		.4byte	0x84
 1592 0156 02       		.byte	0x2
 1593 0157 91       		.byte	0x91
 1594 0158 76       		.sleb128 -10
 1595 0159 0A       		.uleb128 0xa
 1596 015a BC010000 		.4byte	.LASF22
 1597 015e 01       		.byte	0x1
 1598 015f EE       		.byte	0xee
 1599 0160 79000000 		.4byte	0x79
 1600 0164 02       		.byte	0x2
 1601 0165 91       		.byte	0x91
 1602 0166 77       		.sleb128 -9
 1603 0167 00       		.byte	0x0
 1604 0168 0B       		.uleb128 0xb
 1605 0169 04       		.byte	0x4
 1606 016a 79000000 		.4byte	0x79
 1607 016e 0C       		.uleb128 0xc
 1608 016f 01       		.byte	0x1
 1609 0170 66010000 		.4byte	.LASF23
 1610 0174 01       		.byte	0x1
 1611 0175 0A01     		.2byte	0x10a
ARM GAS  C:\Users\arh\AppData\Local\Temp\ccfGlav7.s 			page 40


 1612 0177 01       		.byte	0x1
 1613 0178 00000000 		.4byte	.LFB6
 1614 017c 1A000000 		.4byte	.LFE6
 1615 0180 1A010000 		.4byte	.LLST6
 1616 0184 98010000 		.4byte	0x198
 1617 0188 0D       		.uleb128 0xd
 1618 0189 15000000 		.4byte	.LASF24
 1619 018d 01       		.byte	0x1
 1620 018e 0A01     		.2byte	0x10a
 1621 0190 79000000 		.4byte	0x79
 1622 0194 02       		.byte	0x2
 1623 0195 91       		.byte	0x91
 1624 0196 77       		.sleb128 -9
 1625 0197 00       		.byte	0x0
 1626 0198 0C       		.uleb128 0xc
 1627 0199 01       		.byte	0x1
 1628 019a E8000000 		.4byte	.LASF25
 1629 019e 01       		.byte	0x1
 1630 019f 1E01     		.2byte	0x11e
 1631 01a1 01       		.byte	0x1
 1632 01a2 00000000 		.4byte	.LFB7
 1633 01a6 36000000 		.4byte	.LFE7
 1634 01aa 51010000 		.4byte	.LLST7
 1635 01ae D1010000 		.4byte	0x1d1
 1636 01b2 0D       		.uleb128 0xd
 1637 01b3 12020000 		.4byte	.LASF26
 1638 01b7 01       		.byte	0x1
 1639 01b8 1E01     		.2byte	0x11e
 1640 01ba 84000000 		.4byte	0x84
 1641 01be 02       		.byte	0x2
 1642 01bf 91       		.byte	0x91
 1643 01c0 6F       		.sleb128 -17
 1644 01c1 0E       		.uleb128 0xe
 1645 01c2 0E000000 		.4byte	.LASF27
 1646 01c6 01       		.byte	0x1
 1647 01c7 2001     		.2byte	0x120
 1648 01c9 84000000 		.4byte	0x84
 1649 01cd 02       		.byte	0x2
 1650 01ce 91       		.byte	0x91
 1651 01cf 77       		.sleb128 -9
 1652 01d0 00       		.byte	0x0
 1653 01d1 0C       		.uleb128 0xc
 1654 01d2 01       		.byte	0x1
 1655 01d3 EC010000 		.4byte	.LASF28
 1656 01d7 01       		.byte	0x1
 1657 01d8 3C01     		.2byte	0x13c
 1658 01da 01       		.byte	0x1
 1659 01db 00000000 		.4byte	.LFB8
 1660 01df 3E000000 		.4byte	.LFE8
 1661 01e3 88010000 		.4byte	.LLST8
 1662 01e7 0A020000 		.4byte	0x20a
 1663 01eb 0D       		.uleb128 0xd
 1664 01ec 38020000 		.4byte	.LASF29
 1665 01f0 01       		.byte	0x1
 1666 01f1 3C01     		.2byte	0x13c
 1667 01f3 84000000 		.4byte	0x84
 1668 01f7 02       		.byte	0x2
ARM GAS  C:\Users\arh\AppData\Local\Temp\ccfGlav7.s 			page 41


 1669 01f8 91       		.byte	0x91
 1670 01f9 6F       		.sleb128 -17
 1671 01fa 0E       		.uleb128 0xe
 1672 01fb 0E000000 		.4byte	.LASF27
 1673 01ff 01       		.byte	0x1
 1674 0200 3E01     		.2byte	0x13e
 1675 0202 84000000 		.4byte	0x84
 1676 0206 02       		.byte	0x2
 1677 0207 91       		.byte	0x91
 1678 0208 77       		.sleb128 -9
 1679 0209 00       		.byte	0x0
 1680 020a 0C       		.uleb128 0xc
 1681 020b 01       		.byte	0x1
 1682 020c 72010000 		.4byte	.LASF30
 1683 0210 01       		.byte	0x1
 1684 0211 5F01     		.2byte	0x15f
 1685 0213 01       		.byte	0x1
 1686 0214 00000000 		.4byte	.LFB9
 1687 0218 04020000 		.4byte	.LFE9
 1688 021c BF010000 		.4byte	.LLST9
 1689 0220 34020000 		.4byte	0x234
 1690 0224 0E       		.uleb128 0xe
 1691 0225 1F000000 		.4byte	.LASF31
 1692 0229 01       		.byte	0x1
 1693 022a 6101     		.2byte	0x161
 1694 022c 84000000 		.4byte	0x84
 1695 0230 02       		.byte	0x2
 1696 0231 91       		.byte	0x91
 1697 0232 77       		.sleb128 -9
 1698 0233 00       		.byte	0x0
 1699 0234 0C       		.uleb128 0xc
 1700 0235 01       		.byte	0x1
 1701 0236 2B020000 		.4byte	.LASF32
 1702 023a 01       		.byte	0x1
 1703 023b C901     		.2byte	0x1c9
 1704 023d 01       		.byte	0x1
 1705 023e 00000000 		.4byte	.LFB10
 1706 0242 AC000000 		.4byte	.LFE10
 1707 0246 F6010000 		.4byte	.LLST10
 1708 024a 5E020000 		.4byte	0x25e
 1709 024e 0D       		.uleb128 0xd
 1710 024f 0E000000 		.4byte	.LASF27
 1711 0253 01       		.byte	0x1
 1712 0254 C901     		.2byte	0x1c9
 1713 0256 84000000 		.4byte	0x84
 1714 025a 02       		.byte	0x2
 1715 025b 91       		.byte	0x91
 1716 025c 77       		.sleb128 -9
 1717 025d 00       		.byte	0x0
 1718 025e 0C       		.uleb128 0xc
 1719 025f 01       		.byte	0x1
 1720 0260 8E010000 		.4byte	.LASF33
 1721 0264 01       		.byte	0x1
 1722 0265 EF01     		.2byte	0x1ef
 1723 0267 01       		.byte	0x1
 1724 0268 00000000 		.4byte	.LFB11
 1725 026c 8C000000 		.4byte	.LFE11
ARM GAS  C:\Users\arh\AppData\Local\Temp\ccfGlav7.s 			page 42


 1726 0270 2D020000 		.4byte	.LLST11
 1727 0274 88020000 		.4byte	0x288
 1728 0278 0D       		.uleb128 0xd
 1729 0279 0E000000 		.4byte	.LASF27
 1730 027d 01       		.byte	0x1
 1731 027e EF01     		.2byte	0x1ef
 1732 0280 84000000 		.4byte	0x84
 1733 0284 02       		.byte	0x2
 1734 0285 91       		.byte	0x91
 1735 0286 77       		.sleb128 -9
 1736 0287 00       		.byte	0x0
 1737 0288 0C       		.uleb128 0xc
 1738 0289 01       		.byte	0x1
 1739 028a A0000000 		.4byte	.LASF34
 1740 028e 01       		.byte	0x1
 1741 028f 1202     		.2byte	0x212
 1742 0291 01       		.byte	0x1
 1743 0292 00000000 		.4byte	.LFB12
 1744 0296 42000000 		.4byte	.LFE12
 1745 029a 64020000 		.4byte	.LLST12
 1746 029e B2020000 		.4byte	0x2b2
 1747 02a2 0D       		.uleb128 0xd
 1748 02a3 1F000000 		.4byte	.LASF31
 1749 02a7 01       		.byte	0x1
 1750 02a8 1202     		.2byte	0x212
 1751 02aa 84000000 		.4byte	0x84
 1752 02ae 02       		.byte	0x2
 1753 02af 91       		.byte	0x91
 1754 02b0 77       		.sleb128 -9
 1755 02b1 00       		.byte	0x0
 1756 02b2 0C       		.uleb128 0xc
 1757 02b3 01       		.byte	0x1
 1758 02b4 8D000000 		.4byte	.LASF35
 1759 02b8 01       		.byte	0x1
 1760 02b9 2702     		.2byte	0x227
 1761 02bb 01       		.byte	0x1
 1762 02bc 00000000 		.4byte	.LFB13
 1763 02c0 2C000000 		.4byte	.LFE13
 1764 02c4 9B020000 		.4byte	.LLST13
 1765 02c8 DC020000 		.4byte	0x2dc
 1766 02cc 0D       		.uleb128 0xd
 1767 02cd 1F000000 		.4byte	.LASF31
 1768 02d1 01       		.byte	0x1
 1769 02d2 2702     		.2byte	0x227
 1770 02d4 8F000000 		.4byte	0x8f
 1771 02d8 02       		.byte	0x2
 1772 02d9 91       		.byte	0x91
 1773 02da 76       		.sleb128 -10
 1774 02db 00       		.byte	0x0
 1775 02dc 0C       		.uleb128 0xc
 1776 02dd 01       		.byte	0x1
 1777 02de 18020000 		.4byte	.LASF36
 1778 02e2 01       		.byte	0x1
 1779 02e3 3C02     		.2byte	0x23c
 1780 02e5 01       		.byte	0x1
 1781 02e6 00000000 		.4byte	.LFB14
 1782 02ea 06010000 		.4byte	.LFE14
ARM GAS  C:\Users\arh\AppData\Local\Temp\ccfGlav7.s 			page 43


 1783 02ee D2020000 		.4byte	.LLST14
 1784 02f2 42030000 		.4byte	0x342
 1785 02f6 0D       		.uleb128 0xd
 1786 02f7 1F000000 		.4byte	.LASF31
 1787 02fb 01       		.byte	0x1
 1788 02fc 3C02     		.2byte	0x23c
 1789 02fe 8F000000 		.4byte	0x8f
 1790 0302 02       		.byte	0x2
 1791 0303 91       		.byte	0x91
 1792 0304 66       		.sleb128 -26
 1793 0305 0E       		.uleb128 0xe
 1794 0306 87010000 		.4byte	.LASF37
 1795 030a 01       		.byte	0x1
 1796 030b 3F02     		.2byte	0x23f
 1797 030d 42030000 		.4byte	0x342
 1798 0311 02       		.byte	0x2
 1799 0312 91       		.byte	0x91
 1800 0313 70       		.sleb128 -16
 1801 0314 0E       		.uleb128 0xe
 1802 0315 F6000000 		.4byte	.LASF38
 1803 0319 01       		.byte	0x1
 1804 031a 4002     		.2byte	0x240
 1805 031c 42030000 		.4byte	0x342
 1806 0320 02       		.byte	0x2
 1807 0321 91       		.byte	0x91
 1808 0322 68       		.sleb128 -24
 1809 0323 0E       		.uleb128 0xe
 1810 0324 AE010000 		.4byte	.LASF39
 1811 0328 01       		.byte	0x1
 1812 0329 4202     		.2byte	0x242
 1813 032b 84000000 		.4byte	0x84
 1814 032f 02       		.byte	0x2
 1815 0330 91       		.byte	0x91
 1816 0331 76       		.sleb128 -10
 1817 0332 0E       		.uleb128 0xe
 1818 0333 D4000000 		.4byte	.LASF40
 1819 0337 01       		.byte	0x1
 1820 0338 4302     		.2byte	0x243
 1821 033a 84000000 		.4byte	0x84
 1822 033e 02       		.byte	0x2
 1823 033f 91       		.byte	0x91
 1824 0340 77       		.sleb128 -9
 1825 0341 00       		.byte	0x0
 1826 0342 0F       		.uleb128 0xf
 1827 0343 79000000 		.4byte	0x79
 1828 0347 52030000 		.4byte	0x352
 1829 034b 10       		.uleb128 0x10
 1830 034c 68000000 		.4byte	0x68
 1831 0350 04       		.byte	0x4
 1832 0351 00       		.byte	0x0
 1833 0352 11       		.uleb128 0x11
 1834 0353 3E020000 		.4byte	.LASF41
 1835 0357 01       		.byte	0x1
 1836 0358 19       		.byte	0x19
 1837 0359 84000000 		.4byte	0x84
 1838 035d 01       		.byte	0x1
 1839 035e 05       		.byte	0x5
ARM GAS  C:\Users\arh\AppData\Local\Temp\ccfGlav7.s 			page 44


 1840 035f 03       		.byte	0x3
 1841 0360 00000000 		.4byte	lcd_enableState
 1842 0364 11       		.uleb128 0x11
 1843 0365 25000000 		.4byte	.LASF42
 1844 0369 01       		.byte	0x1
 1845 036a 1B       		.byte	0x1b
 1846 036b 84000000 		.4byte	0x84
 1847 036f 01       		.byte	0x1
 1848 0370 05       		.byte	0x5
 1849 0371 03       		.byte	0x3
 1850 0372 00000000 		.4byte	lcd_initVar
 1851 0376 0F       		.uleb128 0xf
 1852 0377 79000000 		.4byte	0x79
 1853 037b 86030000 		.4byte	0x386
 1854 037f 10       		.uleb128 0x10
 1855 0380 68000000 		.4byte	0x68
 1856 0384 0F       		.byte	0xf
 1857 0385 00       		.byte	0x0
 1858 0386 11       		.uleb128 0x11
 1859 0387 B4010000 		.4byte	.LASF43
 1860 038b 01       		.byte	0x1
 1861 038c 1D       		.byte	0x1d
 1862 038d 98030000 		.4byte	0x398
 1863 0391 01       		.byte	0x1
 1864 0392 05       		.byte	0x5
 1865 0393 03       		.byte	0x3
 1866 0394 00000000 		.4byte	lcd_hex
 1867 0398 12       		.uleb128 0x12
 1868 0399 76030000 		.4byte	0x376
 1869 039d 00       		.byte	0x0
 1870              		.section	.debug_abbrev
 1871 0000 01       		.uleb128 0x1
 1872 0001 11       		.uleb128 0x11
 1873 0002 01       		.byte	0x1
 1874 0003 25       		.uleb128 0x25
 1875 0004 0E       		.uleb128 0xe
 1876 0005 13       		.uleb128 0x13
 1877 0006 0B       		.uleb128 0xb
 1878 0007 03       		.uleb128 0x3
 1879 0008 0E       		.uleb128 0xe
 1880 0009 1B       		.uleb128 0x1b
 1881 000a 0E       		.uleb128 0xe
 1882 000b 11       		.uleb128 0x11
 1883 000c 01       		.uleb128 0x1
 1884 000d 52       		.uleb128 0x52
 1885 000e 01       		.uleb128 0x1
 1886 000f 55       		.uleb128 0x55
 1887 0010 06       		.uleb128 0x6
 1888 0011 10       		.uleb128 0x10
 1889 0012 06       		.uleb128 0x6
 1890 0013 00       		.byte	0x0
 1891 0014 00       		.byte	0x0
 1892 0015 02       		.uleb128 0x2
 1893 0016 24       		.uleb128 0x24
 1894 0017 00       		.byte	0x0
 1895 0018 0B       		.uleb128 0xb
 1896 0019 0B       		.uleb128 0xb
ARM GAS  C:\Users\arh\AppData\Local\Temp\ccfGlav7.s 			page 45


 1897 001a 3E       		.uleb128 0x3e
 1898 001b 0B       		.uleb128 0xb
 1899 001c 03       		.uleb128 0x3
 1900 001d 0E       		.uleb128 0xe
 1901 001e 00       		.byte	0x0
 1902 001f 00       		.byte	0x0
 1903 0020 03       		.uleb128 0x3
 1904 0021 24       		.uleb128 0x24
 1905 0022 00       		.byte	0x0
 1906 0023 0B       		.uleb128 0xb
 1907 0024 0B       		.uleb128 0xb
 1908 0025 3E       		.uleb128 0x3e
 1909 0026 0B       		.uleb128 0xb
 1910 0027 03       		.uleb128 0x3
 1911 0028 08       		.uleb128 0x8
 1912 0029 00       		.byte	0x0
 1913 002a 00       		.byte	0x0
 1914 002b 04       		.uleb128 0x4
 1915 002c 24       		.uleb128 0x24
 1916 002d 00       		.byte	0x0
 1917 002e 0B       		.uleb128 0xb
 1918 002f 0B       		.uleb128 0xb
 1919 0030 3E       		.uleb128 0x3e
 1920 0031 0B       		.uleb128 0xb
 1921 0032 00       		.byte	0x0
 1922 0033 00       		.byte	0x0
 1923 0034 05       		.uleb128 0x5
 1924 0035 16       		.uleb128 0x16
 1925 0036 00       		.byte	0x0
 1926 0037 03       		.uleb128 0x3
 1927 0038 0E       		.uleb128 0xe
 1928 0039 3A       		.uleb128 0x3a
 1929 003a 0B       		.uleb128 0xb
 1930 003b 3B       		.uleb128 0x3b
 1931 003c 0B       		.uleb128 0xb
 1932 003d 49       		.uleb128 0x49
 1933 003e 13       		.uleb128 0x13
 1934 003f 00       		.byte	0x0
 1935 0040 00       		.byte	0x0
 1936 0041 06       		.uleb128 0x6
 1937 0042 2E       		.uleb128 0x2e
 1938 0043 00       		.byte	0x0
 1939 0044 3F       		.uleb128 0x3f
 1940 0045 0C       		.uleb128 0xc
 1941 0046 03       		.uleb128 0x3
 1942 0047 0E       		.uleb128 0xe
 1943 0048 3A       		.uleb128 0x3a
 1944 0049 0B       		.uleb128 0xb
 1945 004a 3B       		.uleb128 0x3b
 1946 004b 0B       		.uleb128 0xb
 1947 004c 27       		.uleb128 0x27
 1948 004d 0C       		.uleb128 0xc
 1949 004e 11       		.uleb128 0x11
 1950 004f 01       		.uleb128 0x1
 1951 0050 12       		.uleb128 0x12
 1952 0051 01       		.uleb128 0x1
 1953 0052 40       		.uleb128 0x40
ARM GAS  C:\Users\arh\AppData\Local\Temp\ccfGlav7.s 			page 46


 1954 0053 06       		.uleb128 0x6
 1955 0054 00       		.byte	0x0
 1956 0055 00       		.byte	0x0
 1957 0056 07       		.uleb128 0x7
 1958 0057 2E       		.uleb128 0x2e
 1959 0058 01       		.byte	0x1
 1960 0059 3F       		.uleb128 0x3f
 1961 005a 0C       		.uleb128 0xc
 1962 005b 03       		.uleb128 0x3
 1963 005c 0E       		.uleb128 0xe
 1964 005d 3A       		.uleb128 0x3a
 1965 005e 0B       		.uleb128 0xb
 1966 005f 3B       		.uleb128 0x3b
 1967 0060 0B       		.uleb128 0xb
 1968 0061 27       		.uleb128 0x27
 1969 0062 0C       		.uleb128 0xc
 1970 0063 11       		.uleb128 0x11
 1971 0064 01       		.uleb128 0x1
 1972 0065 12       		.uleb128 0x12
 1973 0066 01       		.uleb128 0x1
 1974 0067 40       		.uleb128 0x40
 1975 0068 06       		.uleb128 0x6
 1976 0069 01       		.uleb128 0x1
 1977 006a 13       		.uleb128 0x13
 1978 006b 00       		.byte	0x0
 1979 006c 00       		.byte	0x0
 1980 006d 08       		.uleb128 0x8
 1981 006e 05       		.uleb128 0x5
 1982 006f 00       		.byte	0x0
 1983 0070 03       		.uleb128 0x3
 1984 0071 08       		.uleb128 0x8
 1985 0072 3A       		.uleb128 0x3a
 1986 0073 0B       		.uleb128 0xb
 1987 0074 3B       		.uleb128 0x3b
 1988 0075 0B       		.uleb128 0xb
 1989 0076 49       		.uleb128 0x49
 1990 0077 13       		.uleb128 0x13
 1991 0078 02       		.uleb128 0x2
 1992 0079 0A       		.uleb128 0xa
 1993 007a 00       		.byte	0x0
 1994 007b 00       		.byte	0x0
 1995 007c 09       		.uleb128 0x9
 1996 007d 05       		.uleb128 0x5
 1997 007e 00       		.byte	0x0
 1998 007f 03       		.uleb128 0x3
 1999 0080 0E       		.uleb128 0xe
 2000 0081 3A       		.uleb128 0x3a
 2001 0082 0B       		.uleb128 0xb
 2002 0083 3B       		.uleb128 0x3b
 2003 0084 0B       		.uleb128 0xb
 2004 0085 49       		.uleb128 0x49
 2005 0086 13       		.uleb128 0x13
 2006 0087 02       		.uleb128 0x2
 2007 0088 0A       		.uleb128 0xa
 2008 0089 00       		.byte	0x0
 2009 008a 00       		.byte	0x0
 2010 008b 0A       		.uleb128 0xa
ARM GAS  C:\Users\arh\AppData\Local\Temp\ccfGlav7.s 			page 47


 2011 008c 34       		.uleb128 0x34
 2012 008d 00       		.byte	0x0
 2013 008e 03       		.uleb128 0x3
 2014 008f 0E       		.uleb128 0xe
 2015 0090 3A       		.uleb128 0x3a
 2016 0091 0B       		.uleb128 0xb
 2017 0092 3B       		.uleb128 0x3b
 2018 0093 0B       		.uleb128 0xb
 2019 0094 49       		.uleb128 0x49
 2020 0095 13       		.uleb128 0x13
 2021 0096 02       		.uleb128 0x2
 2022 0097 0A       		.uleb128 0xa
 2023 0098 00       		.byte	0x0
 2024 0099 00       		.byte	0x0
 2025 009a 0B       		.uleb128 0xb
 2026 009b 0F       		.uleb128 0xf
 2027 009c 00       		.byte	0x0
 2028 009d 0B       		.uleb128 0xb
 2029 009e 0B       		.uleb128 0xb
 2030 009f 49       		.uleb128 0x49
 2031 00a0 13       		.uleb128 0x13
 2032 00a1 00       		.byte	0x0
 2033 00a2 00       		.byte	0x0
 2034 00a3 0C       		.uleb128 0xc
 2035 00a4 2E       		.uleb128 0x2e
 2036 00a5 01       		.byte	0x1
 2037 00a6 3F       		.uleb128 0x3f
 2038 00a7 0C       		.uleb128 0xc
 2039 00a8 03       		.uleb128 0x3
 2040 00a9 0E       		.uleb128 0xe
 2041 00aa 3A       		.uleb128 0x3a
 2042 00ab 0B       		.uleb128 0xb
 2043 00ac 3B       		.uleb128 0x3b
 2044 00ad 05       		.uleb128 0x5
 2045 00ae 27       		.uleb128 0x27
 2046 00af 0C       		.uleb128 0xc
 2047 00b0 11       		.uleb128 0x11
 2048 00b1 01       		.uleb128 0x1
 2049 00b2 12       		.uleb128 0x12
 2050 00b3 01       		.uleb128 0x1
 2051 00b4 40       		.uleb128 0x40
 2052 00b5 06       		.uleb128 0x6
 2053 00b6 01       		.uleb128 0x1
 2054 00b7 13       		.uleb128 0x13
 2055 00b8 00       		.byte	0x0
 2056 00b9 00       		.byte	0x0
 2057 00ba 0D       		.uleb128 0xd
 2058 00bb 05       		.uleb128 0x5
 2059 00bc 00       		.byte	0x0
 2060 00bd 03       		.uleb128 0x3
 2061 00be 0E       		.uleb128 0xe
 2062 00bf 3A       		.uleb128 0x3a
 2063 00c0 0B       		.uleb128 0xb
 2064 00c1 3B       		.uleb128 0x3b
 2065 00c2 05       		.uleb128 0x5
 2066 00c3 49       		.uleb128 0x49
 2067 00c4 13       		.uleb128 0x13
ARM GAS  C:\Users\arh\AppData\Local\Temp\ccfGlav7.s 			page 48


 2068 00c5 02       		.uleb128 0x2
 2069 00c6 0A       		.uleb128 0xa
 2070 00c7 00       		.byte	0x0
 2071 00c8 00       		.byte	0x0
 2072 00c9 0E       		.uleb128 0xe
 2073 00ca 34       		.uleb128 0x34
 2074 00cb 00       		.byte	0x0
 2075 00cc 03       		.uleb128 0x3
 2076 00cd 0E       		.uleb128 0xe
 2077 00ce 3A       		.uleb128 0x3a
 2078 00cf 0B       		.uleb128 0xb
 2079 00d0 3B       		.uleb128 0x3b
 2080 00d1 05       		.uleb128 0x5
 2081 00d2 49       		.uleb128 0x49
 2082 00d3 13       		.uleb128 0x13
 2083 00d4 02       		.uleb128 0x2
 2084 00d5 0A       		.uleb128 0xa
 2085 00d6 00       		.byte	0x0
 2086 00d7 00       		.byte	0x0
 2087 00d8 0F       		.uleb128 0xf
 2088 00d9 01       		.uleb128 0x1
 2089 00da 01       		.byte	0x1
 2090 00db 49       		.uleb128 0x49
 2091 00dc 13       		.uleb128 0x13
 2092 00dd 01       		.uleb128 0x1
 2093 00de 13       		.uleb128 0x13
 2094 00df 00       		.byte	0x0
 2095 00e0 00       		.byte	0x0
 2096 00e1 10       		.uleb128 0x10
 2097 00e2 21       		.uleb128 0x21
 2098 00e3 00       		.byte	0x0
 2099 00e4 49       		.uleb128 0x49
 2100 00e5 13       		.uleb128 0x13
 2101 00e6 2F       		.uleb128 0x2f
 2102 00e7 0B       		.uleb128 0xb
 2103 00e8 00       		.byte	0x0
 2104 00e9 00       		.byte	0x0
 2105 00ea 11       		.uleb128 0x11
 2106 00eb 34       		.uleb128 0x34
 2107 00ec 00       		.byte	0x0
 2108 00ed 03       		.uleb128 0x3
 2109 00ee 0E       		.uleb128 0xe
 2110 00ef 3A       		.uleb128 0x3a
 2111 00f0 0B       		.uleb128 0xb
 2112 00f1 3B       		.uleb128 0x3b
 2113 00f2 0B       		.uleb128 0xb
 2114 00f3 49       		.uleb128 0x49
 2115 00f4 13       		.uleb128 0x13
 2116 00f5 3F       		.uleb128 0x3f
 2117 00f6 0C       		.uleb128 0xc
 2118 00f7 02       		.uleb128 0x2
 2119 00f8 0A       		.uleb128 0xa
 2120 00f9 00       		.byte	0x0
 2121 00fa 00       		.byte	0x0
 2122 00fb 12       		.uleb128 0x12
 2123 00fc 26       		.uleb128 0x26
 2124 00fd 00       		.byte	0x0
ARM GAS  C:\Users\arh\AppData\Local\Temp\ccfGlav7.s 			page 49


 2125 00fe 49       		.uleb128 0x49
 2126 00ff 13       		.uleb128 0x13
 2127 0100 00       		.byte	0x0
 2128 0101 00       		.byte	0x0
 2129 0102 00       		.byte	0x0
 2130              		.section	.debug_pubnames,"",%progbits
 2131 0000 49010000 		.4byte	0x149
 2132 0004 0200     		.2byte	0x2
 2133 0006 00000000 		.4byte	.Ldebug_info0
 2134 000a 9E030000 		.4byte	0x39e
 2135 000e 9A000000 		.4byte	0x9a
 2136 0012 6C63645F 		.ascii	"lcd_Init\000"
 2136      496E6974 
 2136      00
 2137 001b AF000000 		.4byte	0xaf
 2138 001f 6C63645F 		.ascii	"lcd_Enable\000"
 2138      456E6162 
 2138      6C6500
 2139 002a C4000000 		.4byte	0xc4
 2140 002e 6C63645F 		.ascii	"lcd_Start\000"
 2140      53746172 
 2140      7400
 2141 0038 D9000000 		.4byte	0xd9
 2142 003c 6C63645F 		.ascii	"lcd_Stop\000"
 2142      53746F70 
 2142      00
 2143 0045 EE000000 		.4byte	0xee
 2144 0049 6C63645F 		.ascii	"lcd_Position\000"
 2144      506F7369 
 2144      74696F6E 
 2144      00
 2145 0056 24010000 		.4byte	0x124
 2146 005a 6C63645F 		.ascii	"lcd_PrintString\000"
 2146      5072696E 
 2146      74537472 
 2146      696E6700 
 2147 006a 6E010000 		.4byte	0x16e
 2148 006e 6C63645F 		.ascii	"lcd_PutChar\000"
 2148      50757443 
 2148      68617200 
 2149 007a 98010000 		.4byte	0x198
 2150 007e 6C63645F 		.ascii	"lcd_WriteData\000"
 2150      57726974 
 2150      65446174 
 2150      6100
 2151 008c D1010000 		.4byte	0x1d1
 2152 0090 6C63645F 		.ascii	"lcd_WriteControl\000"
 2152      57726974 
 2152      65436F6E 
 2152      74726F6C 
 2152      00
 2153 00a1 0A020000 		.4byte	0x20a
 2154 00a5 6C63645F 		.ascii	"lcd_IsReady\000"
 2154      49735265 
 2154      61647900 
 2155 00b1 34020000 		.4byte	0x234
 2156 00b5 6C63645F 		.ascii	"lcd_WrDatNib\000"
ARM GAS  C:\Users\arh\AppData\Local\Temp\ccfGlav7.s 			page 50


 2156      57724461 
 2156      744E6962 
 2156      00
 2157 00c2 5E020000 		.4byte	0x25e
 2158 00c6 6C63645F 		.ascii	"lcd_WrCntrlNib\000"
 2158      5772436E 
 2158      74726C4E 
 2158      696200
 2159 00d5 88020000 		.4byte	0x288
 2160 00d9 6C63645F 		.ascii	"lcd_PrintHexUint8\000"
 2160      5072696E 
 2160      74486578 
 2160      55696E74 
 2160      3800
 2161 00eb B2020000 		.4byte	0x2b2
 2162 00ef 6C63645F 		.ascii	"lcd_PrintHexUint16\000"
 2162      5072696E 
 2162      74486578 
 2162      55696E74 
 2162      313600
 2163 0102 DC020000 		.4byte	0x2dc
 2164 0106 6C63645F 		.ascii	"lcd_PrintDecUint16\000"
 2164      5072696E 
 2164      74446563 
 2164      55696E74 
 2164      313600
 2165 0119 52030000 		.4byte	0x352
 2166 011d 6C63645F 		.ascii	"lcd_enableState\000"
 2166      656E6162 
 2166      6C655374 
 2166      61746500 
 2167 012d 64030000 		.4byte	0x364
 2168 0131 6C63645F 		.ascii	"lcd_initVar\000"
 2168      696E6974 
 2168      56617200 
 2169 013d 86030000 		.4byte	0x386
 2170 0141 6C63645F 		.ascii	"lcd_hex\000"
 2170      68657800 
 2171 0149 00000000 		.4byte	0x0
 2172              		.section	.debug_aranges,"",%progbits
 2173 0000 8C000000 		.4byte	0x8c
 2174 0004 0200     		.2byte	0x2
 2175 0006 00000000 		.4byte	.Ldebug_info0
 2176 000a 04       		.byte	0x4
 2177 000b 00       		.byte	0x0
 2178 000c 0000     		.2byte	0x0
 2179 000e 0000     		.2byte	0x0
 2180 0010 00000000 		.4byte	.LFB0
 2181 0014 8E000000 		.4byte	.LFE0-.LFB0
 2182 0018 00000000 		.4byte	.LFB1
 2183 001c 1C000000 		.4byte	.LFE1-.LFB1
 2184 0020 00000000 		.4byte	.LFB2
 2185 0024 2A000000 		.4byte	.LFE2-.LFB2
 2186 0028 00000000 		.4byte	.LFB3
 2187 002c 1C000000 		.4byte	.LFE3-.LFB3
 2188 0030 00000000 		.4byte	.LFB4
 2189 0034 72000000 		.4byte	.LFE4-.LFB4
ARM GAS  C:\Users\arh\AppData\Local\Temp\ccfGlav7.s 			page 51


 2190 0038 00000000 		.4byte	.LFB5
 2191 003c 3E000000 		.4byte	.LFE5-.LFB5
 2192 0040 00000000 		.4byte	.LFB6
 2193 0044 1A000000 		.4byte	.LFE6-.LFB6
 2194 0048 00000000 		.4byte	.LFB7
 2195 004c 36000000 		.4byte	.LFE7-.LFB7
 2196 0050 00000000 		.4byte	.LFB8
 2197 0054 3E000000 		.4byte	.LFE8-.LFB8
 2198 0058 00000000 		.4byte	.LFB9
 2199 005c 04020000 		.4byte	.LFE9-.LFB9
 2200 0060 00000000 		.4byte	.LFB10
 2201 0064 AC000000 		.4byte	.LFE10-.LFB10
 2202 0068 00000000 		.4byte	.LFB11
 2203 006c 8C000000 		.4byte	.LFE11-.LFB11
 2204 0070 00000000 		.4byte	.LFB12
 2205 0074 42000000 		.4byte	.LFE12-.LFB12
 2206 0078 00000000 		.4byte	.LFB13
 2207 007c 2C000000 		.4byte	.LFE13-.LFB13
 2208 0080 00000000 		.4byte	.LFB14
 2209 0084 06010000 		.4byte	.LFE14-.LFB14
 2210 0088 00000000 		.4byte	0x0
 2211 008c 00000000 		.4byte	0x0
 2212              		.section	.debug_ranges,"",%progbits
 2213              	.Ldebug_ranges0:
 2214 0000 00000000 		.4byte	.Ltext0
 2215 0004 00000000 		.4byte	.Letext0
 2216 0008 00000000 		.4byte	.LFB0
 2217 000c 8E000000 		.4byte	.LFE0
 2218 0010 00000000 		.4byte	.LFB1
 2219 0014 1C000000 		.4byte	.LFE1
 2220 0018 00000000 		.4byte	.LFB2
 2221 001c 2A000000 		.4byte	.LFE2
 2222 0020 00000000 		.4byte	.LFB3
 2223 0024 1C000000 		.4byte	.LFE3
 2224 0028 00000000 		.4byte	.LFB4
 2225 002c 72000000 		.4byte	.LFE4
 2226 0030 00000000 		.4byte	.LFB5
 2227 0034 3E000000 		.4byte	.LFE5
 2228 0038 00000000 		.4byte	.LFB6
 2229 003c 1A000000 		.4byte	.LFE6
 2230 0040 00000000 		.4byte	.LFB7
 2231 0044 36000000 		.4byte	.LFE7
 2232 0048 00000000 		.4byte	.LFB8
 2233 004c 3E000000 		.4byte	.LFE8
 2234 0050 00000000 		.4byte	.LFB9
 2235 0054 04020000 		.4byte	.LFE9
 2236 0058 00000000 		.4byte	.LFB10
 2237 005c AC000000 		.4byte	.LFE10
 2238 0060 00000000 		.4byte	.LFB11
 2239 0064 8C000000 		.4byte	.LFE11
 2240 0068 00000000 		.4byte	.LFB12
 2241 006c 42000000 		.4byte	.LFE12
 2242 0070 00000000 		.4byte	.LFB13
 2243 0074 2C000000 		.4byte	.LFE13
 2244 0078 00000000 		.4byte	.LFB14
 2245 007c 06010000 		.4byte	.LFE14
 2246 0080 00000000 		.4byte	0x0
ARM GAS  C:\Users\arh\AppData\Local\Temp\ccfGlav7.s 			page 52


 2247 0084 00000000 		.4byte	0x0
 2248              		.section	.debug_str,"MS",%progbits,1
 2249              	.LASF5:
 2250 0000 6C6F6E67 		.ascii	"long long int\000"
 2250      206C6F6E 
 2250      6720696E 
 2250      7400
 2251              	.LASF27:
 2252 000e 6E696262 		.ascii	"nibble\000"
 2252      6C6500
 2253              	.LASF24:
 2254 0015 63686172 		.ascii	"character\000"
 2254      61637465 
 2254      7200
 2255              	.LASF31:
 2256 001f 76616C75 		.ascii	"value\000"
 2256      6500
 2257              	.LASF42:
 2258 0025 6C63645F 		.ascii	"lcd_initVar\000"
 2258      696E6974 
 2258      56617200 
 2259              	.LASF46:
 2260 0031 433A5C55 		.ascii	"C:\\Users\\arh\\Documents\\PSoC Creator\\Design07\\"
 2260      73657273 
 2260      5C617268 
 2260      5C446F63 
 2260      756D656E 
 2261 005e 6364732E 		.ascii	"cds.cydsn\000"
 2261      63796473 
 2261      6E00
 2262              	.LASF3:
 2263 0068 73686F72 		.ascii	"short unsigned int\000"
 2263      7420756E 
 2263      7369676E 
 2263      65642069 
 2263      6E7400
 2264              	.LASF2:
 2265 007b 73686F72 		.ascii	"short int\000"
 2265      7420696E 
 2265      7400
 2266              	.LASF21:
 2267 0085 696E6465 		.ascii	"indexU8\000"
 2267      78553800 
 2268              	.LASF35:
 2269 008d 6C63645F 		.ascii	"lcd_PrintHexUint16\000"
 2269      5072696E 
 2269      74486578 
 2269      55696E74 
 2269      313600
 2270              	.LASF34:
 2271 00a0 6C63645F 		.ascii	"lcd_PrintHexUint8\000"
 2271      5072696E 
 2271      74486578 
 2271      55696E74 
 2271      3800
 2272              	.LASF20:
 2273 00b2 73747269 		.ascii	"string\000"
ARM GAS  C:\Users\arh\AppData\Local\Temp\ccfGlav7.s 			page 53


 2273      6E6700
 2274              	.LASF17:
 2275 00b9 636F6C75 		.ascii	"column\000"
 2275      6D6E00
 2276              	.LASF1:
 2277 00c0 756E7369 		.ascii	"unsigned char\000"
 2277      676E6564 
 2277      20636861 
 2277      7200
 2278              	.LASF10:
 2279 00ce 63686172 		.ascii	"char8\000"
 2279      3800
 2280              	.LASF40:
 2281 00d4 6E756D44 		.ascii	"numDigits\000"
 2281      69676974 
 2281      7300
 2282              	.LASF15:
 2283 00de 6C63645F 		.ascii	"lcd_Start\000"
 2283      53746172 
 2283      7400
 2284              	.LASF25:
 2285 00e8 6C63645F 		.ascii	"lcd_WriteData\000"
 2285      57726974 
 2285      65446174 
 2285      6100
 2286              	.LASF38:
 2287 00f6 74656D70 		.ascii	"temp\000"
 2287      00
 2288              	.LASF11:
 2289 00fb 75696E74 		.ascii	"uint8\000"
 2289      3800
 2290              	.LASF14:
 2291 0101 6C63645F 		.ascii	"lcd_Enable\000"
 2291      456E6162 
 2291      6C6500
 2292              	.LASF8:
 2293 010c 6C6F6E67 		.ascii	"long unsigned int\000"
 2293      20756E73 
 2293      69676E65 
 2293      6420696E 
 2293      7400
 2294              	.LASF18:
 2295 011e 6C63645F 		.ascii	"lcd_Position\000"
 2295      506F7369 
 2295      74696F6E 
 2295      00
 2296              	.LASF12:
 2297 012b 75696E74 		.ascii	"uint16\000"
 2297      313600
 2298              	.LASF19:
 2299 0132 6C63645F 		.ascii	"lcd_PrintString\000"
 2299      5072696E 
 2299      74537472 
 2299      696E6700 
 2300              	.LASF4:
 2301 0142 756E7369 		.ascii	"unsigned int\000"
 2301      676E6564 
ARM GAS  C:\Users\arh\AppData\Local\Temp\ccfGlav7.s 			page 54


 2301      20696E74 
 2301      00
 2302              	.LASF6:
 2303 014f 6C6F6E67 		.ascii	"long long unsigned int\000"
 2303      206C6F6E 
 2303      6720756E 
 2303      7369676E 
 2303      65642069 
 2304              	.LASF23:
 2305 0166 6C63645F 		.ascii	"lcd_PutChar\000"
 2305      50757443 
 2305      68617200 
 2306              	.LASF30:
 2307 0172 6C63645F 		.ascii	"lcd_IsReady\000"
 2307      49735265 
 2307      61647900 
 2308              	.LASF13:
 2309 017e 6C63645F 		.ascii	"lcd_Init\000"
 2309      496E6974 
 2309      00
 2310              	.LASF37:
 2311 0187 6E756D62 		.ascii	"number\000"
 2311      657200
 2312              	.LASF33:
 2313 018e 6C63645F 		.ascii	"lcd_WrCntrlNib\000"
 2313      5772436E 
 2313      74726C4E 
 2313      696200
 2314              	.LASF44:
 2315 019d 474E5520 		.ascii	"GNU C 4.4.1\000"
 2315      4320342E 
 2315      342E3100 
 2316              	.LASF9:
 2317 01a9 63686172 		.ascii	"char\000"
 2317      00
 2318              	.LASF39:
 2319 01ae 696E6465 		.ascii	"index\000"
 2319      7800
 2320              	.LASF43:
 2321 01b4 6C63645F 		.ascii	"lcd_hex\000"
 2321      68657800 
 2322              	.LASF22:
 2323 01bc 63757272 		.ascii	"current\000"
 2323      656E7400 
 2324              	.LASF45:
 2325 01c4 2E5C4765 		.ascii	".\\Generated_Source\\PSoC5\\lcd.c\000"
 2325      6E657261 
 2325      7465645F 
 2325      536F7572 
 2325      63655C50 
 2326              	.LASF7:
 2327 01e3 6C6F6E67 		.ascii	"long int\000"
 2327      20696E74 
 2327      00
 2328              	.LASF28:
 2329 01ec 6C63645F 		.ascii	"lcd_WriteControl\000"
 2329      57726974 
ARM GAS  C:\Users\arh\AppData\Local\Temp\ccfGlav7.s 			page 55


 2329      65436F6E 
 2329      74726F6C 
 2329      00
 2330              	.LASF16:
 2331 01fd 6C63645F 		.ascii	"lcd_Stop\000"
 2331      53746F70 
 2331      00
 2332              	.LASF0:
 2333 0206 7369676E 		.ascii	"signed char\000"
 2333      65642063 
 2333      68617200 
 2334              	.LASF26:
 2335 0212 64427974 		.ascii	"dByte\000"
 2335      6500
 2336              	.LASF36:
 2337 0218 6C63645F 		.ascii	"lcd_PrintDecUint16\000"
 2337      5072696E 
 2337      74446563 
 2337      55696E74 
 2337      313600
 2338              	.LASF32:
 2339 022b 6C63645F 		.ascii	"lcd_WrDatNib\000"
 2339      57724461 
 2339      744E6962 
 2339      00
 2340              	.LASF29:
 2341 0238 63427974 		.ascii	"cByte\000"
 2341      6500
 2342              	.LASF41:
 2343 023e 6C63645F 		.ascii	"lcd_enableState\000"
 2343      656E6162 
 2343      6C655374 
 2343      61746500 
 2344              		.ident	"GCC: (Sourcery G++ Lite 2010q1-188) 4.4.1"
