ARM GAS  C:\Users\arh\AppData\Local\Temp\cc93GaL9.s 			page 1


   1              		.syntax unified
   2              		.cpu cortex-m3
   3              		.fpu softvfp
   4              		.eabi_attribute 20, 1
   5              		.eabi_attribute 21, 1
   6              		.eabi_attribute 23, 3
   7              		.eabi_attribute 24, 1
   8              		.eabi_attribute 25, 1
   9              		.eabi_attribute 26, 1
  10              		.eabi_attribute 30, 6
  11              		.eabi_attribute 18, 4
  12              		.thumb
  13              		.file	"ledhb.c"
  20 0000 AC000000 		.text
  20      02005E00 
  20      00000201 
  20      FB0E0D00 
  20      01010101 
  21              	.Ltext0:
  22              		.cfi_sections	.debug_frame
  23              		.section	.text.ledhb_Write,"ax",%progbits
  24              		.align	2
  25              		.global	ledhb_Write
  26              		.thumb
  27              		.thumb_func
  28              		.type	ledhb_Write, %function
  29              	ledhb_Write:
  30              	.LFB0:
  31              		.file 1 ".\\Generated_Source\\PSoC5\\ledhb.c"
   1:.\Generated_Source\PSoC5/ledhb.c **** /*******************************************************************************
   2:.\Generated_Source\PSoC5/ledhb.c **** * File Name: ledhb.c  
   3:.\Generated_Source\PSoC5/ledhb.c **** * Version 1.70
   4:.\Generated_Source\PSoC5/ledhb.c **** *
   5:.\Generated_Source\PSoC5/ledhb.c **** * Description:
   6:.\Generated_Source\PSoC5/ledhb.c **** *  This file contains API to enable firmware control of a Pins component.
   7:.\Generated_Source\PSoC5/ledhb.c **** *
   8:.\Generated_Source\PSoC5/ledhb.c **** * Note:
   9:.\Generated_Source\PSoC5/ledhb.c **** *
  10:.\Generated_Source\PSoC5/ledhb.c **** ********************************************************************************
  11:.\Generated_Source\PSoC5/ledhb.c **** * Copyright 2008-2010, Cypress Semiconductor Corporation.  All rights reserved.
  12:.\Generated_Source\PSoC5/ledhb.c **** * You may use this file only in accordance with the license, terms, conditions, 
  13:.\Generated_Source\PSoC5/ledhb.c **** * disclaimers, and limitations in the end user license agreement accompanying 
  14:.\Generated_Source\PSoC5/ledhb.c **** * the software package with which this file was provided.
  15:.\Generated_Source\PSoC5/ledhb.c **** ********************************************************************************/
  16:.\Generated_Source\PSoC5/ledhb.c **** 
  17:.\Generated_Source\PSoC5/ledhb.c **** #include "cytypes.h"
  18:.\Generated_Source\PSoC5/ledhb.c **** #include "ledhb.h"
  19:.\Generated_Source\PSoC5/ledhb.c **** 
  20:.\Generated_Source\PSoC5/ledhb.c **** /* APIs are not generated for P15[7:6] */
  21:.\Generated_Source\PSoC5/ledhb.c **** #if !(CY_PSOC5A &&\
  22:.\Generated_Source\PSoC5/ledhb.c **** 	 ledhb__PORT == 15 && (ledhb__MASK & 0xC0))
ARM GAS  C:\Users\arh\AppData\Local\Temp\cc93GaL9.s 			page 2


  23:.\Generated_Source\PSoC5/ledhb.c **** 
  24:.\Generated_Source\PSoC5/ledhb.c **** /*******************************************************************************
  25:.\Generated_Source\PSoC5/ledhb.c **** * Function Name: ledhb_Write
  26:.\Generated_Source\PSoC5/ledhb.c **** ********************************************************************************
  27:.\Generated_Source\PSoC5/ledhb.c **** * Summary:
  28:.\Generated_Source\PSoC5/ledhb.c **** *  Assign a new value to the digital port's data output register.  
  29:.\Generated_Source\PSoC5/ledhb.c **** *
  30:.\Generated_Source\PSoC5/ledhb.c **** * Parameters:  
  31:.\Generated_Source\PSoC5/ledhb.c **** *  prtValue:  The value to be assigned to the Digital Port. 
  32:.\Generated_Source\PSoC5/ledhb.c **** *
  33:.\Generated_Source\PSoC5/ledhb.c **** * Return: 
  34:.\Generated_Source\PSoC5/ledhb.c **** *  void 
  35:.\Generated_Source\PSoC5/ledhb.c **** *  
  36:.\Generated_Source\PSoC5/ledhb.c **** *******************************************************************************/
  37:.\Generated_Source\PSoC5/ledhb.c **** void ledhb_Write(uint8 value) 
  38:.\Generated_Source\PSoC5/ledhb.c **** {
  32              		.loc 1 38 0
  33              		.cfi_startproc
  34              		@ args = 0, pretend = 0, frame = 16
  35              		@ frame_needed = 1, uses_anonymous_args = 0
  36              		@ link register save eliminated.
  37 0000 80B4     		push	{r7}
  38              	.LCFI0:
  39              		.cfi_def_cfa_offset 4
  40 0002 85B0     		sub	sp, sp, #20
  41              	.LCFI1:
  42              		.cfi_def_cfa_offset 24
  43 0004 00AF     		add	r7, sp, #0
  44              		.cfi_offset 7, -4
  45              	.LCFI2:
  46              		.cfi_def_cfa_register 7
  47 0006 0346     		mov	r3, r0
  48 0008 FB71     		strb	r3, [r7, #7]
  39:.\Generated_Source\PSoC5/ledhb.c ****     uint8 staticBits = ledhb_DR & ~ledhb_MASK;
  49              		.loc 1 39 0
  50 000a 45F22013 		movw	r3, #:lower16:1073762592
  51 000e C4F20003 		movt	r3, #:upper16:1073762592
  52 0012 1B78     		ldrb	r3, [r3, #0]
  53 0014 DBB2     		uxtb	r3, r3
  54 0016 03F07F03 		and	r3, r3, #127
  55 001a FB73     		strb	r3, [r7, #15]
  40:.\Generated_Source\PSoC5/ledhb.c ****     ledhb_DR = staticBits | ((value << ledhb_SHIFT) & ledhb_MASK);
  56              		.loc 1 40 0
  57 001c 45F22013 		movw	r3, #:lower16:1073762592
  58 0020 C4F20003 		movt	r3, #:upper16:1073762592
  59 0024 FA79     		ldrb	r2, [r7, #7]
  60 0026 4FEAC212 		lsl	r2, r2, #7
  61 002a D1B2     		uxtb	r1, r2
  62 002c FA7B     		ldrb	r2, [r7, #15]
  63 002e 41EA0202 		orr	r2, r1, r2
  64 0032 D2B2     		uxtb	r2, r2
  65 0034 1A70     		strb	r2, [r3, #0]
  41:.\Generated_Source\PSoC5/ledhb.c **** }
  66              		.loc 1 41 0
  67 0036 07F11407 		add	r7, r7, #20
  68 003a BD46     		mov	sp, r7
  69 003c 80BC     		pop	{r7}
ARM GAS  C:\Users\arh\AppData\Local\Temp\cc93GaL9.s 			page 3


  70 003e 7047     		bx	lr
  71              		.cfi_endproc
  72              	.LFE0:
  73              		.size	ledhb_Write, .-ledhb_Write
  74              		.section	.text.ledhb_SetDriveMode,"ax",%progbits
  75              		.align	2
  76              		.global	ledhb_SetDriveMode
  77              		.thumb
  78              		.thumb_func
  79              		.type	ledhb_SetDriveMode, %function
  80              	ledhb_SetDriveMode:
  81              	.LFB1:
  42:.\Generated_Source\PSoC5/ledhb.c **** 
  43:.\Generated_Source\PSoC5/ledhb.c **** 
  44:.\Generated_Source\PSoC5/ledhb.c **** /*******************************************************************************
  45:.\Generated_Source\PSoC5/ledhb.c **** * Function Name: ledhb_SetDriveMode
  46:.\Generated_Source\PSoC5/ledhb.c **** ********************************************************************************
  47:.\Generated_Source\PSoC5/ledhb.c **** * Summary:
  48:.\Generated_Source\PSoC5/ledhb.c **** *  Change the drive mode on the pins of the port.
  49:.\Generated_Source\PSoC5/ledhb.c **** * 
  50:.\Generated_Source\PSoC5/ledhb.c **** * Parameters:  
  51:.\Generated_Source\PSoC5/ledhb.c **** *  mode:  Change the pins to this drive mode.
  52:.\Generated_Source\PSoC5/ledhb.c **** *
  53:.\Generated_Source\PSoC5/ledhb.c **** * Return: 
  54:.\Generated_Source\PSoC5/ledhb.c **** *  void
  55:.\Generated_Source\PSoC5/ledhb.c **** *
  56:.\Generated_Source\PSoC5/ledhb.c **** *******************************************************************************/
  57:.\Generated_Source\PSoC5/ledhb.c **** void ledhb_SetDriveMode(uint8 mode) 
  58:.\Generated_Source\PSoC5/ledhb.c **** {
  82              		.loc 1 58 0
  83              		.cfi_startproc
  84              		@ args = 0, pretend = 0, frame = 8
  85              		@ frame_needed = 1, uses_anonymous_args = 0
  86              		@ link register save eliminated.
  87 0000 80B4     		push	{r7}
  88              	.LCFI3:
  89              		.cfi_def_cfa_offset 4
  90 0002 83B0     		sub	sp, sp, #12
  91              	.LCFI4:
  92              		.cfi_def_cfa_offset 16
  93 0004 00AF     		add	r7, sp, #0
  94              		.cfi_offset 7, -4
  95              	.LCFI5:
  96              		.cfi_def_cfa_register 7
  97 0006 0346     		mov	r3, r0
  98 0008 FB71     		strb	r3, [r7, #7]
  59:.\Generated_Source\PSoC5/ledhb.c **** 	CyPins_SetPinDriveMode(ledhb_0, mode);
  99              		.loc 1 59 0
 100 000a 45F21703 		movw	r3, #:lower16:1073762327
 101 000e C4F20003 		movt	r3, #:upper16:1073762327
 102 0012 45F21702 		movw	r2, #:lower16:1073762327
 103 0016 C4F20002 		movt	r2, #:upper16:1073762327
 104 001a 1278     		ldrb	r2, [r2, #0]
 105 001c D2B2     		uxtb	r2, r2
 106 001e 1146     		mov	r1, r2
 107 0020 01F0F101 		and	r1, r1, #241
 108 0024 FA79     		ldrb	r2, [r7, #7]	@ zero_extendqisi2
ARM GAS  C:\Users\arh\AppData\Local\Temp\cc93GaL9.s 			page 4


 109 0026 02F00E02 		and	r2, r2, #14
 110 002a 41EA0202 		orr	r2, r1, r2
 111 002e D2B2     		uxtb	r2, r2
 112 0030 1A70     		strb	r2, [r3, #0]
  60:.\Generated_Source\PSoC5/ledhb.c **** }
 113              		.loc 1 60 0
 114 0032 07F10C07 		add	r7, r7, #12
 115 0036 BD46     		mov	sp, r7
 116 0038 80BC     		pop	{r7}
 117 003a 7047     		bx	lr
 118              		.cfi_endproc
 119              	.LFE1:
 120              		.size	ledhb_SetDriveMode, .-ledhb_SetDriveMode
 121              		.section	.text.ledhb_Read,"ax",%progbits
 122              		.align	2
 123              		.global	ledhb_Read
 124              		.thumb
 125              		.thumb_func
 126              		.type	ledhb_Read, %function
 127              	ledhb_Read:
 128              	.LFB2:
  61:.\Generated_Source\PSoC5/ledhb.c **** 
  62:.\Generated_Source\PSoC5/ledhb.c **** 
  63:.\Generated_Source\PSoC5/ledhb.c **** /*******************************************************************************
  64:.\Generated_Source\PSoC5/ledhb.c **** * Function Name: ledhb_Read
  65:.\Generated_Source\PSoC5/ledhb.c **** ********************************************************************************
  66:.\Generated_Source\PSoC5/ledhb.c **** * Summary:
  67:.\Generated_Source\PSoC5/ledhb.c **** *  Read the current value on the pins of the Digital Port in right justified 
  68:.\Generated_Source\PSoC5/ledhb.c **** *  form.
  69:.\Generated_Source\PSoC5/ledhb.c **** *
  70:.\Generated_Source\PSoC5/ledhb.c **** * Parameters:  
  71:.\Generated_Source\PSoC5/ledhb.c **** *  void 
  72:.\Generated_Source\PSoC5/ledhb.c **** *
  73:.\Generated_Source\PSoC5/ledhb.c **** * Return: 
  74:.\Generated_Source\PSoC5/ledhb.c **** *  Returns the current value of the Digital Port as a right justified number
  75:.\Generated_Source\PSoC5/ledhb.c **** *  
  76:.\Generated_Source\PSoC5/ledhb.c **** * Note:
  77:.\Generated_Source\PSoC5/ledhb.c **** *  Macro ledhb_ReadPS calls this function. 
  78:.\Generated_Source\PSoC5/ledhb.c **** *  
  79:.\Generated_Source\PSoC5/ledhb.c **** *******************************************************************************/
  80:.\Generated_Source\PSoC5/ledhb.c **** uint8 ledhb_Read(void) 
  81:.\Generated_Source\PSoC5/ledhb.c **** {
 129              		.loc 1 81 0
 130              		.cfi_startproc
 131              		@ args = 0, pretend = 0, frame = 0
 132              		@ frame_needed = 1, uses_anonymous_args = 0
 133              		@ link register save eliminated.
 134 0000 80B4     		push	{r7}
 135              	.LCFI6:
 136              		.cfi_def_cfa_offset 4
 137 0002 00AF     		add	r7, sp, #0
 138              		.cfi_offset 7, -4
 139              	.LCFI7:
 140              		.cfi_def_cfa_register 7
  82:.\Generated_Source\PSoC5/ledhb.c ****     return (ledhb_PS & ledhb_MASK) >> ledhb_SHIFT;
 141              		.loc 1 82 0
 142 0004 45F22113 		movw	r3, #:lower16:1073762593
ARM GAS  C:\Users\arh\AppData\Local\Temp\cc93GaL9.s 			page 5


 143 0008 C4F20003 		movt	r3, #:upper16:1073762593
 144 000c 1B78     		ldrb	r3, [r3, #0]
 145 000e DBB2     		uxtb	r3, r3
 146 0010 4FEAD313 		lsr	r3, r3, #7
 147 0014 DBB2     		uxtb	r3, r3
  83:.\Generated_Source\PSoC5/ledhb.c **** }
 148              		.loc 1 83 0
 149 0016 1846     		mov	r0, r3
 150 0018 BD46     		mov	sp, r7
 151 001a 80BC     		pop	{r7}
 152 001c 7047     		bx	lr
 153              		.cfi_endproc
 154              	.LFE2:
 155              		.size	ledhb_Read, .-ledhb_Read
 156 001e 00BF     		.section	.text.ledhb_ReadDataReg,"ax",%progbits
 157              		.align	2
 158              		.global	ledhb_ReadDataReg
 159              		.thumb
 160              		.thumb_func
 161              		.type	ledhb_ReadDataReg, %function
 162              	ledhb_ReadDataReg:
 163              	.LFB3:
  84:.\Generated_Source\PSoC5/ledhb.c **** 
  85:.\Generated_Source\PSoC5/ledhb.c **** 
  86:.\Generated_Source\PSoC5/ledhb.c **** /*******************************************************************************
  87:.\Generated_Source\PSoC5/ledhb.c **** * Function Name: ledhb_ReadDataReg
  88:.\Generated_Source\PSoC5/ledhb.c **** ********************************************************************************
  89:.\Generated_Source\PSoC5/ledhb.c **** * Summary:
  90:.\Generated_Source\PSoC5/ledhb.c **** *  Read the current value assigned to a Digital Port's data output register
  91:.\Generated_Source\PSoC5/ledhb.c **** *
  92:.\Generated_Source\PSoC5/ledhb.c **** * Parameters:  
  93:.\Generated_Source\PSoC5/ledhb.c **** *  void 
  94:.\Generated_Source\PSoC5/ledhb.c **** *
  95:.\Generated_Source\PSoC5/ledhb.c **** * Return: 
  96:.\Generated_Source\PSoC5/ledhb.c **** *  Returns the current value assigned to the Digital Port's data output register
  97:.\Generated_Source\PSoC5/ledhb.c **** *  
  98:.\Generated_Source\PSoC5/ledhb.c **** *******************************************************************************/
  99:.\Generated_Source\PSoC5/ledhb.c **** uint8 ledhb_ReadDataReg(void) 
 100:.\Generated_Source\PSoC5/ledhb.c **** {
 164              		.loc 1 100 0
 165              		.cfi_startproc
 166              		@ args = 0, pretend = 0, frame = 0
 167              		@ frame_needed = 1, uses_anonymous_args = 0
 168              		@ link register save eliminated.
 169 0000 80B4     		push	{r7}
 170              	.LCFI8:
 171              		.cfi_def_cfa_offset 4
 172 0002 00AF     		add	r7, sp, #0
 173              		.cfi_offset 7, -4
 174              	.LCFI9:
 175              		.cfi_def_cfa_register 7
 101:.\Generated_Source\PSoC5/ledhb.c ****     return (ledhb_DR & ledhb_MASK) >> ledhb_SHIFT;
 176              		.loc 1 101 0
 177 0004 45F22013 		movw	r3, #:lower16:1073762592
 178 0008 C4F20003 		movt	r3, #:upper16:1073762592
 179 000c 1B78     		ldrb	r3, [r3, #0]
 180 000e DBB2     		uxtb	r3, r3
ARM GAS  C:\Users\arh\AppData\Local\Temp\cc93GaL9.s 			page 6


 181 0010 4FEAD313 		lsr	r3, r3, #7
 182 0014 DBB2     		uxtb	r3, r3
 102:.\Generated_Source\PSoC5/ledhb.c **** }
 183              		.loc 1 102 0
 184 0016 1846     		mov	r0, r3
 185 0018 BD46     		mov	sp, r7
 186 001a 80BC     		pop	{r7}
 187 001c 7047     		bx	lr
 188              		.cfi_endproc
 189              	.LFE3:
 190              		.size	ledhb_ReadDataReg, .-ledhb_ReadDataReg
 191 001e 00BF     		.text
 192              	.Letext0: