ARM GAS  C:\Users\arh\AppData\Local\Temp\ccqFPakB.s 			page 1


   1              		.syntax unified
   2              		.cpu cortex-m3
   3              		.fpu softvfp
   4              		.eabi_attribute 20, 1
   5              		.eabi_attribute 21, 1
   6              		.eabi_attribute 23, 3
   7              		.eabi_attribute 24, 1
   8              		.eabi_attribute 25, 1
   9              		.eabi_attribute 26, 1
  10              		.eabi_attribute 30, 6
  11              		.eabi_attribute 18, 4
  12              		.thumb
  13              		.file	"main.c"
  20 0000 AD000000 		.text
  20      02005300 
  20      00000201 
  20      FB0E0D00 
  20      01010101 
  21              	.Ltext0:
  22              		.cfi_sections	.debug_frame
  23              		.comm	iVout1,4,4
  24              		.comm	iVout2,4,4
  25              		.comm	iVcds,4,4
  26              		.comm	iVcds_curr,4,4
  27              		.comm	iVcds_acc,4,4
  28              		.comm	buff,20,4
  29              		.section	.rodata
  30              		.align	2
  31              	.LC0:
  32 0000 413A00   		.ascii	"A:\000"
  33              		.global	__aeabi_f2d
  34 0003 00       		.align	2
  35              	.LC1:
  36 0004 563A2531 		.ascii	"V:%1.3f \000"
  36      2E336620 
  36      00
  37              		.global	__aeabi_dsub
  38              		.global	__aeabi_ddiv
  39              		.global	__aeabi_dmul
  40              		.global	__aeabi_d2f
  41 000d 000000   		.align	2
  42              	.LC2:
  43 0010 503A2532 		.ascii	"P:%2.2f \000"
  43      2E326620 
  43      00
  44              		.global	__aeabi_d2iz
  45              		.global	__aeabi_ui2f
  46 0019 000000   		.align	2
  47              	.LC3:
  48 001c 443A00   		.ascii	"D:\000"
  49 001f 00       		.align	2
ARM GAS  C:\Users\arh\AppData\Local\Temp\ccqFPakB.s 			page 2


  50              	.LC4:
  51 0020 2700     		.ascii	"'\000"
  52 0022 0000     		.align	2
  53              	.LC5:
  54 0024 22202020 		.ascii	"\"   \000"
  54      00
  55 0029 000000   		.section	.text.main,"ax",%progbits
  56              		.align	2
  57              		.global	main
  58              		.thumb
  59              		.thumb_func
  60              		.type	main, %function
  61              	main:
  62              	.LFB29:
  63              		.file 1 ".\\main.c"
   1:.\main.c      **** 
   2:.\main.c      **** #include <device.h>
   3:.\main.c      **** #include <stdio.h>
   4:.\main.c      **** 
   5:.\main.c      **** /*AMUX selections*/
   6:.\main.c      **** #define Select_Single 0 
   7:.\main.c      **** #define Select_Reference 1
   8:.\main.c      **** 
   9:.\main.c      **** /*IIR Filter parameters*/
  10:.\main.c      **** #define IIR_FILTER_STEP 16
  11:.\main.c      **** #define IIR_SHIFT 4
  12:.\main.c      **** 
  13:.\main.c      ****  /*variables for project*/
  14:.\main.c      ****  int32 iVout1, iVout2, iVcds, iVcds_curr, iVcds_acc;
  15:.\main.c      ****  char buff[20];
  16:.\main.c      **** 
  17:.\main.c      **** void main()
  18:.\main.c      **** {
  64              		.loc 1 18 0
  65              		.cfi_startproc
  66              		@ args = 0, pretend = 0, frame = 24
  67              		@ frame_needed = 1, uses_anonymous_args = 0
  68 0000 B0B5     		push	{r4, r5, r7, lr}
  69              	.LCFI0:
  70              		.cfi_def_cfa_offset 16
  71 0002 86B0     		sub	sp, sp, #24
  72              	.LCFI1:
  73              		.cfi_def_cfa_offset 40
  74 0004 00AF     		add	r7, sp, #0
  75              		.cfi_offset 14, -4
  76              		.cfi_offset 7, -8
  77              		.cfi_offset 5, -12
  78              		.cfi_offset 4, -16
  79              	.LCFI2:
  80              		.cfi_def_cfa_register 7
  19:.\main.c      **** 
  20:.\main.c      ****    	float fVcds;
  21:.\main.c      ****    	uint8 iLoop;
  22:.\main.c      ****    	uint16 i2buf;
  23:.\main.c      ****    
  24:.\main.c      ****    /*Initialization*/
  25:.\main.c      ****    	CYGlobalIntEnable;
ARM GAS  C:\Users\arh\AppData\Local\Temp\ccqFPakB.s 			page 3


  81              		.loc 1 25 0
  82              	@ 25 ".\main.c" 1
  83 0006 62B6     		CPSIE   i
  84              	@ 0 "" 2
  26:.\main.c      ****    	adc_Start();
  85              		.loc 1 26 0
  86              		.thumb
  87 0008 FFF7FEFF 		bl	adc_Start
  27:.\main.c      ****    	amux_Start();
  88              		.loc 1 27 0
  89 000c FFF7FEFF 		bl	amux_Start
  28:.\main.c      **** 	lcd_Start();
  90              		.loc 1 28 0
  91 0010 FFF7FEFF 		bl	lcd_Start
  29:.\main.c      **** 	i2c_Start();
  92              		.loc 1 29 0
  93 0014 FFF7FEFF 		bl	i2c_Start
  30:.\main.c      ****   	i2c_SetBuffer1(2,0,&i2buf);
  94              		.loc 1 30 0
  95 0018 07F10603 		add	r3, r7, #6
  96 001c 4FF00200 		mov	r0, #2
  97 0020 4FF00001 		mov	r1, #0
  98 0024 1A46     		mov	r2, r3
  99 0026 FFF7FEFF 		bl	i2c_SetBuffer1
  31:.\main.c      **** 	lcd_ClearDisplay();
 100              		.loc 1 31 0
 101 002a 4FF00100 		mov	r0, #1
 102 002e FFF7FEFF 		bl	lcd_WriteControl
 103 0032 00E0     		b	.L6
 104              	.L8:
  32:.\main.c      **** 	
  33:.\main.c      **** 	for(;;)
  34:.\main.c      ****     {
  35:.\main.c      **** 		iVcds_acc = 0;
  36:.\main.c      **** 		for(iLoop =0; iLoop < IIR_FILTER_STEP; iLoop++)
  37:.\main.c      **** 		{
  38:.\main.c      **** 			/*Get the first sample Vout1*/
  39:.\main.c      **** 			amux_Select(0);
  40:.\main.c      **** 			adc_StartConvert();
  41:.\main.c      **** 			adc_IsEndConversion(adc_WAIT_FOR_RESULT);
  42:.\main.c      **** 			iVout1 = adc_GetResult32();  
  43:.\main.c      **** 			adc_StopConvert();
  44:.\main.c      **** 			
  45:.\main.c      **** 			/*Get the second sample Vout2*/
  46:.\main.c      **** 			amux_Select(1);
  47:.\main.c      **** 			adc_StartConvert();
  48:.\main.c      **** 			adc_IsEndConversion(adc_WAIT_FOR_RESULT);
  49:.\main.c      **** 			iVout2 = adc_GetResult32();
  50:.\main.c      **** 			adc_StopConvert();
  51:.\main.c      **** 			
  52:.\main.c      **** 			/*perform CDS*/
  53:.\main.c      **** 			iVcds = iVout1 - iVout2; 
  54:.\main.c      **** 			
  55:.\main.c      **** 			/* IIR Filter*/
  56:.\main.c      **** 			iVcds_curr = iVcds;
  57:.\main.c      **** 			iVcds_acc += (iVcds_curr - iVcds_acc) >> 4;
  58:.\main.c      **** 		}
ARM GAS  C:\Users\arh\AppData\Local\Temp\ccqFPakB.s 			page 4


  59:.\main.c      **** 
  60:.\main.c      **** 		// put the adc value into the i2c buffer
  61:.\main.c      **** 		i2buf=iVout1;
  62:.\main.c      **** 		// display the i2c buffer
  63:.\main.c      **** 		lcd_Position(1,0);
  64:.\main.c      **** 		lcd_PrintString("A:");
  65:.\main.c      **** 		lcd_PrintInt16(i2buf);
  66:.\main.c      **** 	
  67:.\main.c      **** 		fVcds = adc_CountsTo_Volts(iVout1);
  68:.\main.c      **** 
  69:.\main.c      **** 		sprintf(buff,"V:%1.3f ",(float)fVcds);
  70:.\main.c      **** 		lcd_Position(0,0);
  71:.\main.c      **** 		lcd_PrintString(buff);
  72:.\main.c      **** 	
  73:.\main.c      **** 		/*
  74:.\main.c      **** 		// calculate the voltage
  75:.\main.c      **** 		float nm = i2buf;
  76:.\main.c      **** 		float dn = 65536;
  77:.\main.c      **** 		float calc = (float)(nm/dn)  ;
  78:.\main.c      **** 		float mv = 2* 1.024 * calc ;
  79:.\main.c      **** 		sprintf(buff,"c:%1.3f ", mv);
  80:.\main.c      **** 		lcd_PrintString(buff);
  81:.\main.c      **** 		*/
  82:.\main.c      **** 		
  83:.\main.c      **** 		// calculate psi - range of current loop (4-->20ma) 
  84:.\main.c      **** 		// range of sensor 15 psi
  85:.\main.c      **** 		// resistor is 51.1 ohms
  86:.\main.c      **** 		
  87:.\main.c      **** 		float psi = (fVcds-(0.004*51.1)) / (0.020*51.1 - 0.004*51.1) * 15;
  88:.\main.c      **** 			
  89:.\main.c      **** 		sprintf(buff,"P:%2.2f ",psi);
  90:.\main.c      **** 		lcd_PrintString(buff);
  91:.\main.c      **** 	
  92:.\main.c      **** 		uint8 ft = (int)(psi / 0.43);
  93:.\main.c      **** 		uint8 inches = (int)(12*((psi / 0.43) - (float)ft)); 
  94:.\main.c      **** 		lcd_Position(1,8);
  95:.\main.c      **** 		lcd_PrintString("D:");
  96:.\main.c      **** 		lcd_PrintNumber(ft);
  97:.\main.c      **** 		lcd_PrintString("'");
  98:.\main.c      **** 		lcd_PrintNumber(inches);
  99:.\main.c      **** 		lcd_PrintString("\"   ");
 100:.\main.c      **** 		
 101:.\main.c      **** 		// Toggle the LED every time there is a read
 102:.\main.c      **** 		uint8 i2status = i2c_GetActivity();
 103:.\main.c      **** 		if(i2status & i2c_STATUS_READ1)
 104:.\main.c      **** 		{
 105:.\main.c      **** 				if(led_ReadDataReg())
 106:.\main.c      **** 					led_Write(0);
 107:.\main.c      **** 				else
 108:.\main.c      **** 					led_Write(1);
 109:.\main.c      **** 		}
 110:.\main.c      **** 		
 111:.\main.c      ****     }
 105              		.loc 1 111 0
 106 0034 00BF     		nop
 107              	.L6:
 108              	.LBB2:
ARM GAS  C:\Users\arh\AppData\Local\Temp\ccqFPakB.s 			page 5


 109              		.loc 1 35 0
 110 0036 40F20003 		movw	r3, #:lower16:iVcds_acc
 111 003a C0F20003 		movt	r3, #:upper16:iVcds_acc
 112 003e 4FF00002 		mov	r2, #0
 113 0042 1A60     		str	r2, [r3, #0]
 114              		.loc 1 36 0
 115 0044 4FF00003 		mov	r3, #0
 116 0048 FB73     		strb	r3, [r7, #15]
 117 004a 5FE0     		b	.L2
 118              	.L3:
 119              		.loc 1 39 0
 120 004c 4FF00000 		mov	r0, #0
 121 0050 FFF7FEFF 		bl	amux_Select
 122              		.loc 1 40 0
 123 0054 FFF7FEFF 		bl	adc_StartConvert
 124              		.loc 1 41 0
 125 0058 4FF00000 		mov	r0, #0
 126 005c FFF7FEFF 		bl	adc_IsEndConversion
 127              		.loc 1 42 0
 128 0060 FFF7FEFF 		bl	adc_GetResult32
 129 0064 0246     		mov	r2, r0
 130 0066 40F20003 		movw	r3, #:lower16:iVout1
 131 006a C0F20003 		movt	r3, #:upper16:iVout1
 132 006e 1A60     		str	r2, [r3, #0]
 133              		.loc 1 43 0
 134 0070 FFF7FEFF 		bl	adc_StopConvert
 135              		.loc 1 46 0
 136 0074 4FF00100 		mov	r0, #1
 137 0078 FFF7FEFF 		bl	amux_Select
 138              		.loc 1 47 0
 139 007c FFF7FEFF 		bl	adc_StartConvert
 140              		.loc 1 48 0
 141 0080 4FF00000 		mov	r0, #0
 142 0084 FFF7FEFF 		bl	adc_IsEndConversion
 143              		.loc 1 49 0
 144 0088 FFF7FEFF 		bl	adc_GetResult32
 145 008c 0246     		mov	r2, r0
 146 008e 40F20003 		movw	r3, #:lower16:iVout2
 147 0092 C0F20003 		movt	r3, #:upper16:iVout2
 148 0096 1A60     		str	r2, [r3, #0]
 149              		.loc 1 50 0
 150 0098 FFF7FEFF 		bl	adc_StopConvert
 151              		.loc 1 53 0
 152 009c 40F20003 		movw	r3, #:lower16:iVout1
 153 00a0 C0F20003 		movt	r3, #:upper16:iVout1
 154 00a4 1A68     		ldr	r2, [r3, #0]
 155 00a6 40F20003 		movw	r3, #:lower16:iVout2
 156 00aa C0F20003 		movt	r3, #:upper16:iVout2
 157 00ae 1B68     		ldr	r3, [r3, #0]
 158 00b0 C3EB0202 		rsb	r2, r3, r2
 159 00b4 40F20003 		movw	r3, #:lower16:iVcds
 160 00b8 C0F20003 		movt	r3, #:upper16:iVcds
 161 00bc 1A60     		str	r2, [r3, #0]
 162              		.loc 1 56 0
 163 00be 40F20003 		movw	r3, #:lower16:iVcds
 164 00c2 C0F20003 		movt	r3, #:upper16:iVcds
 165 00c6 1A68     		ldr	r2, [r3, #0]
ARM GAS  C:\Users\arh\AppData\Local\Temp\ccqFPakB.s 			page 6


 166 00c8 40F20003 		movw	r3, #:lower16:iVcds_curr
 167 00cc C0F20003 		movt	r3, #:upper16:iVcds_curr
 168 00d0 1A60     		str	r2, [r3, #0]
 169              		.loc 1 57 0
 170 00d2 40F20003 		movw	r3, #:lower16:iVcds_curr
 171 00d6 C0F20003 		movt	r3, #:upper16:iVcds_curr
 172 00da 1A68     		ldr	r2, [r3, #0]
 173 00dc 40F20003 		movw	r3, #:lower16:iVcds_acc
 174 00e0 C0F20003 		movt	r3, #:upper16:iVcds_acc
 175 00e4 1B68     		ldr	r3, [r3, #0]
 176 00e6 C3EB0203 		rsb	r3, r3, r2
 177 00ea 4FEA2312 		asr	r2, r3, #4
 178 00ee 40F20003 		movw	r3, #:lower16:iVcds_acc
 179 00f2 C0F20003 		movt	r3, #:upper16:iVcds_acc
 180 00f6 1B68     		ldr	r3, [r3, #0]
 181 00f8 1A44     		add	r2, r2, r3
 182 00fa 40F20003 		movw	r3, #:lower16:iVcds_acc
 183 00fe C0F20003 		movt	r3, #:upper16:iVcds_acc
 184 0102 1A60     		str	r2, [r3, #0]
 185              		.loc 1 36 0
 186 0104 FB7B     		ldrb	r3, [r7, #15]
 187 0106 03F10103 		add	r3, r3, #1
 188 010a FB73     		strb	r3, [r7, #15]
 189              	.L2:
 190 010c FB7B     		ldrb	r3, [r7, #15]	@ zero_extendqisi2
 191 010e 0F2B     		cmp	r3, #15
 192 0110 9CD9     		bls	.L3
 193              		.loc 1 61 0
 194 0112 40F20003 		movw	r3, #:lower16:iVout1
 195 0116 C0F20003 		movt	r3, #:upper16:iVout1
 196 011a 1B68     		ldr	r3, [r3, #0]
 197 011c 9BB2     		uxth	r3, r3
 198 011e FB80     		strh	r3, [r7, #6]	@ movhi
 199              		.loc 1 63 0
 200 0120 4FF00100 		mov	r0, #1
 201 0124 4FF00001 		mov	r1, #0
 202 0128 FFF7FEFF 		bl	lcd_Position
 203              		.loc 1 64 0
 204 012c 40F20000 		movw	r0, #:lower16:.LC0
 205 0130 C0F20000 		movt	r0, #:upper16:.LC0
 206 0134 FFF7FEFF 		bl	lcd_PrintString
 207              		.loc 1 65 0
 208 0138 FB88     		ldrh	r3, [r7, #6]
 209 013a 1846     		mov	r0, r3
 210 013c FFF7FEFF 		bl	lcd_PrintHexUint16
 211              		.loc 1 67 0
 212 0140 40F20003 		movw	r3, #:lower16:iVout1
 213 0144 C0F20003 		movt	r3, #:upper16:iVout1
 214 0148 1B68     		ldr	r3, [r3, #0]
 215 014a 1846     		mov	r0, r3
 216 014c FFF7FEFF 		bl	adc_CountsTo_Volts
 217 0150 0346     		mov	r3, r0
 218 0152 BB60     		str	r3, [r7, #8]	@ float
 219              		.loc 1 69 0
 220 0154 B868     		ldr	r0, [r7, #8]	@ float
 221 0156 FFF7FEFF 		bl	__aeabi_f2d
 222 015a 0246     		mov	r2, r0
ARM GAS  C:\Users\arh\AppData\Local\Temp\ccqFPakB.s 			page 7


 223 015c 0B46     		mov	r3, r1
 224 015e 40F20000 		movw	r0, #:lower16:buff
 225 0162 C0F20000 		movt	r0, #:upper16:buff
 226 0166 40F20001 		movw	r1, #:lower16:.LC1
 227 016a C0F20001 		movt	r1, #:upper16:.LC1
 228 016e FFF7FEFF 		bl	sprintf
 229              		.loc 1 70 0
 230 0172 4FF00000 		mov	r0, #0
 231 0176 4FF00001 		mov	r1, #0
 232 017a FFF7FEFF 		bl	lcd_Position
 233              		.loc 1 71 0
 234 017e 40F20000 		movw	r0, #:lower16:buff
 235 0182 C0F20000 		movt	r0, #:upper16:buff
 236 0186 FFF7FEFF 		bl	lcd_PrintString
 237              		.loc 1 87 0
 238 018a B868     		ldr	r0, [r7, #8]	@ float
 239 018c FFF7FEFF 		bl	__aeabi_f2d
 240 0190 0246     		mov	r2, r0
 241 0192 0B46     		mov	r3, r1
 242 0194 1046     		mov	r0, r2
 243 0196 1946     		mov	r1, r3
 244 0198 5BA3     		adr	r3, .L9
 245 019a D3E90023 		ldrd	r2, [r3]
 246 019e FFF7FEFF 		bl	__aeabi_dsub
 247 01a2 0246     		mov	r2, r0
 248 01a4 0B46     		mov	r3, r1
 249 01a6 1046     		mov	r0, r2
 250 01a8 1946     		mov	r1, r3
 251 01aa 59A3     		adr	r3, .L9+8
 252 01ac D3E90023 		ldrd	r2, [r3]
 253 01b0 FFF7FEFF 		bl	__aeabi_ddiv
 254 01b4 0246     		mov	r2, r0
 255 01b6 0B46     		mov	r3, r1
 256 01b8 1046     		mov	r0, r2
 257 01ba 1946     		mov	r1, r3
 258 01bc 4FF00002 		mov	r2, #0
 259 01c0 4FF08043 		mov	r3, #1073741824
 260 01c4 03F53813 		add	r3, r3, #3014656
 261 01c8 FFF7FEFF 		bl	__aeabi_dmul
 262 01cc 0246     		mov	r2, r0
 263 01ce 0B46     		mov	r3, r1
 264 01d0 1046     		mov	r0, r2
 265 01d2 1946     		mov	r1, r3
 266 01d4 FFF7FEFF 		bl	__aeabi_d2f
 267 01d8 0346     		mov	r3, r0
 268 01da 3B61     		str	r3, [r7, #16]	@ float
 269              		.loc 1 89 0
 270 01dc 3869     		ldr	r0, [r7, #16]	@ float
 271 01de FFF7FEFF 		bl	__aeabi_f2d
 272 01e2 0246     		mov	r2, r0
 273 01e4 0B46     		mov	r3, r1
 274 01e6 40F20000 		movw	r0, #:lower16:buff
 275 01ea C0F20000 		movt	r0, #:upper16:buff
 276 01ee 40F20001 		movw	r1, #:lower16:.LC2
 277 01f2 C0F20001 		movt	r1, #:upper16:.LC2
 278 01f6 FFF7FEFF 		bl	sprintf
 279              		.loc 1 90 0
ARM GAS  C:\Users\arh\AppData\Local\Temp\ccqFPakB.s 			page 8


 280 01fa 40F20000 		movw	r0, #:lower16:buff
 281 01fe C0F20000 		movt	r0, #:upper16:buff
 282 0202 FFF7FEFF 		bl	lcd_PrintString
 283              		.loc 1 92 0
 284 0206 3869     		ldr	r0, [r7, #16]	@ float
 285 0208 FFF7FEFF 		bl	__aeabi_f2d
 286 020c 0246     		mov	r2, r0
 287 020e 0B46     		mov	r3, r1
 288 0210 1046     		mov	r0, r2
 289 0212 1946     		mov	r1, r3
 290 0214 40A3     		adr	r3, .L9+16
 291 0216 D3E90023 		ldrd	r2, [r3]
 292 021a FFF7FEFF 		bl	__aeabi_ddiv
 293 021e 0246     		mov	r2, r0
 294 0220 0B46     		mov	r3, r1
 295 0222 1046     		mov	r0, r2
 296 0224 1946     		mov	r1, r3
 297 0226 FFF7FEFF 		bl	__aeabi_d2iz
 298 022a 0346     		mov	r3, r0
 299 022c 7B75     		strb	r3, [r7, #21]
 300              		.loc 1 93 0
 301 022e 3869     		ldr	r0, [r7, #16]	@ float
 302 0230 FFF7FEFF 		bl	__aeabi_f2d
 303 0234 0246     		mov	r2, r0
 304 0236 0B46     		mov	r3, r1
 305 0238 1046     		mov	r0, r2
 306 023a 1946     		mov	r1, r3
 307 023c 36A3     		adr	r3, .L9+16
 308 023e D3E90023 		ldrd	r2, [r3]
 309 0242 FFF7FEFF 		bl	__aeabi_ddiv
 310 0246 0246     		mov	r2, r0
 311 0248 0B46     		mov	r3, r1
 312 024a 1446     		mov	r4, r2
 313 024c 1D46     		mov	r5, r3
 314 024e 7B7D     		ldrb	r3, [r7, #21]	@ zero_extendqisi2
 315 0250 1846     		mov	r0, r3
 316 0252 FFF7FEFF 		bl	__aeabi_ui2f
 317 0256 0346     		mov	r3, r0
 318 0258 1846     		mov	r0, r3
 319 025a FFF7FEFF 		bl	__aeabi_f2d
 320 025e 0246     		mov	r2, r0
 321 0260 0B46     		mov	r3, r1
 322 0262 2046     		mov	r0, r4
 323 0264 2946     		mov	r1, r5
 324 0266 FFF7FEFF 		bl	__aeabi_dsub
 325 026a 0246     		mov	r2, r0
 326 026c 0B46     		mov	r3, r1
 327 026e 1046     		mov	r0, r2
 328 0270 1946     		mov	r1, r3
 329 0272 4FF00002 		mov	r2, #0
 330 0276 4FF08043 		mov	r3, #1073741824
 331 027a 03F52013 		add	r3, r3, #2621440
 332 027e FFF7FEFF 		bl	__aeabi_dmul
 333 0282 0246     		mov	r2, r0
 334 0284 0B46     		mov	r3, r1
 335 0286 1046     		mov	r0, r2
 336 0288 1946     		mov	r1, r3
ARM GAS  C:\Users\arh\AppData\Local\Temp\ccqFPakB.s 			page 9


 337 028a FFF7FEFF 		bl	__aeabi_d2iz
 338 028e 0346     		mov	r3, r0
 339 0290 BB75     		strb	r3, [r7, #22]
 340              		.loc 1 94 0
 341 0292 4FF00100 		mov	r0, #1
 342 0296 4FF00801 		mov	r1, #8
 343 029a FFF7FEFF 		bl	lcd_Position
 344              		.loc 1 95 0
 345 029e 40F20000 		movw	r0, #:lower16:.LC3
 346 02a2 C0F20000 		movt	r0, #:upper16:.LC3
 347 02a6 FFF7FEFF 		bl	lcd_PrintString
 348              		.loc 1 96 0
 349 02aa 7B7D     		ldrb	r3, [r7, #21]	@ zero_extendqisi2
 350 02ac 1846     		mov	r0, r3
 351 02ae FFF7FEFF 		bl	lcd_PrintDecUint16
 352              		.loc 1 97 0
 353 02b2 40F20000 		movw	r0, #:lower16:.LC4
 354 02b6 C0F20000 		movt	r0, #:upper16:.LC4
 355 02ba FFF7FEFF 		bl	lcd_PrintString
 356              		.loc 1 98 0
 357 02be BB7D     		ldrb	r3, [r7, #22]	@ zero_extendqisi2
 358 02c0 1846     		mov	r0, r3
 359 02c2 FFF7FEFF 		bl	lcd_PrintDecUint16
 360              		.loc 1 99 0
 361 02c6 40F20000 		movw	r0, #:lower16:.LC5
 362 02ca C0F20000 		movt	r0, #:upper16:.LC5
 363 02ce FFF7FEFF 		bl	lcd_PrintString
 364              		.loc 1 102 0
 365 02d2 FFF7FEFF 		bl	i2c_GetActivity
 366 02d6 0346     		mov	r3, r0
 367 02d8 FB75     		strb	r3, [r7, #23]
 368              		.loc 1 103 0
 369 02da FB7D     		ldrb	r3, [r7, #23]	@ zero_extendqisi2
 370 02dc 03F00103 		and	r3, r3, #1
 371 02e0 DBB2     		uxtb	r3, r3
 372 02e2 002B     		cmp	r3, #0
 373 02e4 3FF4A6AE 		beq	.L8
 374              		.loc 1 105 0
 375 02e8 FFF7FEFF 		bl	led_ReadDataReg
 376 02ec 0346     		mov	r3, r0
 377 02ee 002B     		cmp	r3, #0
 378 02f0 04D0     		beq	.L5
 379              		.loc 1 106 0
 380 02f2 4FF00000 		mov	r0, #0
 381 02f6 FFF7FEFF 		bl	led_Write
 382              	.LBE2:
 383              		.loc 1 111 0
 384 02fa 9CE6     		b	.L6
 385              	.L5:
 386              	.LBB3:
 387              		.loc 1 108 0
 388 02fc 4FF00100 		mov	r0, #1
 389 0300 FFF7FEFF 		bl	led_Write
 390              	.LBE3:
 391              		.loc 1 111 0
 392 0304 97E6     		b	.L6
 393              	.L10:
ARM GAS  C:\Users\arh\AppData\Local\Temp\ccqFPakB.s 			page 10


 394 0306 00BF     		.align	3
 395              	.L9:
 396 0308 0BB5A679 		.word	2040968459
 397 030c C729CA3F 		.word	1070213575
 398 0310 0BB5A679 		.word	2040968459
 399 0314 C729EA3F 		.word	1072310727
 400 0318 85EB51B8 		.word	-1202590843
 401 031c 1E85DB3F 		.word	1071351070
 402              		.cfi_endproc
 403              	.LFE29:
 404              		.size	main, .-main
 405              		.text
 406              	.Letext0: