ARM GAS  C:\Users\arh\AppData\Local\Temp\ccqFPakB.s 			page 1


   1              		.syntax unified
   2              		.cpu cortex-m3
   3              		.fpu softvfp
   4              		.eabi_attribute 20, 1
   5              		.eabi_attribute 21, 1
   6              		.eabi_attribute 23, 3
   7              		.eabi_attribute 24, 1
   8              		.eabi_attribute 25, 1
   9              		.eabi_attribute 26, 1
  10              		.eabi_attribute 30, 6
  11              		.eabi_attribute 18, 4
  12              		.thumb
  13              		.file	"main.c"
  14              		.section	.debug_abbrev,"",%progbits
  15              	.Ldebug_abbrev0:
  16              		.section	.debug_info,"",%progbits
  17              	.Ldebug_info0:
  18              		.section	.debug_line,"",%progbits
  19              	.Ldebug_line0:
  20 0000 AD000000 		.text
  20      02005300 
  20      00000201 
  20      FB0E0D00 
  20      01010101 
  21              	.Ltext0:
  22              		.cfi_sections	.debug_frame
  23              		.comm	iVout1,4,4
  24              		.comm	iVout2,4,4
  25              		.comm	iVcds,4,4
  26              		.comm	iVcds_curr,4,4
  27              		.comm	iVcds_acc,4,4
  28              		.comm	buff,20,4
  29              		.section	.rodata
  30              		.align	2
  31              	.LC0:
  32 0000 413A00   		.ascii	"A:\000"
  33              		.global	__aeabi_f2d
  34 0003 00       		.align	2
  35              	.LC1:
  36 0004 563A2531 		.ascii	"V:%1.3f \000"
  36      2E336620 
  36      00
  37              		.global	__aeabi_dsub
  38              		.global	__aeabi_ddiv
  39              		.global	__aeabi_dmul
  40              		.global	__aeabi_d2f
  41 000d 000000   		.align	2
  42              	.LC2:
  43 0010 503A2532 		.ascii	"P:%2.2f \000"
  43      2E326620 
  43      00
  44              		.global	__aeabi_d2iz
  45              		.global	__aeabi_ui2f
  46 0019 000000   		.align	2
  47              	.LC3:
  48 001c 443A00   		.ascii	"D:\000"
  49 001f 00       		.align	2
ARM GAS  C:\Users\arh\AppData\Local\Temp\ccqFPakB.s 			page 2


  50              	.LC4:
  51 0020 2700     		.ascii	"'\000"
  52 0022 0000     		.align	2
  53              	.LC5:
  54 0024 22202020 		.ascii	"\"   \000"
  54      00
  55 0029 000000   		.section	.text.main,"ax",%progbits
  56              		.align	2
  57              		.global	main
  58              		.thumb
  59              		.thumb_func
  60              		.type	main, %function
  61              	main:
  62              	.LFB29:
  63              		.file 1 ".\\main.c"
   1:.\main.c      **** 
   2:.\main.c      **** #include <device.h>
   3:.\main.c      **** #include <stdio.h>
   4:.\main.c      **** 
   5:.\main.c      **** /*AMUX selections*/
   6:.\main.c      **** #define Select_Single 0 
   7:.\main.c      **** #define Select_Reference 1
   8:.\main.c      **** 
   9:.\main.c      **** /*IIR Filter parameters*/
  10:.\main.c      **** #define IIR_FILTER_STEP 16
  11:.\main.c      **** #define IIR_SHIFT 4
  12:.\main.c      **** 
  13:.\main.c      ****  /*variables for project*/
  14:.\main.c      ****  int32 iVout1, iVout2, iVcds, iVcds_curr, iVcds_acc;
  15:.\main.c      ****  char buff[20];
  16:.\main.c      **** 
  17:.\main.c      **** void main()
  18:.\main.c      **** {
  64              		.loc 1 18 0
  65              		.cfi_startproc
  66              		@ args = 0, pretend = 0, frame = 24
  67              		@ frame_needed = 1, uses_anonymous_args = 0
  68 0000 B0B5     		push	{r4, r5, r7, lr}
  69              	.LCFI0:
  70              		.cfi_def_cfa_offset 16
  71 0002 86B0     		sub	sp, sp, #24
  72              	.LCFI1:
  73              		.cfi_def_cfa_offset 40
  74 0004 00AF     		add	r7, sp, #0
  75              		.cfi_offset 14, -4
  76              		.cfi_offset 7, -8
  77              		.cfi_offset 5, -12
  78              		.cfi_offset 4, -16
  79              	.LCFI2:
  80              		.cfi_def_cfa_register 7
  19:.\main.c      **** 
  20:.\main.c      ****    	float fVcds;
  21:.\main.c      ****    	uint8 iLoop;
  22:.\main.c      ****    	uint16 i2buf;
  23:.\main.c      ****    
  24:.\main.c      ****    /*Initialization*/
  25:.\main.c      ****    	CYGlobalIntEnable;
ARM GAS  C:\Users\arh\AppData\Local\Temp\ccqFPakB.s 			page 3


  81              		.loc 1 25 0
  82              	@ 25 ".\main.c" 1
  83 0006 62B6     		CPSIE   i
  84              	@ 0 "" 2
  26:.\main.c      ****    	adc_Start();
  85              		.loc 1 26 0
  86              		.thumb
  87 0008 FFF7FEFF 		bl	adc_Start
  27:.\main.c      ****    	amux_Start();
  88              		.loc 1 27 0
  89 000c FFF7FEFF 		bl	amux_Start
  28:.\main.c      **** 	lcd_Start();
  90              		.loc 1 28 0
  91 0010 FFF7FEFF 		bl	lcd_Start
  29:.\main.c      **** 	i2c_Start();
  92              		.loc 1 29 0
  93 0014 FFF7FEFF 		bl	i2c_Start
  30:.\main.c      ****   	i2c_SetBuffer1(2,0,&i2buf);
  94              		.loc 1 30 0
  95 0018 07F10603 		add	r3, r7, #6
  96 001c 4FF00200 		mov	r0, #2
  97 0020 4FF00001 		mov	r1, #0
  98 0024 1A46     		mov	r2, r3
  99 0026 FFF7FEFF 		bl	i2c_SetBuffer1
  31:.\main.c      **** 	lcd_ClearDisplay();
 100              		.loc 1 31 0
 101 002a 4FF00100 		mov	r0, #1
 102 002e FFF7FEFF 		bl	lcd_WriteControl
 103 0032 00E0     		b	.L6
 104              	.L8:
  32:.\main.c      **** 	
  33:.\main.c      **** 	for(;;)
  34:.\main.c      ****     {
  35:.\main.c      **** 		iVcds_acc = 0;
  36:.\main.c      **** 		for(iLoop =0; iLoop < IIR_FILTER_STEP; iLoop++)
  37:.\main.c      **** 		{
  38:.\main.c      **** 			/*Get the first sample Vout1*/
  39:.\main.c      **** 			amux_Select(0);
  40:.\main.c      **** 			adc_StartConvert();
  41:.\main.c      **** 			adc_IsEndConversion(adc_WAIT_FOR_RESULT);
  42:.\main.c      **** 			iVout1 = adc_GetResult32();  
  43:.\main.c      **** 			adc_StopConvert();
  44:.\main.c      **** 			
  45:.\main.c      **** 			/*Get the second sample Vout2*/
  46:.\main.c      **** 			amux_Select(1);
  47:.\main.c      **** 			adc_StartConvert();
  48:.\main.c      **** 			adc_IsEndConversion(adc_WAIT_FOR_RESULT);
  49:.\main.c      **** 			iVout2 = adc_GetResult32();
  50:.\main.c      **** 			adc_StopConvert();
  51:.\main.c      **** 			
  52:.\main.c      **** 			/*perform CDS*/
  53:.\main.c      **** 			iVcds = iVout1 - iVout2; 
  54:.\main.c      **** 			
  55:.\main.c      **** 			/* IIR Filter*/
  56:.\main.c      **** 			iVcds_curr = iVcds;
  57:.\main.c      **** 			iVcds_acc += (iVcds_curr - iVcds_acc) >> 4;
  58:.\main.c      **** 		}
ARM GAS  C:\Users\arh\AppData\Local\Temp\ccqFPakB.s 			page 4


  59:.\main.c      **** 
  60:.\main.c      **** 		// put the adc value into the i2c buffer
  61:.\main.c      **** 		i2buf=iVout1;
  62:.\main.c      **** 		// display the i2c buffer
  63:.\main.c      **** 		lcd_Position(1,0);
  64:.\main.c      **** 		lcd_PrintString("A:");
  65:.\main.c      **** 		lcd_PrintInt16(i2buf);
  66:.\main.c      **** 	
  67:.\main.c      **** 		fVcds = adc_CountsTo_Volts(iVout1);
  68:.\main.c      **** 
  69:.\main.c      **** 		sprintf(buff,"V:%1.3f ",(float)fVcds);
  70:.\main.c      **** 		lcd_Position(0,0);
  71:.\main.c      **** 		lcd_PrintString(buff);
  72:.\main.c      **** 	
  73:.\main.c      **** 		/*
  74:.\main.c      **** 		// calculate the voltage
  75:.\main.c      **** 		float nm = i2buf;
  76:.\main.c      **** 		float dn = 65536;
  77:.\main.c      **** 		float calc = (float)(nm/dn)  ;
  78:.\main.c      **** 		float mv = 2* 1.024 * calc ;
  79:.\main.c      **** 		sprintf(buff,"c:%1.3f ", mv);
  80:.\main.c      **** 		lcd_PrintString(buff);
  81:.\main.c      **** 		*/
  82:.\main.c      **** 		
  83:.\main.c      **** 		// calculate psi - range of current loop (4-->20ma) 
  84:.\main.c      **** 		// range of sensor 15 psi
  85:.\main.c      **** 		// resistor is 51.1 ohms
  86:.\main.c      **** 		
  87:.\main.c      **** 		float psi = (fVcds-(0.004*51.1)) / (0.020*51.1 - 0.004*51.1) * 15;
  88:.\main.c      **** 			
  89:.\main.c      **** 		sprintf(buff,"P:%2.2f ",psi);
  90:.\main.c      **** 		lcd_PrintString(buff);
  91:.\main.c      **** 	
  92:.\main.c      **** 		uint8 ft = (int)(psi / 0.43);
  93:.\main.c      **** 		uint8 inches = (int)(12*((psi / 0.43) - (float)ft)); 
  94:.\main.c      **** 		lcd_Position(1,8);
  95:.\main.c      **** 		lcd_PrintString("D:");
  96:.\main.c      **** 		lcd_PrintNumber(ft);
  97:.\main.c      **** 		lcd_PrintString("'");
  98:.\main.c      **** 		lcd_PrintNumber(inches);
  99:.\main.c      **** 		lcd_PrintString("\"   ");
 100:.\main.c      **** 		
 101:.\main.c      **** 		// Toggle the LED every time there is a read
 102:.\main.c      **** 		uint8 i2status = i2c_GetActivity();
 103:.\main.c      **** 		if(i2status & i2c_STATUS_READ1)
 104:.\main.c      **** 		{
 105:.\main.c      **** 				if(led_ReadDataReg())
 106:.\main.c      **** 					led_Write(0);
 107:.\main.c      **** 				else
 108:.\main.c      **** 					led_Write(1);
 109:.\main.c      **** 		}
 110:.\main.c      **** 		
 111:.\main.c      ****     }
 105              		.loc 1 111 0
 106 0034 00BF     		nop
 107              	.L6:
 108              	.LBB2:
ARM GAS  C:\Users\arh\AppData\Local\Temp\ccqFPakB.s 			page 5


 109              		.loc 1 35 0
 110 0036 40F20003 		movw	r3, #:lower16:iVcds_acc
 111 003a C0F20003 		movt	r3, #:upper16:iVcds_acc
 112 003e 4FF00002 		mov	r2, #0
 113 0042 1A60     		str	r2, [r3, #0]
 114              		.loc 1 36 0
 115 0044 4FF00003 		mov	r3, #0
 116 0048 FB73     		strb	r3, [r7, #15]
 117 004a 5FE0     		b	.L2
 118              	.L3:
 119              		.loc 1 39 0
 120 004c 4FF00000 		mov	r0, #0
 121 0050 FFF7FEFF 		bl	amux_Select
 122              		.loc 1 40 0
 123 0054 FFF7FEFF 		bl	adc_StartConvert
 124              		.loc 1 41 0
 125 0058 4FF00000 		mov	r0, #0
 126 005c FFF7FEFF 		bl	adc_IsEndConversion
 127              		.loc 1 42 0
 128 0060 FFF7FEFF 		bl	adc_GetResult32
 129 0064 0246     		mov	r2, r0
 130 0066 40F20003 		movw	r3, #:lower16:iVout1
 131 006a C0F20003 		movt	r3, #:upper16:iVout1
 132 006e 1A60     		str	r2, [r3, #0]
 133              		.loc 1 43 0
 134 0070 FFF7FEFF 		bl	adc_StopConvert
 135              		.loc 1 46 0
 136 0074 4FF00100 		mov	r0, #1
 137 0078 FFF7FEFF 		bl	amux_Select
 138              		.loc 1 47 0
 139 007c FFF7FEFF 		bl	adc_StartConvert
 140              		.loc 1 48 0
 141 0080 4FF00000 		mov	r0, #0
 142 0084 FFF7FEFF 		bl	adc_IsEndConversion
 143              		.loc 1 49 0
 144 0088 FFF7FEFF 		bl	adc_GetResult32
 145 008c 0246     		mov	r2, r0
 146 008e 40F20003 		movw	r3, #:lower16:iVout2
 147 0092 C0F20003 		movt	r3, #:upper16:iVout2
 148 0096 1A60     		str	r2, [r3, #0]
 149              		.loc 1 50 0
 150 0098 FFF7FEFF 		bl	adc_StopConvert
 151              		.loc 1 53 0
 152 009c 40F20003 		movw	r3, #:lower16:iVout1
 153 00a0 C0F20003 		movt	r3, #:upper16:iVout1
 154 00a4 1A68     		ldr	r2, [r3, #0]
 155 00a6 40F20003 		movw	r3, #:lower16:iVout2
 156 00aa C0F20003 		movt	r3, #:upper16:iVout2
 157 00ae 1B68     		ldr	r3, [r3, #0]
 158 00b0 C3EB0202 		rsb	r2, r3, r2
 159 00b4 40F20003 		movw	r3, #:lower16:iVcds
 160 00b8 C0F20003 		movt	r3, #:upper16:iVcds
 161 00bc 1A60     		str	r2, [r3, #0]
 162              		.loc 1 56 0
 163 00be 40F20003 		movw	r3, #:lower16:iVcds
 164 00c2 C0F20003 		movt	r3, #:upper16:iVcds
 165 00c6 1A68     		ldr	r2, [r3, #0]
ARM GAS  C:\Users\arh\AppData\Local\Temp\ccqFPakB.s 			page 6


 166 00c8 40F20003 		movw	r3, #:lower16:iVcds_curr
 167 00cc C0F20003 		movt	r3, #:upper16:iVcds_curr
 168 00d0 1A60     		str	r2, [r3, #0]
 169              		.loc 1 57 0
 170 00d2 40F20003 		movw	r3, #:lower16:iVcds_curr
 171 00d6 C0F20003 		movt	r3, #:upper16:iVcds_curr
 172 00da 1A68     		ldr	r2, [r3, #0]
 173 00dc 40F20003 		movw	r3, #:lower16:iVcds_acc
 174 00e0 C0F20003 		movt	r3, #:upper16:iVcds_acc
 175 00e4 1B68     		ldr	r3, [r3, #0]
 176 00e6 C3EB0203 		rsb	r3, r3, r2
 177 00ea 4FEA2312 		asr	r2, r3, #4
 178 00ee 40F20003 		movw	r3, #:lower16:iVcds_acc
 179 00f2 C0F20003 		movt	r3, #:upper16:iVcds_acc
 180 00f6 1B68     		ldr	r3, [r3, #0]
 181 00f8 1A44     		add	r2, r2, r3
 182 00fa 40F20003 		movw	r3, #:lower16:iVcds_acc
 183 00fe C0F20003 		movt	r3, #:upper16:iVcds_acc
 184 0102 1A60     		str	r2, [r3, #0]
 185              		.loc 1 36 0
 186 0104 FB7B     		ldrb	r3, [r7, #15]
 187 0106 03F10103 		add	r3, r3, #1
 188 010a FB73     		strb	r3, [r7, #15]
 189              	.L2:
 190 010c FB7B     		ldrb	r3, [r7, #15]	@ zero_extendqisi2
 191 010e 0F2B     		cmp	r3, #15
 192 0110 9CD9     		bls	.L3
 193              		.loc 1 61 0
 194 0112 40F20003 		movw	r3, #:lower16:iVout1
 195 0116 C0F20003 		movt	r3, #:upper16:iVout1
 196 011a 1B68     		ldr	r3, [r3, #0]
 197 011c 9BB2     		uxth	r3, r3
 198 011e FB80     		strh	r3, [r7, #6]	@ movhi
 199              		.loc 1 63 0
 200 0120 4FF00100 		mov	r0, #1
 201 0124 4FF00001 		mov	r1, #0
 202 0128 FFF7FEFF 		bl	lcd_Position
 203              		.loc 1 64 0
 204 012c 40F20000 		movw	r0, #:lower16:.LC0
 205 0130 C0F20000 		movt	r0, #:upper16:.LC0
 206 0134 FFF7FEFF 		bl	lcd_PrintString
 207              		.loc 1 65 0
 208 0138 FB88     		ldrh	r3, [r7, #6]
 209 013a 1846     		mov	r0, r3
 210 013c FFF7FEFF 		bl	lcd_PrintHexUint16
 211              		.loc 1 67 0
 212 0140 40F20003 		movw	r3, #:lower16:iVout1
 213 0144 C0F20003 		movt	r3, #:upper16:iVout1
 214 0148 1B68     		ldr	r3, [r3, #0]
 215 014a 1846     		mov	r0, r3
 216 014c FFF7FEFF 		bl	adc_CountsTo_Volts
 217 0150 0346     		mov	r3, r0
 218 0152 BB60     		str	r3, [r7, #8]	@ float
 219              		.loc 1 69 0
 220 0154 B868     		ldr	r0, [r7, #8]	@ float
 221 0156 FFF7FEFF 		bl	__aeabi_f2d
 222 015a 0246     		mov	r2, r0
ARM GAS  C:\Users\arh\AppData\Local\Temp\ccqFPakB.s 			page 7


 223 015c 0B46     		mov	r3, r1
 224 015e 40F20000 		movw	r0, #:lower16:buff
 225 0162 C0F20000 		movt	r0, #:upper16:buff
 226 0166 40F20001 		movw	r1, #:lower16:.LC1
 227 016a C0F20001 		movt	r1, #:upper16:.LC1
 228 016e FFF7FEFF 		bl	sprintf
 229              		.loc 1 70 0
 230 0172 4FF00000 		mov	r0, #0
 231 0176 4FF00001 		mov	r1, #0
 232 017a FFF7FEFF 		bl	lcd_Position
 233              		.loc 1 71 0
 234 017e 40F20000 		movw	r0, #:lower16:buff
 235 0182 C0F20000 		movt	r0, #:upper16:buff
 236 0186 FFF7FEFF 		bl	lcd_PrintString
 237              		.loc 1 87 0
 238 018a B868     		ldr	r0, [r7, #8]	@ float
 239 018c FFF7FEFF 		bl	__aeabi_f2d
 240 0190 0246     		mov	r2, r0
 241 0192 0B46     		mov	r3, r1
 242 0194 1046     		mov	r0, r2
 243 0196 1946     		mov	r1, r3
 244 0198 5BA3     		adr	r3, .L9
 245 019a D3E90023 		ldrd	r2, [r3]
 246 019e FFF7FEFF 		bl	__aeabi_dsub
 247 01a2 0246     		mov	r2, r0
 248 01a4 0B46     		mov	r3, r1
 249 01a6 1046     		mov	r0, r2
 250 01a8 1946     		mov	r1, r3
 251 01aa 59A3     		adr	r3, .L9+8
 252 01ac D3E90023 		ldrd	r2, [r3]
 253 01b0 FFF7FEFF 		bl	__aeabi_ddiv
 254 01b4 0246     		mov	r2, r0
 255 01b6 0B46     		mov	r3, r1
 256 01b8 1046     		mov	r0, r2
 257 01ba 1946     		mov	r1, r3
 258 01bc 4FF00002 		mov	r2, #0
 259 01c0 4FF08043 		mov	r3, #1073741824
 260 01c4 03F53813 		add	r3, r3, #3014656
 261 01c8 FFF7FEFF 		bl	__aeabi_dmul
 262 01cc 0246     		mov	r2, r0
 263 01ce 0B46     		mov	r3, r1
 264 01d0 1046     		mov	r0, r2
 265 01d2 1946     		mov	r1, r3
 266 01d4 FFF7FEFF 		bl	__aeabi_d2f
 267 01d8 0346     		mov	r3, r0
 268 01da 3B61     		str	r3, [r7, #16]	@ float
 269              		.loc 1 89 0
 270 01dc 3869     		ldr	r0, [r7, #16]	@ float
 271 01de FFF7FEFF 		bl	__aeabi_f2d
 272 01e2 0246     		mov	r2, r0
 273 01e4 0B46     		mov	r3, r1
 274 01e6 40F20000 		movw	r0, #:lower16:buff
 275 01ea C0F20000 		movt	r0, #:upper16:buff
 276 01ee 40F20001 		movw	r1, #:lower16:.LC2
 277 01f2 C0F20001 		movt	r1, #:upper16:.LC2
 278 01f6 FFF7FEFF 		bl	sprintf
 279              		.loc 1 90 0
ARM GAS  C:\Users\arh\AppData\Local\Temp\ccqFPakB.s 			page 8


 280 01fa 40F20000 		movw	r0, #:lower16:buff
 281 01fe C0F20000 		movt	r0, #:upper16:buff
 282 0202 FFF7FEFF 		bl	lcd_PrintString
 283              		.loc 1 92 0
 284 0206 3869     		ldr	r0, [r7, #16]	@ float
 285 0208 FFF7FEFF 		bl	__aeabi_f2d
 286 020c 0246     		mov	r2, r0
 287 020e 0B46     		mov	r3, r1
 288 0210 1046     		mov	r0, r2
 289 0212 1946     		mov	r1, r3
 290 0214 40A3     		adr	r3, .L9+16
 291 0216 D3E90023 		ldrd	r2, [r3]
 292 021a FFF7FEFF 		bl	__aeabi_ddiv
 293 021e 0246     		mov	r2, r0
 294 0220 0B46     		mov	r3, r1
 295 0222 1046     		mov	r0, r2
 296 0224 1946     		mov	r1, r3
 297 0226 FFF7FEFF 		bl	__aeabi_d2iz
 298 022a 0346     		mov	r3, r0
 299 022c 7B75     		strb	r3, [r7, #21]
 300              		.loc 1 93 0
 301 022e 3869     		ldr	r0, [r7, #16]	@ float
 302 0230 FFF7FEFF 		bl	__aeabi_f2d
 303 0234 0246     		mov	r2, r0
 304 0236 0B46     		mov	r3, r1
 305 0238 1046     		mov	r0, r2
 306 023a 1946     		mov	r1, r3
 307 023c 36A3     		adr	r3, .L9+16
 308 023e D3E90023 		ldrd	r2, [r3]
 309 0242 FFF7FEFF 		bl	__aeabi_ddiv
 310 0246 0246     		mov	r2, r0
 311 0248 0B46     		mov	r3, r1
 312 024a 1446     		mov	r4, r2
 313 024c 1D46     		mov	r5, r3
 314 024e 7B7D     		ldrb	r3, [r7, #21]	@ zero_extendqisi2
 315 0250 1846     		mov	r0, r3
 316 0252 FFF7FEFF 		bl	__aeabi_ui2f
 317 0256 0346     		mov	r3, r0
 318 0258 1846     		mov	r0, r3
 319 025a FFF7FEFF 		bl	__aeabi_f2d
 320 025e 0246     		mov	r2, r0
 321 0260 0B46     		mov	r3, r1
 322 0262 2046     		mov	r0, r4
 323 0264 2946     		mov	r1, r5
 324 0266 FFF7FEFF 		bl	__aeabi_dsub
 325 026a 0246     		mov	r2, r0
 326 026c 0B46     		mov	r3, r1
 327 026e 1046     		mov	r0, r2
 328 0270 1946     		mov	r1, r3
 329 0272 4FF00002 		mov	r2, #0
 330 0276 4FF08043 		mov	r3, #1073741824
 331 027a 03F52013 		add	r3, r3, #2621440
 332 027e FFF7FEFF 		bl	__aeabi_dmul
 333 0282 0246     		mov	r2, r0
 334 0284 0B46     		mov	r3, r1
 335 0286 1046     		mov	r0, r2
 336 0288 1946     		mov	r1, r3
ARM GAS  C:\Users\arh\AppData\Local\Temp\ccqFPakB.s 			page 9


 337 028a FFF7FEFF 		bl	__aeabi_d2iz
 338 028e 0346     		mov	r3, r0
 339 0290 BB75     		strb	r3, [r7, #22]
 340              		.loc 1 94 0
 341 0292 4FF00100 		mov	r0, #1
 342 0296 4FF00801 		mov	r1, #8
 343 029a FFF7FEFF 		bl	lcd_Position
 344              		.loc 1 95 0
 345 029e 40F20000 		movw	r0, #:lower16:.LC3
 346 02a2 C0F20000 		movt	r0, #:upper16:.LC3
 347 02a6 FFF7FEFF 		bl	lcd_PrintString
 348              		.loc 1 96 0
 349 02aa 7B7D     		ldrb	r3, [r7, #21]	@ zero_extendqisi2
 350 02ac 1846     		mov	r0, r3
 351 02ae FFF7FEFF 		bl	lcd_PrintDecUint16
 352              		.loc 1 97 0
 353 02b2 40F20000 		movw	r0, #:lower16:.LC4
 354 02b6 C0F20000 		movt	r0, #:upper16:.LC4
 355 02ba FFF7FEFF 		bl	lcd_PrintString
 356              		.loc 1 98 0
 357 02be BB7D     		ldrb	r3, [r7, #22]	@ zero_extendqisi2
 358 02c0 1846     		mov	r0, r3
 359 02c2 FFF7FEFF 		bl	lcd_PrintDecUint16
 360              		.loc 1 99 0
 361 02c6 40F20000 		movw	r0, #:lower16:.LC5
 362 02ca C0F20000 		movt	r0, #:upper16:.LC5
 363 02ce FFF7FEFF 		bl	lcd_PrintString
 364              		.loc 1 102 0
 365 02d2 FFF7FEFF 		bl	i2c_GetActivity
 366 02d6 0346     		mov	r3, r0
 367 02d8 FB75     		strb	r3, [r7, #23]
 368              		.loc 1 103 0
 369 02da FB7D     		ldrb	r3, [r7, #23]	@ zero_extendqisi2
 370 02dc 03F00103 		and	r3, r3, #1
 371 02e0 DBB2     		uxtb	r3, r3
 372 02e2 002B     		cmp	r3, #0
 373 02e4 3FF4A6AE 		beq	.L8
 374              		.loc 1 105 0
 375 02e8 FFF7FEFF 		bl	led_ReadDataReg
 376 02ec 0346     		mov	r3, r0
 377 02ee 002B     		cmp	r3, #0
 378 02f0 04D0     		beq	.L5
 379              		.loc 1 106 0
 380 02f2 4FF00000 		mov	r0, #0
 381 02f6 FFF7FEFF 		bl	led_Write
 382              	.LBE2:
 383              		.loc 1 111 0
 384 02fa 9CE6     		b	.L6
 385              	.L5:
 386              	.LBB3:
 387              		.loc 1 108 0
 388 02fc 4FF00100 		mov	r0, #1
 389 0300 FFF7FEFF 		bl	led_Write
 390              	.LBE3:
 391              		.loc 1 111 0
 392 0304 97E6     		b	.L6
 393              	.L10:
ARM GAS  C:\Users\arh\AppData\Local\Temp\ccqFPakB.s 			page 10


 394 0306 00BF     		.align	3
 395              	.L9:
 396 0308 0BB5A679 		.word	2040968459
 397 030c C729CA3F 		.word	1070213575
 398 0310 0BB5A679 		.word	2040968459
 399 0314 C729EA3F 		.word	1072310727
 400 0318 85EB51B8 		.word	-1202590843
 401 031c 1E85DB3F 		.word	1071351070
 402              		.cfi_endproc
 403              	.LFE29:
 404              		.size	main, .-main
 405              		.text
 406              	.Letext0:
 407              		.section	.debug_loc,"",%progbits
 408              	.Ldebug_loc0:
 409              	.LLST0:
 410 0000 00000000 		.4byte	.LFB29
 411 0004 02000000 		.4byte	.LCFI0
 412 0008 0100     		.2byte	0x1
 413 000a 5D       		.byte	0x5d
 414 000b 02000000 		.4byte	.LCFI0
 415 000f 04000000 		.4byte	.LCFI1
 416 0013 0200     		.2byte	0x2
 417 0015 7D       		.byte	0x7d
 418 0016 10       		.sleb128 16
 419 0017 04000000 		.4byte	.LCFI1
 420 001b 06000000 		.4byte	.LCFI2
 421 001f 0200     		.2byte	0x2
 422 0021 7D       		.byte	0x7d
 423 0022 28       		.sleb128 40
 424 0023 06000000 		.4byte	.LCFI2
 425 0027 20030000 		.4byte	.LFE29
 426 002b 0200     		.2byte	0x2
 427 002d 77       		.byte	0x77
 428 002e 28       		.sleb128 40
 429 002f 00000000 		.4byte	0x0
 430 0033 00000000 		.4byte	0x0
 431              		.file 2 "./Generated_Source/PSoC5/cytypes.h"
 432              		.file 3 "./Generated_Source/PSoC5/core_cm3.h"
 433              		.section	.debug_info
 434 0000 AD010000 		.4byte	0x1ad
 435 0004 0200     		.2byte	0x2
 436 0006 00000000 		.4byte	.Ldebug_abbrev0
 437 000a 04       		.byte	0x4
 438 000b 01       		.uleb128 0x1
 439 000c 04010000 		.4byte	.LASF26
 440 0010 01       		.byte	0x1
 441 0011 79000000 		.4byte	.LASF27
 442 0015 0D000000 		.4byte	.LASF28
 443 0019 00000000 		.4byte	0x0
 444 001d 00000000 		.4byte	0x0
 445 0021 18000000 		.4byte	.Ldebug_ranges0+0x18
 446 0025 00000000 		.4byte	.Ldebug_line0
 447 0029 02       		.uleb128 0x2
 448 002a 01       		.byte	0x1
 449 002b 06       		.byte	0x6
 450 002c 34010000 		.4byte	.LASF0
ARM GAS  C:\Users\arh\AppData\Local\Temp\ccqFPakB.s 			page 11


 451 0030 02       		.uleb128 0x2
 452 0031 01       		.byte	0x1
 453 0032 08       		.byte	0x8
 454 0033 6B000000 		.4byte	.LASF1
 455 0037 02       		.uleb128 0x2
 456 0038 02       		.byte	0x2
 457 0039 05       		.byte	0x5
 458 003a 15010000 		.4byte	.LASF2
 459 003e 02       		.uleb128 0x2
 460 003f 02       		.byte	0x2
 461 0040 07       		.byte	0x7
 462 0041 44000000 		.4byte	.LASF3
 463 0045 02       		.uleb128 0x2
 464 0046 04       		.byte	0x4
 465 0047 05       		.byte	0x5
 466 0048 2B010000 		.4byte	.LASF4
 467 004c 02       		.uleb128 0x2
 468 004d 04       		.byte	0x4
 469 004e 07       		.byte	0x7
 470 004f 82000000 		.4byte	.LASF5
 471 0053 02       		.uleb128 0x2
 472 0054 08       		.byte	0x8
 473 0055 05       		.byte	0x5
 474 0056 5D000000 		.4byte	.LASF6
 475 005a 02       		.uleb128 0x2
 476 005b 08       		.byte	0x8
 477 005c 07       		.byte	0x7
 478 005d E7000000 		.4byte	.LASF7
 479 0061 03       		.uleb128 0x3
 480 0062 04       		.byte	0x4
 481 0063 05       		.byte	0x5
 482 0064 696E7400 		.ascii	"int\000"
 483 0068 02       		.uleb128 0x2
 484 0069 04       		.byte	0x4
 485 006a 07       		.byte	0x7
 486 006b DA000000 		.4byte	.LASF8
 487 006f 02       		.uleb128 0x2
 488 0070 01       		.byte	0x1
 489 0071 08       		.byte	0x8
 490 0072 10010000 		.4byte	.LASF9
 491 0076 04       		.uleb128 0x4
 492 0077 1F010000 		.4byte	.LASF10
 493 007b 02       		.byte	0x2
 494 007c 60       		.byte	0x60
 495 007d 30000000 		.4byte	0x30
 496 0081 04       		.uleb128 0x4
 497 0082 C8000000 		.4byte	.LASF11
 498 0086 02       		.byte	0x2
 499 0087 61       		.byte	0x61
 500 0088 3E000000 		.4byte	0x3e
 501 008c 04       		.uleb128 0x4
 502 008d 94000000 		.4byte	.LASF12
 503 0091 02       		.byte	0x2
 504 0092 66       		.byte	0x66
 505 0093 45000000 		.4byte	0x45
 506 0097 05       		.uleb128 0x5
 507 0098 04       		.byte	0x4
ARM GAS  C:\Users\arh\AppData\Local\Temp\ccqFPakB.s 			page 12


 508 0099 07       		.byte	0x7
 509 009a 06       		.uleb128 0x6
 510 009b 01       		.byte	0x1
 511 009c CF000000 		.4byte	.LASF29
 512 00a0 01       		.byte	0x1
 513 00a1 11       		.byte	0x11
 514 00a2 00000000 		.4byte	.LFB29
 515 00a6 20030000 		.4byte	.LFE29
 516 00aa 00000000 		.4byte	.LLST0
 517 00ae 1A010000 		.4byte	0x11a
 518 00b2 07       		.uleb128 0x7
 519 00b3 07000000 		.4byte	.LASF13
 520 00b7 01       		.byte	0x1
 521 00b8 14       		.byte	0x14
 522 00b9 1A010000 		.4byte	0x11a
 523 00bd 02       		.byte	0x2
 524 00be 91       		.byte	0x91
 525 00bf 60       		.sleb128 -32
 526 00c0 07       		.uleb128 0x7
 527 00c1 D4000000 		.4byte	.LASF14
 528 00c5 01       		.byte	0x1
 529 00c6 15       		.byte	0x15
 530 00c7 76000000 		.4byte	0x76
 531 00cb 02       		.byte	0x2
 532 00cc 91       		.byte	0x91
 533 00cd 67       		.sleb128 -25
 534 00ce 07       		.uleb128 0x7
 535 00cf FE000000 		.4byte	.LASF15
 536 00d3 01       		.byte	0x1
 537 00d4 16       		.byte	0x16
 538 00d5 81000000 		.4byte	0x81
 539 00d9 02       		.byte	0x2
 540 00da 91       		.byte	0x91
 541 00db 5E       		.sleb128 -34
 542 00dc 08       		.uleb128 0x8
 543 00dd 00000000 		.4byte	.Ldebug_ranges0+0x0
 544 00e1 09       		.uleb128 0x9
 545 00e2 70736900 		.ascii	"psi\000"
 546 00e6 01       		.byte	0x1
 547 00e7 57       		.byte	0x57
 548 00e8 1A010000 		.4byte	0x11a
 549 00ec 02       		.byte	0x2
 550 00ed 91       		.byte	0x91
 551 00ee 68       		.sleb128 -24
 552 00ef 09       		.uleb128 0x9
 553 00f0 667400   		.ascii	"ft\000"
 554 00f3 01       		.byte	0x1
 555 00f4 5C       		.byte	0x5c
 556 00f5 76000000 		.4byte	0x76
 557 00f9 02       		.byte	0x2
 558 00fa 91       		.byte	0x91
 559 00fb 6D       		.sleb128 -19
 560 00fc 07       		.uleb128 0x7
 561 00fd 9A000000 		.4byte	.LASF16
 562 0101 01       		.byte	0x1
 563 0102 5D       		.byte	0x5d
 564 0103 76000000 		.4byte	0x76
ARM GAS  C:\Users\arh\AppData\Local\Temp\ccqFPakB.s 			page 13


 565 0107 02       		.byte	0x2
 566 0108 91       		.byte	0x91
 567 0109 6E       		.sleb128 -18
 568 010a 07       		.uleb128 0x7
 569 010b 40010000 		.4byte	.LASF17
 570 010f 01       		.byte	0x1
 571 0110 66       		.byte	0x66
 572 0111 76000000 		.4byte	0x76
 573 0115 02       		.byte	0x2
 574 0116 91       		.byte	0x91
 575 0117 6F       		.sleb128 -17
 576 0118 00       		.byte	0x0
 577 0119 00       		.byte	0x0
 578 011a 02       		.uleb128 0x2
 579 011b 04       		.byte	0x4
 580 011c 04       		.byte	0x4
 581 011d 57000000 		.4byte	.LASF18
 582 0121 0A       		.uleb128 0xa
 583 0122 A1000000 		.4byte	.LASF19
 584 0126 03       		.byte	0x3
 585 0127 CE06     		.2byte	0x6ce
 586 0129 2F010000 		.4byte	0x12f
 587 012d 01       		.byte	0x1
 588 012e 01       		.byte	0x1
 589 012f 0B       		.uleb128 0xb
 590 0130 61000000 		.4byte	0x61
 591 0134 0C       		.uleb128 0xc
 592 0135 49010000 		.4byte	.LASF20
 593 0139 01       		.byte	0x1
 594 013a 0E       		.byte	0xe
 595 013b 8C000000 		.4byte	0x8c
 596 013f 01       		.byte	0x1
 597 0140 05       		.byte	0x5
 598 0141 03       		.byte	0x3
 599 0142 00000000 		.4byte	iVout1
 600 0146 0C       		.uleb128 0xc
 601 0147 00000000 		.4byte	.LASF21
 602 014b 01       		.byte	0x1
 603 014c 0E       		.byte	0xe
 604 014d 8C000000 		.4byte	0x8c
 605 0151 01       		.byte	0x1
 606 0152 05       		.byte	0x5
 607 0153 03       		.byte	0x3
 608 0154 00000000 		.4byte	iVout2
 609 0158 0C       		.uleb128 0xc
 610 0159 25010000 		.4byte	.LASF22
 611 015d 01       		.byte	0x1
 612 015e 0E       		.byte	0xe
 613 015f 8C000000 		.4byte	0x8c
 614 0163 01       		.byte	0x1
 615 0164 05       		.byte	0x5
 616 0165 03       		.byte	0x3
 617 0166 00000000 		.4byte	iVcds
 618 016a 0C       		.uleb128 0xc
 619 016b BD000000 		.4byte	.LASF23
 620 016f 01       		.byte	0x1
 621 0170 0E       		.byte	0xe
ARM GAS  C:\Users\arh\AppData\Local\Temp\ccqFPakB.s 			page 14


 622 0171 8C000000 		.4byte	0x8c
 623 0175 01       		.byte	0x1
 624 0176 05       		.byte	0x5
 625 0177 03       		.byte	0x3
 626 0178 00000000 		.4byte	iVcds_curr
 627 017c 0C       		.uleb128 0xc
 628 017d AE000000 		.4byte	.LASF24
 629 0181 01       		.byte	0x1
 630 0182 0E       		.byte	0xe
 631 0183 8C000000 		.4byte	0x8c
 632 0187 01       		.byte	0x1
 633 0188 05       		.byte	0x5
 634 0189 03       		.byte	0x3
 635 018a 00000000 		.4byte	iVcds_acc
 636 018e 0D       		.uleb128 0xd
 637 018f 6F000000 		.4byte	0x6f
 638 0193 9E010000 		.4byte	0x19e
 639 0197 0E       		.uleb128 0xe
 640 0198 97000000 		.4byte	0x97
 641 019c 13       		.byte	0x13
 642 019d 00       		.byte	0x0
 643 019e 0C       		.uleb128 0xc
 644 019f B8000000 		.4byte	.LASF25
 645 01a3 01       		.byte	0x1
 646 01a4 0F       		.byte	0xf
 647 01a5 8E010000 		.4byte	0x18e
 648 01a9 01       		.byte	0x1
 649 01aa 05       		.byte	0x5
 650 01ab 03       		.byte	0x3
 651 01ac 00000000 		.4byte	buff
 652 01b0 00       		.byte	0x0
 653              		.section	.debug_abbrev
 654 0000 01       		.uleb128 0x1
 655 0001 11       		.uleb128 0x11
 656 0002 01       		.byte	0x1
 657 0003 25       		.uleb128 0x25
 658 0004 0E       		.uleb128 0xe
 659 0005 13       		.uleb128 0x13
 660 0006 0B       		.uleb128 0xb
 661 0007 03       		.uleb128 0x3
 662 0008 0E       		.uleb128 0xe
 663 0009 1B       		.uleb128 0x1b
 664 000a 0E       		.uleb128 0xe
 665 000b 11       		.uleb128 0x11
 666 000c 01       		.uleb128 0x1
 667 000d 52       		.uleb128 0x52
 668 000e 01       		.uleb128 0x1
 669 000f 55       		.uleb128 0x55
 670 0010 06       		.uleb128 0x6
 671 0011 10       		.uleb128 0x10
 672 0012 06       		.uleb128 0x6
 673 0013 00       		.byte	0x0
 674 0014 00       		.byte	0x0
 675 0015 02       		.uleb128 0x2
 676 0016 24       		.uleb128 0x24
 677 0017 00       		.byte	0x0
 678 0018 0B       		.uleb128 0xb
ARM GAS  C:\Users\arh\AppData\Local\Temp\ccqFPakB.s 			page 15


 679 0019 0B       		.uleb128 0xb
 680 001a 3E       		.uleb128 0x3e
 681 001b 0B       		.uleb128 0xb
 682 001c 03       		.uleb128 0x3
 683 001d 0E       		.uleb128 0xe
 684 001e 00       		.byte	0x0
 685 001f 00       		.byte	0x0
 686 0020 03       		.uleb128 0x3
 687 0021 24       		.uleb128 0x24
 688 0022 00       		.byte	0x0
 689 0023 0B       		.uleb128 0xb
 690 0024 0B       		.uleb128 0xb
 691 0025 3E       		.uleb128 0x3e
 692 0026 0B       		.uleb128 0xb
 693 0027 03       		.uleb128 0x3
 694 0028 08       		.uleb128 0x8
 695 0029 00       		.byte	0x0
 696 002a 00       		.byte	0x0
 697 002b 04       		.uleb128 0x4
 698 002c 16       		.uleb128 0x16
 699 002d 00       		.byte	0x0
 700 002e 03       		.uleb128 0x3
 701 002f 0E       		.uleb128 0xe
 702 0030 3A       		.uleb128 0x3a
 703 0031 0B       		.uleb128 0xb
 704 0032 3B       		.uleb128 0x3b
 705 0033 0B       		.uleb128 0xb
 706 0034 49       		.uleb128 0x49
 707 0035 13       		.uleb128 0x13
 708 0036 00       		.byte	0x0
 709 0037 00       		.byte	0x0
 710 0038 05       		.uleb128 0x5
 711 0039 24       		.uleb128 0x24
 712 003a 00       		.byte	0x0
 713 003b 0B       		.uleb128 0xb
 714 003c 0B       		.uleb128 0xb
 715 003d 3E       		.uleb128 0x3e
 716 003e 0B       		.uleb128 0xb
 717 003f 00       		.byte	0x0
 718 0040 00       		.byte	0x0
 719 0041 06       		.uleb128 0x6
 720 0042 2E       		.uleb128 0x2e
 721 0043 01       		.byte	0x1
 722 0044 3F       		.uleb128 0x3f
 723 0045 0C       		.uleb128 0xc
 724 0046 03       		.uleb128 0x3
 725 0047 0E       		.uleb128 0xe
 726 0048 3A       		.uleb128 0x3a
 727 0049 0B       		.uleb128 0xb
 728 004a 3B       		.uleb128 0x3b
 729 004b 0B       		.uleb128 0xb
 730 004c 11       		.uleb128 0x11
 731 004d 01       		.uleb128 0x1
 732 004e 12       		.uleb128 0x12
 733 004f 01       		.uleb128 0x1
 734 0050 40       		.uleb128 0x40
 735 0051 06       		.uleb128 0x6
ARM GAS  C:\Users\arh\AppData\Local\Temp\ccqFPakB.s 			page 16


 736 0052 01       		.uleb128 0x1
 737 0053 13       		.uleb128 0x13
 738 0054 00       		.byte	0x0
 739 0055 00       		.byte	0x0
 740 0056 07       		.uleb128 0x7
 741 0057 34       		.uleb128 0x34
 742 0058 00       		.byte	0x0
 743 0059 03       		.uleb128 0x3
 744 005a 0E       		.uleb128 0xe
 745 005b 3A       		.uleb128 0x3a
 746 005c 0B       		.uleb128 0xb
 747 005d 3B       		.uleb128 0x3b
 748 005e 0B       		.uleb128 0xb
 749 005f 49       		.uleb128 0x49
 750 0060 13       		.uleb128 0x13
 751 0061 02       		.uleb128 0x2
 752 0062 0A       		.uleb128 0xa
 753 0063 00       		.byte	0x0
 754 0064 00       		.byte	0x0
 755 0065 08       		.uleb128 0x8
 756 0066 0B       		.uleb128 0xb
 757 0067 01       		.byte	0x1
 758 0068 55       		.uleb128 0x55
 759 0069 06       		.uleb128 0x6
 760 006a 00       		.byte	0x0
 761 006b 00       		.byte	0x0
 762 006c 09       		.uleb128 0x9
 763 006d 34       		.uleb128 0x34
 764 006e 00       		.byte	0x0
 765 006f 03       		.uleb128 0x3
 766 0070 08       		.uleb128 0x8
 767 0071 3A       		.uleb128 0x3a
 768 0072 0B       		.uleb128 0xb
 769 0073 3B       		.uleb128 0x3b
 770 0074 0B       		.uleb128 0xb
 771 0075 49       		.uleb128 0x49
 772 0076 13       		.uleb128 0x13
 773 0077 02       		.uleb128 0x2
 774 0078 0A       		.uleb128 0xa
 775 0079 00       		.byte	0x0
 776 007a 00       		.byte	0x0
 777 007b 0A       		.uleb128 0xa
 778 007c 34       		.uleb128 0x34
 779 007d 00       		.byte	0x0
 780 007e 03       		.uleb128 0x3
 781 007f 0E       		.uleb128 0xe
 782 0080 3A       		.uleb128 0x3a
 783 0081 0B       		.uleb128 0xb
 784 0082 3B       		.uleb128 0x3b
 785 0083 05       		.uleb128 0x5
 786 0084 49       		.uleb128 0x49
 787 0085 13       		.uleb128 0x13
 788 0086 3F       		.uleb128 0x3f
 789 0087 0C       		.uleb128 0xc
 790 0088 3C       		.uleb128 0x3c
 791 0089 0C       		.uleb128 0xc
 792 008a 00       		.byte	0x0
ARM GAS  C:\Users\arh\AppData\Local\Temp\ccqFPakB.s 			page 17


 793 008b 00       		.byte	0x0
 794 008c 0B       		.uleb128 0xb
 795 008d 35       		.uleb128 0x35
 796 008e 00       		.byte	0x0
 797 008f 49       		.uleb128 0x49
 798 0090 13       		.uleb128 0x13
 799 0091 00       		.byte	0x0
 800 0092 00       		.byte	0x0
 801 0093 0C       		.uleb128 0xc
 802 0094 34       		.uleb128 0x34
 803 0095 00       		.byte	0x0
 804 0096 03       		.uleb128 0x3
 805 0097 0E       		.uleb128 0xe
 806 0098 3A       		.uleb128 0x3a
 807 0099 0B       		.uleb128 0xb
 808 009a 3B       		.uleb128 0x3b
 809 009b 0B       		.uleb128 0xb
 810 009c 49       		.uleb128 0x49
 811 009d 13       		.uleb128 0x13
 812 009e 3F       		.uleb128 0x3f
 813 009f 0C       		.uleb128 0xc
 814 00a0 02       		.uleb128 0x2
 815 00a1 0A       		.uleb128 0xa
 816 00a2 00       		.byte	0x0
 817 00a3 00       		.byte	0x0
 818 00a4 0D       		.uleb128 0xd
 819 00a5 01       		.uleb128 0x1
 820 00a6 01       		.byte	0x1
 821 00a7 49       		.uleb128 0x49
 822 00a8 13       		.uleb128 0x13
 823 00a9 01       		.uleb128 0x1
 824 00aa 13       		.uleb128 0x13
 825 00ab 00       		.byte	0x0
 826 00ac 00       		.byte	0x0
 827 00ad 0E       		.uleb128 0xe
 828 00ae 21       		.uleb128 0x21
 829 00af 00       		.byte	0x0
 830 00b0 49       		.uleb128 0x49
 831 00b1 13       		.uleb128 0x13
 832 00b2 2F       		.uleb128 0x2f
 833 00b3 0B       		.uleb128 0xb
 834 00b4 00       		.byte	0x0
 835 00b5 00       		.byte	0x0
 836 00b6 00       		.byte	0x0
 837              		.section	.debug_pubnames,"",%progbits
 838 0000 5D000000 		.4byte	0x5d
 839 0004 0200     		.2byte	0x2
 840 0006 00000000 		.4byte	.Ldebug_info0
 841 000a B1010000 		.4byte	0x1b1
 842 000e 9A000000 		.4byte	0x9a
 843 0012 6D61696E 		.ascii	"main\000"
 843      00
 844 0017 34010000 		.4byte	0x134
 845 001b 69566F75 		.ascii	"iVout1\000"
 845      743100
 846 0022 46010000 		.4byte	0x146
 847 0026 69566F75 		.ascii	"iVout2\000"
ARM GAS  C:\Users\arh\AppData\Local\Temp\ccqFPakB.s 			page 18


 847      743200
 848 002d 58010000 		.4byte	0x158
 849 0031 69566364 		.ascii	"iVcds\000"
 849      7300
 850 0037 6A010000 		.4byte	0x16a
 851 003b 69566364 		.ascii	"iVcds_curr\000"
 851      735F6375 
 851      727200
 852 0046 7C010000 		.4byte	0x17c
 853 004a 69566364 		.ascii	"iVcds_acc\000"
 853      735F6163 
 853      6300
 854 0054 9E010000 		.4byte	0x19e
 855 0058 62756666 		.ascii	"buff\000"
 855      00
 856 005d 00000000 		.4byte	0x0
 857              		.section	.debug_aranges,"",%progbits
 858 0000 1C000000 		.4byte	0x1c
 859 0004 0200     		.2byte	0x2
 860 0006 00000000 		.4byte	.Ldebug_info0
 861 000a 04       		.byte	0x4
 862 000b 00       		.byte	0x0
 863 000c 0000     		.2byte	0x0
 864 000e 0000     		.2byte	0x0
 865 0010 00000000 		.4byte	.LFB29
 866 0014 20030000 		.4byte	.LFE29-.LFB29
 867 0018 00000000 		.4byte	0x0
 868 001c 00000000 		.4byte	0x0
 869              		.section	.debug_ranges,"",%progbits
 870              	.Ldebug_ranges0:
 871 0000 36000000 		.4byte	.LBB2
 872 0004 FA020000 		.4byte	.LBE2
 873 0008 FC020000 		.4byte	.LBB3
 874 000c 04030000 		.4byte	.LBE3
 875 0010 00000000 		.4byte	0x0
 876 0014 00000000 		.4byte	0x0
 877 0018 00000000 		.4byte	.Ltext0
 878 001c 00000000 		.4byte	.Letext0
 879 0020 00000000 		.4byte	.LFB29
 880 0024 20030000 		.4byte	.LFE29
 881 0028 00000000 		.4byte	0x0
 882 002c 00000000 		.4byte	0x0
 883              		.section	.debug_str,"MS",%progbits,1
 884              	.LASF21:
 885 0000 69566F75 		.ascii	"iVout2\000"
 885      743200
 886              	.LASF13:
 887 0007 66566364 		.ascii	"fVcds\000"
 887      7300
 888              	.LASF28:
 889 000d 433A5C55 		.ascii	"C:\\Users\\arh\\Documents\\PSoC Creator\\Design07\\"
 889      73657273 
 889      5C617268 
 889      5C446F63 
 889      756D656E 
 890 003a 6364732E 		.ascii	"cds.cydsn\000"
 890      63796473 
ARM GAS  C:\Users\arh\AppData\Local\Temp\ccqFPakB.s 			page 19


 890      6E00
 891              	.LASF3:
 892 0044 73686F72 		.ascii	"short unsigned int\000"
 892      7420756E 
 892      7369676E 
 892      65642069 
 892      6E7400
 893              	.LASF18:
 894 0057 666C6F61 		.ascii	"float\000"
 894      7400
 895              	.LASF6:
 896 005d 6C6F6E67 		.ascii	"long long int\000"
 896      206C6F6E 
 896      6720696E 
 896      7400
 897              	.LASF1:
 898 006b 756E7369 		.ascii	"unsigned char\000"
 898      676E6564 
 898      20636861 
 898      7200
 899              	.LASF27:
 900 0079 2E5C6D61 		.ascii	".\\main.c\000"
 900      696E2E63 
 900      00
 901              	.LASF5:
 902 0082 6C6F6E67 		.ascii	"long unsigned int\000"
 902      20756E73 
 902      69676E65 
 902      6420696E 
 902      7400
 903              	.LASF12:
 904 0094 696E7433 		.ascii	"int32\000"
 904      3200
 905              	.LASF16:
 906 009a 696E6368 		.ascii	"inches\000"
 906      657300
 907              	.LASF19:
 908 00a1 49544D5F 		.ascii	"ITM_RxBuffer\000"
 908      52784275 
 908      66666572 
 908      00
 909              	.LASF24:
 910 00ae 69566364 		.ascii	"iVcds_acc\000"
 910      735F6163 
 910      6300
 911              	.LASF25:
 912 00b8 62756666 		.ascii	"buff\000"
 912      00
 913              	.LASF23:
 914 00bd 69566364 		.ascii	"iVcds_curr\000"
 914      735F6375 
 914      727200
 915              	.LASF11:
 916 00c8 75696E74 		.ascii	"uint16\000"
 916      313600
 917              	.LASF29:
 918 00cf 6D61696E 		.ascii	"main\000"
ARM GAS  C:\Users\arh\AppData\Local\Temp\ccqFPakB.s 			page 20


 918      00
 919              	.LASF14:
 920 00d4 694C6F6F 		.ascii	"iLoop\000"
 920      7000
 921              	.LASF8:
 922 00da 756E7369 		.ascii	"unsigned int\000"
 922      676E6564 
 922      20696E74 
 922      00
 923              	.LASF7:
 924 00e7 6C6F6E67 		.ascii	"long long unsigned int\000"
 924      206C6F6E 
 924      6720756E 
 924      7369676E 
 924      65642069 
 925              	.LASF15:
 926 00fe 69326275 		.ascii	"i2buf\000"
 926      6600
 927              	.LASF26:
 928 0104 474E5520 		.ascii	"GNU C 4.4.1\000"
 928      4320342E 
 928      342E3100 
 929              	.LASF9:
 930 0110 63686172 		.ascii	"char\000"
 930      00
 931              	.LASF2:
 932 0115 73686F72 		.ascii	"short int\000"
 932      7420696E 
 932      7400
 933              	.LASF10:
 934 011f 75696E74 		.ascii	"uint8\000"
 934      3800
 935              	.LASF22:
 936 0125 69566364 		.ascii	"iVcds\000"
 936      7300
 937              	.LASF4:
 938 012b 6C6F6E67 		.ascii	"long int\000"
 938      20696E74 
 938      00
 939              	.LASF0:
 940 0134 7369676E 		.ascii	"signed char\000"
 940      65642063 
 940      68617200 
 941              	.LASF17:
 942 0140 69327374 		.ascii	"i2status\000"
 942      61747573 
 942      00
 943              	.LASF20:
 944 0149 69566F75 		.ascii	"iVout1\000"
 944      743100
 945              		.ident	"GCC: (Sourcery G++ Lite 2010q1-188) 4.4.1"
