ARM GAS  C:\Users\arh\AppData\Local\Temp\ccDsIdyy.s 			page 1


   1              		.syntax unified
   2              		.cpu cortex-m3
   3              		.fpu softvfp
   4              		.eabi_attribute 20, 1
   5              		.eabi_attribute 21, 1
   6              		.eabi_attribute 23, 3
   7              		.eabi_attribute 24, 1
   8              		.eabi_attribute 25, 1
   9              		.eabi_attribute 26, 1
  10              		.eabi_attribute 30, 6
  11              		.eabi_attribute 18, 4
  12              		.thumb
  13              		.file	"Pin_2.c"
  20 0000 AC000000 		.text
  20      02005E00 
  20      00000201 
  20      FB0E0D00 
  20      01010101 
  21              	.Ltext0:
  22              		.cfi_sections	.debug_frame
  23              		.section	.text.Pin_2_Write,"ax",%progbits
  24              		.align	2
  25              		.global	Pin_2_Write
  26              		.thumb
  27              		.thumb_func
  28              		.type	Pin_2_Write, %function
  29              	Pin_2_Write:
  30              	.LFB0:
  31              		.file 1 ".\\Generated_Source\\PSoC5\\Pin_2.c"
   1:.\Generated_Source\PSoC5/Pin_2.c **** /*******************************************************************************
   2:.\Generated_Source\PSoC5/Pin_2.c **** * File Name: Pin_2.c  
   3:.\Generated_Source\PSoC5/Pin_2.c **** * Version 1.70
   4:.\Generated_Source\PSoC5/Pin_2.c **** *
   5:.\Generated_Source\PSoC5/Pin_2.c **** * Description:
   6:.\Generated_Source\PSoC5/Pin_2.c **** *  This file contains API to enable firmware control of a Pins component.
   7:.\Generated_Source\PSoC5/Pin_2.c **** *
   8:.\Generated_Source\PSoC5/Pin_2.c **** * Note:
   9:.\Generated_Source\PSoC5/Pin_2.c **** *
  10:.\Generated_Source\PSoC5/Pin_2.c **** ********************************************************************************
  11:.\Generated_Source\PSoC5/Pin_2.c **** * Copyright 2008-2010, Cypress Semiconductor Corporation.  All rights reserved.
  12:.\Generated_Source\PSoC5/Pin_2.c **** * You may use this file only in accordance with the license, terms, conditions, 
  13:.\Generated_Source\PSoC5/Pin_2.c **** * disclaimers, and limitations in the end user license agreement accompanying 
  14:.\Generated_Source\PSoC5/Pin_2.c **** * the software package with which this file was provided.
  15:.\Generated_Source\PSoC5/Pin_2.c **** ********************************************************************************/
  16:.\Generated_Source\PSoC5/Pin_2.c **** 
  17:.\Generated_Source\PSoC5/Pin_2.c **** #include "cytypes.h"
  18:.\Generated_Source\PSoC5/Pin_2.c **** #include "Pin_2.h"
  19:.\Generated_Source\PSoC5/Pin_2.c **** 
  20:.\Generated_Source\PSoC5/Pin_2.c **** /* APIs are not generated for P15[7:6] */
  21:.\Generated_Source\PSoC5/Pin_2.c **** #if !(CY_PSOC5A &&\
  22:.\Generated_Source\PSoC5/Pin_2.c **** 	 Pin_2__PORT == 15 && (Pin_2__MASK & 0xC0))
ARM GAS  C:\Users\arh\AppData\Local\Temp\ccDsIdyy.s 			page 2


  23:.\Generated_Source\PSoC5/Pin_2.c **** 
  24:.\Generated_Source\PSoC5/Pin_2.c **** /*******************************************************************************
  25:.\Generated_Source\PSoC5/Pin_2.c **** * Function Name: Pin_2_Write
  26:.\Generated_Source\PSoC5/Pin_2.c **** ********************************************************************************
  27:.\Generated_Source\PSoC5/Pin_2.c **** * Summary:
  28:.\Generated_Source\PSoC5/Pin_2.c **** *  Assign a new value to the digital port's data output register.  
  29:.\Generated_Source\PSoC5/Pin_2.c **** *
  30:.\Generated_Source\PSoC5/Pin_2.c **** * Parameters:  
  31:.\Generated_Source\PSoC5/Pin_2.c **** *  prtValue:  The value to be assigned to the Digital Port. 
  32:.\Generated_Source\PSoC5/Pin_2.c **** *
  33:.\Generated_Source\PSoC5/Pin_2.c **** * Return: 
  34:.\Generated_Source\PSoC5/Pin_2.c **** *  void 
  35:.\Generated_Source\PSoC5/Pin_2.c **** *  
  36:.\Generated_Source\PSoC5/Pin_2.c **** *******************************************************************************/
  37:.\Generated_Source\PSoC5/Pin_2.c **** void Pin_2_Write(uint8 value) 
  38:.\Generated_Source\PSoC5/Pin_2.c **** {
  32              		.loc 1 38 0
  33              		.cfi_startproc
  34              		@ args = 0, pretend = 0, frame = 16
  35              		@ frame_needed = 1, uses_anonymous_args = 0
  36              		@ link register save eliminated.
  37 0000 80B4     		push	{r7}
  38              	.LCFI0:
  39              		.cfi_def_cfa_offset 4
  40 0002 85B0     		sub	sp, sp, #20
  41              	.LCFI1:
  42              		.cfi_def_cfa_offset 24
  43 0004 00AF     		add	r7, sp, #0
  44              		.cfi_offset 7, -4
  45              	.LCFI2:
  46              		.cfi_def_cfa_register 7
  47 0006 0346     		mov	r3, r0
  48 0008 FB71     		strb	r3, [r7, #7]
  39:.\Generated_Source\PSoC5/Pin_2.c ****     uint8 staticBits = Pin_2_DR & ~Pin_2_MASK;
  49              		.loc 1 39 0
  50 000a 45F20013 		movw	r3, #:lower16:1073762560
  51 000e C4F20003 		movt	r3, #:upper16:1073762560
  52 0012 1B78     		ldrb	r3, [r3, #0]
  53 0014 DBB2     		uxtb	r3, r3
  54 0016 23F00203 		bic	r3, r3, #2
  55 001a FB73     		strb	r3, [r7, #15]
  40:.\Generated_Source\PSoC5/Pin_2.c ****     Pin_2_DR = staticBits | ((value << Pin_2_SHIFT) & Pin_2_MASK);
  56              		.loc 1 40 0
  57 001c 45F20013 		movw	r3, #:lower16:1073762560
  58 0020 C4F20003 		movt	r3, #:upper16:1073762560
  59 0024 FA79     		ldrb	r2, [r7, #7]
  60 0026 4FEA4202 		lsl	r2, r2, #1
  61 002a D2B2     		uxtb	r2, r2
  62 002c 02F00202 		and	r2, r2, #2
  63 0030 F97B     		ldrb	r1, [r7, #15]
  64 0032 42EA0102 		orr	r2, r2, r1
  65 0036 D2B2     		uxtb	r2, r2
  66 0038 1A70     		strb	r2, [r3, #0]
  41:.\Generated_Source\PSoC5/Pin_2.c **** }
  67              		.loc 1 41 0
  68 003a 07F11407 		add	r7, r7, #20
  69 003e BD46     		mov	sp, r7
ARM GAS  C:\Users\arh\AppData\Local\Temp\ccDsIdyy.s 			page 3


  70 0040 80BC     		pop	{r7}
  71 0042 7047     		bx	lr
  72              		.cfi_endproc
  73              	.LFE0:
  74              		.size	Pin_2_Write, .-Pin_2_Write
  75              		.section	.text.Pin_2_SetDriveMode,"ax",%progbits
  76              		.align	2
  77              		.global	Pin_2_SetDriveMode
  78              		.thumb
  79              		.thumb_func
  80              		.type	Pin_2_SetDriveMode, %function
  81              	Pin_2_SetDriveMode:
  82              	.LFB1:
  42:.\Generated_Source\PSoC5/Pin_2.c **** 
  43:.\Generated_Source\PSoC5/Pin_2.c **** 
  44:.\Generated_Source\PSoC5/Pin_2.c **** /*******************************************************************************
  45:.\Generated_Source\PSoC5/Pin_2.c **** * Function Name: Pin_2_SetDriveMode
  46:.\Generated_Source\PSoC5/Pin_2.c **** ********************************************************************************
  47:.\Generated_Source\PSoC5/Pin_2.c **** * Summary:
  48:.\Generated_Source\PSoC5/Pin_2.c **** *  Change the drive mode on the pins of the port.
  49:.\Generated_Source\PSoC5/Pin_2.c **** * 
  50:.\Generated_Source\PSoC5/Pin_2.c **** * Parameters:  
  51:.\Generated_Source\PSoC5/Pin_2.c **** *  mode:  Change the pins to this drive mode.
  52:.\Generated_Source\PSoC5/Pin_2.c **** *
  53:.\Generated_Source\PSoC5/Pin_2.c **** * Return: 
  54:.\Generated_Source\PSoC5/Pin_2.c **** *  void
  55:.\Generated_Source\PSoC5/Pin_2.c **** *
  56:.\Generated_Source\PSoC5/Pin_2.c **** *******************************************************************************/
  57:.\Generated_Source\PSoC5/Pin_2.c **** void Pin_2_SetDriveMode(uint8 mode) 
  58:.\Generated_Source\PSoC5/Pin_2.c **** {
  83              		.loc 1 58 0
  84              		.cfi_startproc
  85              		@ args = 0, pretend = 0, frame = 8
  86              		@ frame_needed = 1, uses_anonymous_args = 0
  87              		@ link register save eliminated.
  88 0000 80B4     		push	{r7}
  89              	.LCFI3:
  90              		.cfi_def_cfa_offset 4
  91 0002 83B0     		sub	sp, sp, #12
  92              	.LCFI4:
  93              		.cfi_def_cfa_offset 16
  94 0004 00AF     		add	r7, sp, #0
  95              		.cfi_offset 7, -4
  96              	.LCFI5:
  97              		.cfi_def_cfa_register 7
  98 0006 0346     		mov	r3, r0
  99 0008 FB71     		strb	r3, [r7, #7]
  59:.\Generated_Source\PSoC5/Pin_2.c **** 	CyPins_SetPinDriveMode(Pin_2_0, mode);
 100              		.loc 1 59 0
 101 000a 45F20103 		movw	r3, #:lower16:1073762305
 102 000e C4F20003 		movt	r3, #:upper16:1073762305
 103 0012 45F20102 		movw	r2, #:lower16:1073762305
 104 0016 C4F20002 		movt	r2, #:upper16:1073762305
 105 001a 1278     		ldrb	r2, [r2, #0]
 106 001c D2B2     		uxtb	r2, r2
 107 001e 1146     		mov	r1, r2
 108 0020 01F0F101 		and	r1, r1, #241
ARM GAS  C:\Users\arh\AppData\Local\Temp\ccDsIdyy.s 			page 4


 109 0024 FA79     		ldrb	r2, [r7, #7]	@ zero_extendqisi2
 110 0026 02F00E02 		and	r2, r2, #14
 111 002a 41EA0202 		orr	r2, r1, r2
 112 002e D2B2     		uxtb	r2, r2
 113 0030 1A70     		strb	r2, [r3, #0]
  60:.\Generated_Source\PSoC5/Pin_2.c **** }
 114              		.loc 1 60 0
 115 0032 07F10C07 		add	r7, r7, #12
 116 0036 BD46     		mov	sp, r7
 117 0038 80BC     		pop	{r7}
 118 003a 7047     		bx	lr
 119              		.cfi_endproc
 120              	.LFE1:
 121              		.size	Pin_2_SetDriveMode, .-Pin_2_SetDriveMode
 122              		.section	.text.Pin_2_Read,"ax",%progbits
 123              		.align	2
 124              		.global	Pin_2_Read
 125              		.thumb
 126              		.thumb_func
 127              		.type	Pin_2_Read, %function
 128              	Pin_2_Read:
 129              	.LFB2:
  61:.\Generated_Source\PSoC5/Pin_2.c **** 
  62:.\Generated_Source\PSoC5/Pin_2.c **** 
  63:.\Generated_Source\PSoC5/Pin_2.c **** /*******************************************************************************
  64:.\Generated_Source\PSoC5/Pin_2.c **** * Function Name: Pin_2_Read
  65:.\Generated_Source\PSoC5/Pin_2.c **** ********************************************************************************
  66:.\Generated_Source\PSoC5/Pin_2.c **** * Summary:
  67:.\Generated_Source\PSoC5/Pin_2.c **** *  Read the current value on the pins of the Digital Port in right justified 
  68:.\Generated_Source\PSoC5/Pin_2.c **** *  form.
  69:.\Generated_Source\PSoC5/Pin_2.c **** *
  70:.\Generated_Source\PSoC5/Pin_2.c **** * Parameters:  
  71:.\Generated_Source\PSoC5/Pin_2.c **** *  void 
  72:.\Generated_Source\PSoC5/Pin_2.c **** *
  73:.\Generated_Source\PSoC5/Pin_2.c **** * Return: 
  74:.\Generated_Source\PSoC5/Pin_2.c **** *  Returns the current value of the Digital Port as a right justified number
  75:.\Generated_Source\PSoC5/Pin_2.c **** *  
  76:.\Generated_Source\PSoC5/Pin_2.c **** * Note:
  77:.\Generated_Source\PSoC5/Pin_2.c **** *  Macro Pin_2_ReadPS calls this function. 
  78:.\Generated_Source\PSoC5/Pin_2.c **** *  
  79:.\Generated_Source\PSoC5/Pin_2.c **** *******************************************************************************/
  80:.\Generated_Source\PSoC5/Pin_2.c **** uint8 Pin_2_Read(void) 
  81:.\Generated_Source\PSoC5/Pin_2.c **** {
 130              		.loc 1 81 0
 131              		.cfi_startproc
 132              		@ args = 0, pretend = 0, frame = 0
 133              		@ frame_needed = 1, uses_anonymous_args = 0
 134              		@ link register save eliminated.
 135 0000 80B4     		push	{r7}
 136              	.LCFI6:
 137              		.cfi_def_cfa_offset 4
 138 0002 00AF     		add	r7, sp, #0
 139              		.cfi_offset 7, -4
 140              	.LCFI7:
 141              		.cfi_def_cfa_register 7
  82:.\Generated_Source\PSoC5/Pin_2.c ****     return (Pin_2_PS & Pin_2_MASK) >> Pin_2_SHIFT;
 142              		.loc 1 82 0
ARM GAS  C:\Users\arh\AppData\Local\Temp\ccDsIdyy.s 			page 5


 143 0004 45F20113 		movw	r3, #:lower16:1073762561
 144 0008 C4F20003 		movt	r3, #:upper16:1073762561
 145 000c 1B78     		ldrb	r3, [r3, #0]
 146 000e DBB2     		uxtb	r3, r3
 147 0010 03F00203 		and	r3, r3, #2
 148 0014 4FEA5303 		lsr	r3, r3, #1
 149 0018 DBB2     		uxtb	r3, r3
  83:.\Generated_Source\PSoC5/Pin_2.c **** }
 150              		.loc 1 83 0
 151 001a 1846     		mov	r0, r3
 152 001c BD46     		mov	sp, r7
 153 001e 80BC     		pop	{r7}
 154 0020 7047     		bx	lr
 155              		.cfi_endproc
 156              	.LFE2:
 157              		.size	Pin_2_Read, .-Pin_2_Read
 158 0022 00BF     		.section	.text.Pin_2_ReadDataReg,"ax",%progbits
 159              		.align	2
 160              		.global	Pin_2_ReadDataReg
 161              		.thumb
 162              		.thumb_func
 163              		.type	Pin_2_ReadDataReg, %function
 164              	Pin_2_ReadDataReg:
 165              	.LFB3:
  84:.\Generated_Source\PSoC5/Pin_2.c **** 
  85:.\Generated_Source\PSoC5/Pin_2.c **** 
  86:.\Generated_Source\PSoC5/Pin_2.c **** /*******************************************************************************
  87:.\Generated_Source\PSoC5/Pin_2.c **** * Function Name: Pin_2_ReadDataReg
  88:.\Generated_Source\PSoC5/Pin_2.c **** ********************************************************************************
  89:.\Generated_Source\PSoC5/Pin_2.c **** * Summary:
  90:.\Generated_Source\PSoC5/Pin_2.c **** *  Read the current value assigned to a Digital Port's data output register
  91:.\Generated_Source\PSoC5/Pin_2.c **** *
  92:.\Generated_Source\PSoC5/Pin_2.c **** * Parameters:  
  93:.\Generated_Source\PSoC5/Pin_2.c **** *  void 
  94:.\Generated_Source\PSoC5/Pin_2.c **** *
  95:.\Generated_Source\PSoC5/Pin_2.c **** * Return: 
  96:.\Generated_Source\PSoC5/Pin_2.c **** *  Returns the current value assigned to the Digital Port's data output register
  97:.\Generated_Source\PSoC5/Pin_2.c **** *  
  98:.\Generated_Source\PSoC5/Pin_2.c **** *******************************************************************************/
  99:.\Generated_Source\PSoC5/Pin_2.c **** uint8 Pin_2_ReadDataReg(void) 
 100:.\Generated_Source\PSoC5/Pin_2.c **** {
 166              		.loc 1 100 0
 167              		.cfi_startproc
 168              		@ args = 0, pretend = 0, frame = 0
 169              		@ frame_needed = 1, uses_anonymous_args = 0
 170              		@ link register save eliminated.
 171 0000 80B4     		push	{r7}
 172              	.LCFI8:
 173              		.cfi_def_cfa_offset 4
 174 0002 00AF     		add	r7, sp, #0
 175              		.cfi_offset 7, -4
 176              	.LCFI9:
 177              		.cfi_def_cfa_register 7
 101:.\Generated_Source\PSoC5/Pin_2.c ****     return (Pin_2_DR & Pin_2_MASK) >> Pin_2_SHIFT;
 178              		.loc 1 101 0
 179 0004 45F20013 		movw	r3, #:lower16:1073762560
 180 0008 C4F20003 		movt	r3, #:upper16:1073762560
ARM GAS  C:\Users\arh\AppData\Local\Temp\ccDsIdyy.s 			page 6


 181 000c 1B78     		ldrb	r3, [r3, #0]
 182 000e DBB2     		uxtb	r3, r3
 183 0010 03F00203 		and	r3, r3, #2
 184 0014 4FEA5303 		lsr	r3, r3, #1
 185 0018 DBB2     		uxtb	r3, r3
 102:.\Generated_Source\PSoC5/Pin_2.c **** }
 186              		.loc 1 102 0
 187 001a 1846     		mov	r0, r3
 188 001c BD46     		mov	sp, r7
 189 001e 80BC     		pop	{r7}
 190 0020 7047     		bx	lr
 191              		.cfi_endproc
 192              	.LFE3:
 193              		.size	Pin_2_ReadDataReg, .-Pin_2_ReadDataReg
 194 0022 00BF     		.text
 195              	.Letext0: